ARM GAS  /tmp/cc3ELaEI.s 			page 1


   1              		.syntax unified
   2              		.cpu cortex-m4
   3              		.eabi_attribute 27, 1
   4              		.eabi_attribute 28, 1
   5              		.fpu fpv4-sp-d16
   6              		.eabi_attribute 20, 1
   7              		.eabi_attribute 21, 1
   8              		.eabi_attribute 23, 3
   9              		.eabi_attribute 24, 1
  10              		.eabi_attribute 25, 1
  11              		.eabi_attribute 26, 1
  12              		.eabi_attribute 30, 6
  13              		.eabi_attribute 34, 1
  14              		.eabi_attribute 18, 4
  15              		.thumb
  16              		.syntax unified
  17              		.file	"stm32f4xx_hal_i2c.c"
  18              		.text
  19              	.Ltext0:
  20              		.cfi_sections	.debug_frame
  21              		.section	.text.HAL_I2C_Init,"ax",%progbits
  22              		.align	2
  23              		.global	HAL_I2C_Init
  24              		.thumb
  25              		.thumb_func
  27              	HAL_I2C_Init:
  28              	.LFB126:
  29              		.file 1 "Drivers/STM32F4xx_HAL_Driver/Src/stm32f4xx_hal_i2c.c"
   1:Drivers/STM32F4xx_HAL_Driver/Src/stm32f4xx_hal_i2c.c **** /**
   2:Drivers/STM32F4xx_HAL_Driver/Src/stm32f4xx_hal_i2c.c ****   ******************************************************************************
   3:Drivers/STM32F4xx_HAL_Driver/Src/stm32f4xx_hal_i2c.c ****   * @file    stm32f4xx_hal_i2c.c
   4:Drivers/STM32F4xx_HAL_Driver/Src/stm32f4xx_hal_i2c.c ****   * @author  MCD Application Team
   5:Drivers/STM32F4xx_HAL_Driver/Src/stm32f4xx_hal_i2c.c ****   * @version V1.5.2
   6:Drivers/STM32F4xx_HAL_Driver/Src/stm32f4xx_hal_i2c.c ****   * @date    22-September-2016
   7:Drivers/STM32F4xx_HAL_Driver/Src/stm32f4xx_hal_i2c.c ****   * @brief   I2C HAL module driver.
   8:Drivers/STM32F4xx_HAL_Driver/Src/stm32f4xx_hal_i2c.c ****   *          This file provides firmware functions to manage the following
   9:Drivers/STM32F4xx_HAL_Driver/Src/stm32f4xx_hal_i2c.c ****   *          functionalities of the Inter Integrated Circuit (I2C) peripheral:
  10:Drivers/STM32F4xx_HAL_Driver/Src/stm32f4xx_hal_i2c.c ****   *           + Initialization and de-initialization functions
  11:Drivers/STM32F4xx_HAL_Driver/Src/stm32f4xx_hal_i2c.c ****   *           + IO operation functions
  12:Drivers/STM32F4xx_HAL_Driver/Src/stm32f4xx_hal_i2c.c ****   *           + Peripheral State, Mode and Error functions
  13:Drivers/STM32F4xx_HAL_Driver/Src/stm32f4xx_hal_i2c.c ****   *
  14:Drivers/STM32F4xx_HAL_Driver/Src/stm32f4xx_hal_i2c.c ****   @verbatim
  15:Drivers/STM32F4xx_HAL_Driver/Src/stm32f4xx_hal_i2c.c ****   ==============================================================================
  16:Drivers/STM32F4xx_HAL_Driver/Src/stm32f4xx_hal_i2c.c ****                         ##### How to use this driver #####
  17:Drivers/STM32F4xx_HAL_Driver/Src/stm32f4xx_hal_i2c.c ****   ==============================================================================
  18:Drivers/STM32F4xx_HAL_Driver/Src/stm32f4xx_hal_i2c.c ****   [..]
  19:Drivers/STM32F4xx_HAL_Driver/Src/stm32f4xx_hal_i2c.c ****     The I2C HAL driver can be used as follows:
  20:Drivers/STM32F4xx_HAL_Driver/Src/stm32f4xx_hal_i2c.c **** 
  21:Drivers/STM32F4xx_HAL_Driver/Src/stm32f4xx_hal_i2c.c ****     (#) Declare a I2C_HandleTypeDef handle structure, for example:
  22:Drivers/STM32F4xx_HAL_Driver/Src/stm32f4xx_hal_i2c.c ****         I2C_HandleTypeDef  hi2c;
  23:Drivers/STM32F4xx_HAL_Driver/Src/stm32f4xx_hal_i2c.c **** 
  24:Drivers/STM32F4xx_HAL_Driver/Src/stm32f4xx_hal_i2c.c ****     (#)Initialize the I2C low level resources by implementing the HAL_I2C_MspInit() API:
  25:Drivers/STM32F4xx_HAL_Driver/Src/stm32f4xx_hal_i2c.c ****         (##) Enable the I2Cx interface clock
  26:Drivers/STM32F4xx_HAL_Driver/Src/stm32f4xx_hal_i2c.c ****         (##) I2C pins configuration
  27:Drivers/STM32F4xx_HAL_Driver/Src/stm32f4xx_hal_i2c.c ****             (+++) Enable the clock for the I2C GPIOs
  28:Drivers/STM32F4xx_HAL_Driver/Src/stm32f4xx_hal_i2c.c ****             (+++) Configure I2C pins as alternate function open-drain
  29:Drivers/STM32F4xx_HAL_Driver/Src/stm32f4xx_hal_i2c.c ****         (##) NVIC configuration if you need to use interrupt process
ARM GAS  /tmp/cc3ELaEI.s 			page 2


  30:Drivers/STM32F4xx_HAL_Driver/Src/stm32f4xx_hal_i2c.c ****             (+++) Configure the I2Cx interrupt priority
  31:Drivers/STM32F4xx_HAL_Driver/Src/stm32f4xx_hal_i2c.c ****             (+++) Enable the NVIC I2C IRQ Channel
  32:Drivers/STM32F4xx_HAL_Driver/Src/stm32f4xx_hal_i2c.c ****         (##) DMA Configuration if you need to use DMA process
  33:Drivers/STM32F4xx_HAL_Driver/Src/stm32f4xx_hal_i2c.c ****             (+++) Declare a DMA_HandleTypeDef handle structure for the transmit or receive stream
  34:Drivers/STM32F4xx_HAL_Driver/Src/stm32f4xx_hal_i2c.c ****             (+++) Enable the DMAx interface clock using
  35:Drivers/STM32F4xx_HAL_Driver/Src/stm32f4xx_hal_i2c.c ****             (+++) Configure the DMA handle parameters
  36:Drivers/STM32F4xx_HAL_Driver/Src/stm32f4xx_hal_i2c.c ****             (+++) Configure the DMA Tx or Rx Stream
  37:Drivers/STM32F4xx_HAL_Driver/Src/stm32f4xx_hal_i2c.c ****             (+++) Associate the initialized DMA handle to the hi2c DMA Tx or Rx handle
  38:Drivers/STM32F4xx_HAL_Driver/Src/stm32f4xx_hal_i2c.c ****             (+++) Configure the priority and enable the NVIC for the transfer complete interrupt on
  39:Drivers/STM32F4xx_HAL_Driver/Src/stm32f4xx_hal_i2c.c ****                   the DMA Tx or Rx Stream
  40:Drivers/STM32F4xx_HAL_Driver/Src/stm32f4xx_hal_i2c.c **** 
  41:Drivers/STM32F4xx_HAL_Driver/Src/stm32f4xx_hal_i2c.c ****     (#) Configure the Communication Speed, Duty cycle, Addressing mode, Own Address1,
  42:Drivers/STM32F4xx_HAL_Driver/Src/stm32f4xx_hal_i2c.c ****         Dual Addressing mode, Own Address2, General call and Nostretch mode in the hi2c Init struct
  43:Drivers/STM32F4xx_HAL_Driver/Src/stm32f4xx_hal_i2c.c **** 
  44:Drivers/STM32F4xx_HAL_Driver/Src/stm32f4xx_hal_i2c.c ****     (#) Initialize the I2C registers by calling the HAL_I2C_Init(), configures also the low level H
  45:Drivers/STM32F4xx_HAL_Driver/Src/stm32f4xx_hal_i2c.c ****         (GPIO, CLOCK, NVIC...etc) by calling the customized HAL_I2C_MspInit(&hi2c) API.
  46:Drivers/STM32F4xx_HAL_Driver/Src/stm32f4xx_hal_i2c.c **** 
  47:Drivers/STM32F4xx_HAL_Driver/Src/stm32f4xx_hal_i2c.c ****     (#) To check if target device is ready for communication, use the function HAL_I2C_IsDeviceRead
  48:Drivers/STM32F4xx_HAL_Driver/Src/stm32f4xx_hal_i2c.c **** 
  49:Drivers/STM32F4xx_HAL_Driver/Src/stm32f4xx_hal_i2c.c ****     (#) For I2C IO and IO MEM operations, three operation modes are available within this driver :
  50:Drivers/STM32F4xx_HAL_Driver/Src/stm32f4xx_hal_i2c.c **** 
  51:Drivers/STM32F4xx_HAL_Driver/Src/stm32f4xx_hal_i2c.c ****     *** Polling mode IO operation ***
  52:Drivers/STM32F4xx_HAL_Driver/Src/stm32f4xx_hal_i2c.c ****     =================================
  53:Drivers/STM32F4xx_HAL_Driver/Src/stm32f4xx_hal_i2c.c ****     [..]
  54:Drivers/STM32F4xx_HAL_Driver/Src/stm32f4xx_hal_i2c.c ****       (+) Transmit in master mode an amount of data in blocking mode using HAL_I2C_Master_Transmit(
  55:Drivers/STM32F4xx_HAL_Driver/Src/stm32f4xx_hal_i2c.c ****       (+) Receive in master mode an amount of data in blocking mode using HAL_I2C_Master_Receive()
  56:Drivers/STM32F4xx_HAL_Driver/Src/stm32f4xx_hal_i2c.c ****       (+) Transmit in slave mode an amount of data in blocking mode using HAL_I2C_Slave_Transmit()
  57:Drivers/STM32F4xx_HAL_Driver/Src/stm32f4xx_hal_i2c.c ****       (+) Receive in slave mode an amount of data in blocking mode using HAL_I2C_Slave_Receive()
  58:Drivers/STM32F4xx_HAL_Driver/Src/stm32f4xx_hal_i2c.c **** 
  59:Drivers/STM32F4xx_HAL_Driver/Src/stm32f4xx_hal_i2c.c ****     *** Polling mode IO MEM operation ***
  60:Drivers/STM32F4xx_HAL_Driver/Src/stm32f4xx_hal_i2c.c ****     =====================================
  61:Drivers/STM32F4xx_HAL_Driver/Src/stm32f4xx_hal_i2c.c ****     [..]
  62:Drivers/STM32F4xx_HAL_Driver/Src/stm32f4xx_hal_i2c.c ****       (+) Write an amount of data in blocking mode to a specific memory address using HAL_I2C_Mem_W
  63:Drivers/STM32F4xx_HAL_Driver/Src/stm32f4xx_hal_i2c.c ****       (+) Read an amount of data in blocking mode from a specific memory address using HAL_I2C_Mem_
  64:Drivers/STM32F4xx_HAL_Driver/Src/stm32f4xx_hal_i2c.c **** 
  65:Drivers/STM32F4xx_HAL_Driver/Src/stm32f4xx_hal_i2c.c **** 
  66:Drivers/STM32F4xx_HAL_Driver/Src/stm32f4xx_hal_i2c.c ****     *** Interrupt mode IO operation ***
  67:Drivers/STM32F4xx_HAL_Driver/Src/stm32f4xx_hal_i2c.c ****     ===================================
  68:Drivers/STM32F4xx_HAL_Driver/Src/stm32f4xx_hal_i2c.c ****     [..]
  69:Drivers/STM32F4xx_HAL_Driver/Src/stm32f4xx_hal_i2c.c ****       (+) Transmit in master mode an amount of data in non blocking mode using HAL_I2C_Master_Trans
  70:Drivers/STM32F4xx_HAL_Driver/Src/stm32f4xx_hal_i2c.c ****       (+) At transmission end of transfer HAL_I2C_MasterTxCpltCallback is executed and user can
  71:Drivers/STM32F4xx_HAL_Driver/Src/stm32f4xx_hal_i2c.c ****            add his own code by customization of function pointer HAL_I2C_MasterTxCpltCallback
  72:Drivers/STM32F4xx_HAL_Driver/Src/stm32f4xx_hal_i2c.c ****       (+) Receive in master mode an amount of data in non blocking mode using HAL_I2C_Master_Receiv
  73:Drivers/STM32F4xx_HAL_Driver/Src/stm32f4xx_hal_i2c.c ****       (+) At reception end of transfer HAL_I2C_MasterRxCpltCallback is executed and user can
  74:Drivers/STM32F4xx_HAL_Driver/Src/stm32f4xx_hal_i2c.c ****            add his own code by customization of function pointer HAL_I2C_MasterRxCpltCallback
  75:Drivers/STM32F4xx_HAL_Driver/Src/stm32f4xx_hal_i2c.c ****       (+) Transmit in slave mode an amount of data in non blocking mode using HAL_I2C_Slave_Transmi
  76:Drivers/STM32F4xx_HAL_Driver/Src/stm32f4xx_hal_i2c.c ****       (+) At transmission end of transfer HAL_I2C_SlaveTxCpltCallback is executed and user can
  77:Drivers/STM32F4xx_HAL_Driver/Src/stm32f4xx_hal_i2c.c ****            add his own code by customization of function pointer HAL_I2C_SlaveTxCpltCallback
  78:Drivers/STM32F4xx_HAL_Driver/Src/stm32f4xx_hal_i2c.c ****       (+) Receive in slave mode an amount of data in non blocking mode using HAL_I2C_Slave_Receive_
  79:Drivers/STM32F4xx_HAL_Driver/Src/stm32f4xx_hal_i2c.c ****       (+) At reception end of transfer HAL_I2C_SlaveRxCpltCallback is executed and user can
  80:Drivers/STM32F4xx_HAL_Driver/Src/stm32f4xx_hal_i2c.c ****            add his own code by customization of function pointer HAL_I2C_SlaveRxCpltCallback
  81:Drivers/STM32F4xx_HAL_Driver/Src/stm32f4xx_hal_i2c.c ****       (+) In case of transfer Error, HAL_I2C_ErrorCallback() function is executed and user can
  82:Drivers/STM32F4xx_HAL_Driver/Src/stm32f4xx_hal_i2c.c ****            add his own code by customization of function pointer HAL_I2C_ErrorCallback
  83:Drivers/STM32F4xx_HAL_Driver/Src/stm32f4xx_hal_i2c.c ****       (+) Abort a master I2C process communication with Interrupt using HAL_I2C_Master_Abort_IT()
  84:Drivers/STM32F4xx_HAL_Driver/Src/stm32f4xx_hal_i2c.c ****       (+) End of abort process, HAL_I2C_AbortCpltCallback() is executed and user can
  85:Drivers/STM32F4xx_HAL_Driver/Src/stm32f4xx_hal_i2c.c ****            add his own code by customization of function pointer HAL_I2C_AbortCpltCallback()
  86:Drivers/STM32F4xx_HAL_Driver/Src/stm32f4xx_hal_i2c.c **** 
ARM GAS  /tmp/cc3ELaEI.s 			page 3


  87:Drivers/STM32F4xx_HAL_Driver/Src/stm32f4xx_hal_i2c.c ****     *** Interrupt mode IO sequential operation ***
  88:Drivers/STM32F4xx_HAL_Driver/Src/stm32f4xx_hal_i2c.c ****     ==============================================
  89:Drivers/STM32F4xx_HAL_Driver/Src/stm32f4xx_hal_i2c.c ****     [..]
  90:Drivers/STM32F4xx_HAL_Driver/Src/stm32f4xx_hal_i2c.c ****       (@) These interfaces allow to manage a sequential transfer with a repeated start condition
  91:Drivers/STM32F4xx_HAL_Driver/Src/stm32f4xx_hal_i2c.c ****           when a direction change during transfer
  92:Drivers/STM32F4xx_HAL_Driver/Src/stm32f4xx_hal_i2c.c ****     [..]
  93:Drivers/STM32F4xx_HAL_Driver/Src/stm32f4xx_hal_i2c.c ****       (+) A specific option field manage the different steps of a sequential transfer
  94:Drivers/STM32F4xx_HAL_Driver/Src/stm32f4xx_hal_i2c.c ****       (+) Option field values are defined through @ref I2C_XFEROPTIONS and are listed below:
  95:Drivers/STM32F4xx_HAL_Driver/Src/stm32f4xx_hal_i2c.c ****       (++) I2C_FIRST_AND_LAST_FRAME: No sequential usage, functionnal is same as associated interfa
  96:Drivers/STM32F4xx_HAL_Driver/Src/stm32f4xx_hal_i2c.c ****       (++) I2C_FIRST_FRAME: Sequential usage, this option allow to manage a sequence with start con
  97:Drivers/STM32F4xx_HAL_Driver/Src/stm32f4xx_hal_i2c.c ****                             and data to transfer without a final stop condition
  98:Drivers/STM32F4xx_HAL_Driver/Src/stm32f4xx_hal_i2c.c ****       (++) I2C_NEXT_FRAME: Sequential usage, this option allow to manage a sequence with a restart 
  99:Drivers/STM32F4xx_HAL_Driver/Src/stm32f4xx_hal_i2c.c ****                             and with new data to transfer if the direction change or manage only th
 100:Drivers/STM32F4xx_HAL_Driver/Src/stm32f4xx_hal_i2c.c ****                             if no direction change and without a final stop condition in both cases
 101:Drivers/STM32F4xx_HAL_Driver/Src/stm32f4xx_hal_i2c.c ****       (++) I2C_LAST_FRAME: Sequential usage, this option allow to manage a sequance with a restart 
 102:Drivers/STM32F4xx_HAL_Driver/Src/stm32f4xx_hal_i2c.c ****                             and with new data to transfer if the direction change or manage only th
 103:Drivers/STM32F4xx_HAL_Driver/Src/stm32f4xx_hal_i2c.c ****                             if no direction change and with a final stop condition in both cases
 104:Drivers/STM32F4xx_HAL_Driver/Src/stm32f4xx_hal_i2c.c **** 
 105:Drivers/STM32F4xx_HAL_Driver/Src/stm32f4xx_hal_i2c.c ****       (+) Differents sequential I2C interfaces are listed below:
 106:Drivers/STM32F4xx_HAL_Driver/Src/stm32f4xx_hal_i2c.c ****       (++) Sequential transmit in master I2C mode an amount of data in non-blocking mode using HAL_
 107:Drivers/STM32F4xx_HAL_Driver/Src/stm32f4xx_hal_i2c.c ****       (+++) At transmission end of current frame transfer, HAL_I2C_MasterTxCpltCallback() is execut
 108:Drivers/STM32F4xx_HAL_Driver/Src/stm32f4xx_hal_i2c.c ****            add his own code by customization of function pointer HAL_I2C_MasterTxCpltCallback()
 109:Drivers/STM32F4xx_HAL_Driver/Src/stm32f4xx_hal_i2c.c ****       (++) Sequential receive in master I2C mode an amount of data in non-blocking mode using HAL_I
 110:Drivers/STM32F4xx_HAL_Driver/Src/stm32f4xx_hal_i2c.c ****       (+++) At reception end of current frame transfer, HAL_I2C_MasterRxCpltCallback() is executed 
 111:Drivers/STM32F4xx_HAL_Driver/Src/stm32f4xx_hal_i2c.c ****            add his own code by customization of function pointer HAL_I2C_MasterRxCpltCallback()
 112:Drivers/STM32F4xx_HAL_Driver/Src/stm32f4xx_hal_i2c.c ****       (++) Abort a master I2C process communication with Interrupt using HAL_I2C_Master_Abort_IT()
 113:Drivers/STM32F4xx_HAL_Driver/Src/stm32f4xx_hal_i2c.c ****       (+++) End of abort process, HAL_I2C_AbortCpltCallback() is executed and user can
 114:Drivers/STM32F4xx_HAL_Driver/Src/stm32f4xx_hal_i2c.c ****            add his own code by customization of function pointer HAL_I2C_AbortCpltCallback()
 115:Drivers/STM32F4xx_HAL_Driver/Src/stm32f4xx_hal_i2c.c ****       (++) Enable/disable the Address listen mode in slave I2C mode using HAL_I2C_EnableListen_IT()
 116:Drivers/STM32F4xx_HAL_Driver/Src/stm32f4xx_hal_i2c.c ****       (+++) When address slave I2C match, HAL_I2C_AddrCallback() is executed and user can
 117:Drivers/STM32F4xx_HAL_Driver/Src/stm32f4xx_hal_i2c.c ****            add his own code to check the Address Match Code and the transmission direction request 
 118:Drivers/STM32F4xx_HAL_Driver/Src/stm32f4xx_hal_i2c.c ****       (+++) At Listen mode end HAL_I2C_ListenCpltCallback() is executed and user can
 119:Drivers/STM32F4xx_HAL_Driver/Src/stm32f4xx_hal_i2c.c ****            add his own code by customization of function pointer HAL_I2C_ListenCpltCallback()
 120:Drivers/STM32F4xx_HAL_Driver/Src/stm32f4xx_hal_i2c.c ****       (++) Sequential transmit in slave I2C mode an amount of data in non-blocking mode using HAL_I
 121:Drivers/STM32F4xx_HAL_Driver/Src/stm32f4xx_hal_i2c.c ****       (+++) At transmission end of current frame transfer, HAL_I2C_SlaveTxCpltCallback() is execute
 122:Drivers/STM32F4xx_HAL_Driver/Src/stm32f4xx_hal_i2c.c ****            add his own code by customization of function pointer HAL_I2C_SlaveTxCpltCallback()
 123:Drivers/STM32F4xx_HAL_Driver/Src/stm32f4xx_hal_i2c.c ****       (++) Sequential receive in slave I2C mode an amount of data in non-blocking mode using HAL_I2
 124:Drivers/STM32F4xx_HAL_Driver/Src/stm32f4xx_hal_i2c.c ****       (+++) At reception end of current frame transfer, HAL_I2C_SlaveRxCpltCallback() is executed a
 125:Drivers/STM32F4xx_HAL_Driver/Src/stm32f4xx_hal_i2c.c ****            add his own code by customization of function pointer HAL_I2C_SlaveRxCpltCallback()
 126:Drivers/STM32F4xx_HAL_Driver/Src/stm32f4xx_hal_i2c.c ****       (++) In case of transfer Error, HAL_I2C_ErrorCallback() function is executed and user can
 127:Drivers/STM32F4xx_HAL_Driver/Src/stm32f4xx_hal_i2c.c ****            add his own code by customization of function pointer HAL_I2C_ErrorCallback()
 128:Drivers/STM32F4xx_HAL_Driver/Src/stm32f4xx_hal_i2c.c ****       (++) Abort a master I2C process communication with Interrupt using HAL_I2C_Master_Abort_IT()
 129:Drivers/STM32F4xx_HAL_Driver/Src/stm32f4xx_hal_i2c.c ****       (++) End of abort process, HAL_I2C_AbortCpltCallback() is executed and user can
 130:Drivers/STM32F4xx_HAL_Driver/Src/stm32f4xx_hal_i2c.c ****            add his own code by customization of function pointer HAL_I2C_AbortCpltCallback()
 131:Drivers/STM32F4xx_HAL_Driver/Src/stm32f4xx_hal_i2c.c **** 
 132:Drivers/STM32F4xx_HAL_Driver/Src/stm32f4xx_hal_i2c.c ****     *** Interrupt mode IO MEM operation ***
 133:Drivers/STM32F4xx_HAL_Driver/Src/stm32f4xx_hal_i2c.c ****     =======================================
 134:Drivers/STM32F4xx_HAL_Driver/Src/stm32f4xx_hal_i2c.c ****     [..]
 135:Drivers/STM32F4xx_HAL_Driver/Src/stm32f4xx_hal_i2c.c ****       (+) Write an amount of data in no-blocking mode with Interrupt to a specific memory address u
 136:Drivers/STM32F4xx_HAL_Driver/Src/stm32f4xx_hal_i2c.c ****           HAL_I2C_Mem_Write_IT()
 137:Drivers/STM32F4xx_HAL_Driver/Src/stm32f4xx_hal_i2c.c ****       (+) At MEM end of write transfer HAL_I2C_MemTxCpltCallback is executed and user can
 138:Drivers/STM32F4xx_HAL_Driver/Src/stm32f4xx_hal_i2c.c ****            add his own code by customization of function pointer HAL_I2C_MemTxCpltCallback
 139:Drivers/STM32F4xx_HAL_Driver/Src/stm32f4xx_hal_i2c.c ****       (+) Read an amount of data in no-blocking mode with Interrupt from a specific memory address 
 140:Drivers/STM32F4xx_HAL_Driver/Src/stm32f4xx_hal_i2c.c ****           HAL_I2C_Mem_Read_IT()
 141:Drivers/STM32F4xx_HAL_Driver/Src/stm32f4xx_hal_i2c.c ****       (+) At MEM end of read transfer HAL_I2C_MemRxCpltCallback is executed and user can
 142:Drivers/STM32F4xx_HAL_Driver/Src/stm32f4xx_hal_i2c.c ****            add his own code by customization of function pointer HAL_I2C_MemRxCpltCallback
 143:Drivers/STM32F4xx_HAL_Driver/Src/stm32f4xx_hal_i2c.c ****       (+) In case of transfer Error, HAL_I2C_ErrorCallback() function is executed and user can
ARM GAS  /tmp/cc3ELaEI.s 			page 4


 144:Drivers/STM32F4xx_HAL_Driver/Src/stm32f4xx_hal_i2c.c ****            add his own code by customization of function pointer HAL_I2C_ErrorCallback
 145:Drivers/STM32F4xx_HAL_Driver/Src/stm32f4xx_hal_i2c.c **** 
 146:Drivers/STM32F4xx_HAL_Driver/Src/stm32f4xx_hal_i2c.c ****     *** DMA mode IO operation ***
 147:Drivers/STM32F4xx_HAL_Driver/Src/stm32f4xx_hal_i2c.c ****     ==============================
 148:Drivers/STM32F4xx_HAL_Driver/Src/stm32f4xx_hal_i2c.c ****     [..]
 149:Drivers/STM32F4xx_HAL_Driver/Src/stm32f4xx_hal_i2c.c ****       (+) Transmit in master mode an amount of data in non blocking mode (DMA) using
 150:Drivers/STM32F4xx_HAL_Driver/Src/stm32f4xx_hal_i2c.c ****           HAL_I2C_Master_Transmit_DMA()
 151:Drivers/STM32F4xx_HAL_Driver/Src/stm32f4xx_hal_i2c.c ****       (+) At transmission end of transfer HAL_I2C_MasterTxCpltCallback is executed and user can
 152:Drivers/STM32F4xx_HAL_Driver/Src/stm32f4xx_hal_i2c.c ****            add his own code by customization of function pointer HAL_I2C_MasterTxCpltCallback
 153:Drivers/STM32F4xx_HAL_Driver/Src/stm32f4xx_hal_i2c.c ****       (+) Receive in master mode an amount of data in non blocking mode (DMA) using
 154:Drivers/STM32F4xx_HAL_Driver/Src/stm32f4xx_hal_i2c.c ****           HAL_I2C_Master_Receive_DMA()
 155:Drivers/STM32F4xx_HAL_Driver/Src/stm32f4xx_hal_i2c.c ****       (+) At reception end of transfer HAL_I2C_MasterRxCpltCallback is executed and user can
 156:Drivers/STM32F4xx_HAL_Driver/Src/stm32f4xx_hal_i2c.c ****            add his own code by customization of function pointer HAL_I2C_MasterRxCpltCallback
 157:Drivers/STM32F4xx_HAL_Driver/Src/stm32f4xx_hal_i2c.c ****       (+) Transmit in slave mode an amount of data in non blocking mode (DMA) using
 158:Drivers/STM32F4xx_HAL_Driver/Src/stm32f4xx_hal_i2c.c ****           HAL_I2C_Slave_Transmit_DMA()
 159:Drivers/STM32F4xx_HAL_Driver/Src/stm32f4xx_hal_i2c.c ****       (+) At transmission end of transfer HAL_I2C_SlaveTxCpltCallback is executed and user can
 160:Drivers/STM32F4xx_HAL_Driver/Src/stm32f4xx_hal_i2c.c ****            add his own code by customization of function pointer HAL_I2C_SlaveTxCpltCallback
 161:Drivers/STM32F4xx_HAL_Driver/Src/stm32f4xx_hal_i2c.c ****       (+) Receive in slave mode an amount of data in non blocking mode (DMA) using
 162:Drivers/STM32F4xx_HAL_Driver/Src/stm32f4xx_hal_i2c.c ****           HAL_I2C_Slave_Receive_DMA()
 163:Drivers/STM32F4xx_HAL_Driver/Src/stm32f4xx_hal_i2c.c ****       (+) At reception end of transfer HAL_I2C_SlaveRxCpltCallback is executed and user can
 164:Drivers/STM32F4xx_HAL_Driver/Src/stm32f4xx_hal_i2c.c ****            add his own code by customization of function pointer HAL_I2C_SlaveRxCpltCallback
 165:Drivers/STM32F4xx_HAL_Driver/Src/stm32f4xx_hal_i2c.c ****       (+) In case of transfer Error, HAL_I2C_ErrorCallback() function is executed and user can
 166:Drivers/STM32F4xx_HAL_Driver/Src/stm32f4xx_hal_i2c.c ****            add his own code by customization of function pointer HAL_I2C_ErrorCallback
 167:Drivers/STM32F4xx_HAL_Driver/Src/stm32f4xx_hal_i2c.c ****       (+) Abort a master I2C process communication with Interrupt using HAL_I2C_Master_Abort_IT()
 168:Drivers/STM32F4xx_HAL_Driver/Src/stm32f4xx_hal_i2c.c ****       (+) End of abort process, HAL_I2C_AbortCpltCallback() is executed and user can
 169:Drivers/STM32F4xx_HAL_Driver/Src/stm32f4xx_hal_i2c.c ****            add his own code by customization of function pointer HAL_I2C_AbortCpltCallback()
 170:Drivers/STM32F4xx_HAL_Driver/Src/stm32f4xx_hal_i2c.c **** 
 171:Drivers/STM32F4xx_HAL_Driver/Src/stm32f4xx_hal_i2c.c ****     *** DMA mode IO MEM operation ***
 172:Drivers/STM32F4xx_HAL_Driver/Src/stm32f4xx_hal_i2c.c ****     =================================
 173:Drivers/STM32F4xx_HAL_Driver/Src/stm32f4xx_hal_i2c.c ****     [..]
 174:Drivers/STM32F4xx_HAL_Driver/Src/stm32f4xx_hal_i2c.c ****       (+) Write an amount of data in no-blocking mode with DMA to a specific memory address using
 175:Drivers/STM32F4xx_HAL_Driver/Src/stm32f4xx_hal_i2c.c ****           HAL_I2C_Mem_Write_DMA()
 176:Drivers/STM32F4xx_HAL_Driver/Src/stm32f4xx_hal_i2c.c ****       (+) At MEM end of write transfer HAL_I2C_MemTxCpltCallback is executed and user can
 177:Drivers/STM32F4xx_HAL_Driver/Src/stm32f4xx_hal_i2c.c ****            add his own code by customization of function pointer HAL_I2C_MemTxCpltCallback
 178:Drivers/STM32F4xx_HAL_Driver/Src/stm32f4xx_hal_i2c.c ****       (+) Read an amount of data in no-blocking mode with DMA from a specific memory address using
 179:Drivers/STM32F4xx_HAL_Driver/Src/stm32f4xx_hal_i2c.c ****           HAL_I2C_Mem_Read_DMA()
 180:Drivers/STM32F4xx_HAL_Driver/Src/stm32f4xx_hal_i2c.c ****       (+) At MEM end of read transfer HAL_I2C_MemRxCpltCallback is executed and user can
 181:Drivers/STM32F4xx_HAL_Driver/Src/stm32f4xx_hal_i2c.c ****            add his own code by customization of function pointer HAL_I2C_MemRxCpltCallback
 182:Drivers/STM32F4xx_HAL_Driver/Src/stm32f4xx_hal_i2c.c ****       (+) In case of transfer Error, HAL_I2C_ErrorCallback() function is executed and user can
 183:Drivers/STM32F4xx_HAL_Driver/Src/stm32f4xx_hal_i2c.c ****            add his own code by customization of function pointer HAL_I2C_ErrorCallback
 184:Drivers/STM32F4xx_HAL_Driver/Src/stm32f4xx_hal_i2c.c **** 
 185:Drivers/STM32F4xx_HAL_Driver/Src/stm32f4xx_hal_i2c.c **** 
 186:Drivers/STM32F4xx_HAL_Driver/Src/stm32f4xx_hal_i2c.c ****      *** I2C HAL driver macros list ***
 187:Drivers/STM32F4xx_HAL_Driver/Src/stm32f4xx_hal_i2c.c ****      ==================================
 188:Drivers/STM32F4xx_HAL_Driver/Src/stm32f4xx_hal_i2c.c ****      [..]
 189:Drivers/STM32F4xx_HAL_Driver/Src/stm32f4xx_hal_i2c.c ****        Below the list of most used macros in I2C HAL driver.
 190:Drivers/STM32F4xx_HAL_Driver/Src/stm32f4xx_hal_i2c.c **** 
 191:Drivers/STM32F4xx_HAL_Driver/Src/stm32f4xx_hal_i2c.c ****       (+) __HAL_I2C_ENABLE: Enable the I2C peripheral
 192:Drivers/STM32F4xx_HAL_Driver/Src/stm32f4xx_hal_i2c.c ****       (+) __HAL_I2C_DISABLE: Disable the I2C peripheral
 193:Drivers/STM32F4xx_HAL_Driver/Src/stm32f4xx_hal_i2c.c ****       (+) __HAL_I2C_GET_FLAG : Checks whether the specified I2C flag is set or not
 194:Drivers/STM32F4xx_HAL_Driver/Src/stm32f4xx_hal_i2c.c ****       (+) __HAL_I2C_CLEAR_FLAG : Clear the specified I2C pending flag
 195:Drivers/STM32F4xx_HAL_Driver/Src/stm32f4xx_hal_i2c.c ****       (+) __HAL_I2C_ENABLE_IT: Enable the specified I2C interrupt
 196:Drivers/STM32F4xx_HAL_Driver/Src/stm32f4xx_hal_i2c.c ****       (+) __HAL_I2C_DISABLE_IT: Disable the specified I2C interrupt
 197:Drivers/STM32F4xx_HAL_Driver/Src/stm32f4xx_hal_i2c.c **** 
 198:Drivers/STM32F4xx_HAL_Driver/Src/stm32f4xx_hal_i2c.c ****      [..]
 199:Drivers/STM32F4xx_HAL_Driver/Src/stm32f4xx_hal_i2c.c ****        (@) You can refer to the I2C HAL driver header file for more useful macros
 200:Drivers/STM32F4xx_HAL_Driver/Src/stm32f4xx_hal_i2c.c **** 
ARM GAS  /tmp/cc3ELaEI.s 			page 5


 201:Drivers/STM32F4xx_HAL_Driver/Src/stm32f4xx_hal_i2c.c **** 
 202:Drivers/STM32F4xx_HAL_Driver/Src/stm32f4xx_hal_i2c.c ****   @endverbatim
 203:Drivers/STM32F4xx_HAL_Driver/Src/stm32f4xx_hal_i2c.c ****   ******************************************************************************
 204:Drivers/STM32F4xx_HAL_Driver/Src/stm32f4xx_hal_i2c.c ****   * @attention
 205:Drivers/STM32F4xx_HAL_Driver/Src/stm32f4xx_hal_i2c.c ****   *
 206:Drivers/STM32F4xx_HAL_Driver/Src/stm32f4xx_hal_i2c.c ****   * <h2><center>&copy; COPYRIGHT(c) 2016 STMicroelectronics</center></h2>
 207:Drivers/STM32F4xx_HAL_Driver/Src/stm32f4xx_hal_i2c.c ****   *
 208:Drivers/STM32F4xx_HAL_Driver/Src/stm32f4xx_hal_i2c.c ****   * Redistribution and use in source and binary forms, with or without modification,
 209:Drivers/STM32F4xx_HAL_Driver/Src/stm32f4xx_hal_i2c.c ****   * are permitted provided that the following conditions are met:
 210:Drivers/STM32F4xx_HAL_Driver/Src/stm32f4xx_hal_i2c.c ****   *   1. Redistributions of source code must retain the above copyright notice,
 211:Drivers/STM32F4xx_HAL_Driver/Src/stm32f4xx_hal_i2c.c ****   *      this list of conditions and the following disclaimer.
 212:Drivers/STM32F4xx_HAL_Driver/Src/stm32f4xx_hal_i2c.c ****   *   2. Redistributions in binary form must reproduce the above copyright notice,
 213:Drivers/STM32F4xx_HAL_Driver/Src/stm32f4xx_hal_i2c.c ****   *      this list of conditions and the following disclaimer in the documentation
 214:Drivers/STM32F4xx_HAL_Driver/Src/stm32f4xx_hal_i2c.c ****   *      and/or other materials provided with the distribution.
 215:Drivers/STM32F4xx_HAL_Driver/Src/stm32f4xx_hal_i2c.c ****   *   3. Neither the name of STMicroelectronics nor the names of its contributors
 216:Drivers/STM32F4xx_HAL_Driver/Src/stm32f4xx_hal_i2c.c ****   *      may be used to endorse or promote products derived from this software
 217:Drivers/STM32F4xx_HAL_Driver/Src/stm32f4xx_hal_i2c.c ****   *      without specific prior written permission.
 218:Drivers/STM32F4xx_HAL_Driver/Src/stm32f4xx_hal_i2c.c ****   *
 219:Drivers/STM32F4xx_HAL_Driver/Src/stm32f4xx_hal_i2c.c ****   * THIS SOFTWARE IS PROVIDED BY THE COPYRIGHT HOLDERS AND CONTRIBUTORS "AS IS"
 220:Drivers/STM32F4xx_HAL_Driver/Src/stm32f4xx_hal_i2c.c ****   * AND ANY EXPRESS OR IMPLIED WARRANTIES, INCLUDING, BUT NOT LIMITED TO, THE
 221:Drivers/STM32F4xx_HAL_Driver/Src/stm32f4xx_hal_i2c.c ****   * IMPLIED WARRANTIES OF MERCHANTABILITY AND FITNESS FOR A PARTICULAR PURPOSE ARE
 222:Drivers/STM32F4xx_HAL_Driver/Src/stm32f4xx_hal_i2c.c ****   * DISCLAIMED. IN NO EVENT SHALL THE COPYRIGHT HOLDER OR CONTRIBUTORS BE LIABLE
 223:Drivers/STM32F4xx_HAL_Driver/Src/stm32f4xx_hal_i2c.c ****   * FOR ANY DIRECT, INDIRECT, INCIDENTAL, SPECIAL, EXEMPLARY, OR CONSEQUENTIAL
 224:Drivers/STM32F4xx_HAL_Driver/Src/stm32f4xx_hal_i2c.c ****   * DAMAGES (INCLUDING, BUT NOT LIMITED TO, PROCUREMENT OF SUBSTITUTE GOODS OR
 225:Drivers/STM32F4xx_HAL_Driver/Src/stm32f4xx_hal_i2c.c ****   * SERVICES; LOSS OF USE, DATA, OR PROFITS; OR BUSINESS INTERRUPTION) HOWEVER
 226:Drivers/STM32F4xx_HAL_Driver/Src/stm32f4xx_hal_i2c.c ****   * CAUSED AND ON ANY THEORY OF LIABILITY, WHETHER IN CONTRACT, STRICT LIABILITY,
 227:Drivers/STM32F4xx_HAL_Driver/Src/stm32f4xx_hal_i2c.c ****   * OR TORT (INCLUDING NEGLIGENCE OR OTHERWISE) ARISING IN ANY WAY OUT OF THE USE
 228:Drivers/STM32F4xx_HAL_Driver/Src/stm32f4xx_hal_i2c.c ****   * OF THIS SOFTWARE, EVEN IF ADVISED OF THE POSSIBILITY OF SUCH DAMAGE.
 229:Drivers/STM32F4xx_HAL_Driver/Src/stm32f4xx_hal_i2c.c ****   *
 230:Drivers/STM32F4xx_HAL_Driver/Src/stm32f4xx_hal_i2c.c ****   ******************************************************************************
 231:Drivers/STM32F4xx_HAL_Driver/Src/stm32f4xx_hal_i2c.c ****   */
 232:Drivers/STM32F4xx_HAL_Driver/Src/stm32f4xx_hal_i2c.c **** 
 233:Drivers/STM32F4xx_HAL_Driver/Src/stm32f4xx_hal_i2c.c **** /* Includes ------------------------------------------------------------------*/
 234:Drivers/STM32F4xx_HAL_Driver/Src/stm32f4xx_hal_i2c.c **** #include "stm32f4xx_hal.h"
 235:Drivers/STM32F4xx_HAL_Driver/Src/stm32f4xx_hal_i2c.c **** 
 236:Drivers/STM32F4xx_HAL_Driver/Src/stm32f4xx_hal_i2c.c **** /** @addtogroup STM32F4xx_HAL_Driver
 237:Drivers/STM32F4xx_HAL_Driver/Src/stm32f4xx_hal_i2c.c ****   * @{
 238:Drivers/STM32F4xx_HAL_Driver/Src/stm32f4xx_hal_i2c.c ****   */
 239:Drivers/STM32F4xx_HAL_Driver/Src/stm32f4xx_hal_i2c.c **** 
 240:Drivers/STM32F4xx_HAL_Driver/Src/stm32f4xx_hal_i2c.c **** /** @defgroup I2C I2C
 241:Drivers/STM32F4xx_HAL_Driver/Src/stm32f4xx_hal_i2c.c ****   * @brief I2C HAL module driver
 242:Drivers/STM32F4xx_HAL_Driver/Src/stm32f4xx_hal_i2c.c ****   * @{
 243:Drivers/STM32F4xx_HAL_Driver/Src/stm32f4xx_hal_i2c.c ****   */
 244:Drivers/STM32F4xx_HAL_Driver/Src/stm32f4xx_hal_i2c.c **** 
 245:Drivers/STM32F4xx_HAL_Driver/Src/stm32f4xx_hal_i2c.c **** #ifdef HAL_I2C_MODULE_ENABLED
 246:Drivers/STM32F4xx_HAL_Driver/Src/stm32f4xx_hal_i2c.c **** 
 247:Drivers/STM32F4xx_HAL_Driver/Src/stm32f4xx_hal_i2c.c **** /* Private typedef -----------------------------------------------------------*/
 248:Drivers/STM32F4xx_HAL_Driver/Src/stm32f4xx_hal_i2c.c **** /* Private define ------------------------------------------------------------*/
 249:Drivers/STM32F4xx_HAL_Driver/Src/stm32f4xx_hal_i2c.c **** /** @addtogroup I2C_Private_Define
 250:Drivers/STM32F4xx_HAL_Driver/Src/stm32f4xx_hal_i2c.c ****   * @{
 251:Drivers/STM32F4xx_HAL_Driver/Src/stm32f4xx_hal_i2c.c ****   */    
 252:Drivers/STM32F4xx_HAL_Driver/Src/stm32f4xx_hal_i2c.c **** #define I2C_TIMEOUT_FLAG          ((uint32_t)35U)         /*!< Timeout 35 ms             */
 253:Drivers/STM32F4xx_HAL_Driver/Src/stm32f4xx_hal_i2c.c **** #define I2C_TIMEOUT_BUSY_FLAG     ((uint32_t)25U)         /*!< Timeout 25 ms             */
 254:Drivers/STM32F4xx_HAL_Driver/Src/stm32f4xx_hal_i2c.c **** #define I2C_NO_OPTION_FRAME       ((uint32_t)0xFFFF0000U) /*!< XferOptions default value */
 255:Drivers/STM32F4xx_HAL_Driver/Src/stm32f4xx_hal_i2c.c **** 
 256:Drivers/STM32F4xx_HAL_Driver/Src/stm32f4xx_hal_i2c.c **** /* Private define for @ref PreviousState usage */
 257:Drivers/STM32F4xx_HAL_Driver/Src/stm32f4xx_hal_i2c.c **** #define I2C_STATE_MSK             ((uint32_t)((HAL_I2C_STATE_BUSY_TX | HAL_I2C_STATE_BUSY_RX) & (~(
ARM GAS  /tmp/cc3ELaEI.s 			page 6


 258:Drivers/STM32F4xx_HAL_Driver/Src/stm32f4xx_hal_i2c.c **** #define I2C_STATE_NONE            ((uint32_t)(HAL_I2C_MODE_NONE))                                  
 259:Drivers/STM32F4xx_HAL_Driver/Src/stm32f4xx_hal_i2c.c **** #define I2C_STATE_MASTER_BUSY_TX  ((uint32_t)((HAL_I2C_STATE_BUSY_TX & I2C_STATE_MSK) | HAL_I2C_MOD
 260:Drivers/STM32F4xx_HAL_Driver/Src/stm32f4xx_hal_i2c.c **** #define I2C_STATE_MASTER_BUSY_RX  ((uint32_t)((HAL_I2C_STATE_BUSY_RX & I2C_STATE_MSK) | HAL_I2C_MOD
 261:Drivers/STM32F4xx_HAL_Driver/Src/stm32f4xx_hal_i2c.c **** #define I2C_STATE_SLAVE_BUSY_TX   ((uint32_t)((HAL_I2C_STATE_BUSY_TX & I2C_STATE_MSK) | HAL_I2C_MOD
 262:Drivers/STM32F4xx_HAL_Driver/Src/stm32f4xx_hal_i2c.c **** #define I2C_STATE_SLAVE_BUSY_RX   ((uint32_t)((HAL_I2C_STATE_BUSY_RX & I2C_STATE_MSK) | HAL_I2C_MOD
 263:Drivers/STM32F4xx_HAL_Driver/Src/stm32f4xx_hal_i2c.c **** 
 264:Drivers/STM32F4xx_HAL_Driver/Src/stm32f4xx_hal_i2c.c **** /**
 265:Drivers/STM32F4xx_HAL_Driver/Src/stm32f4xx_hal_i2c.c ****   * @}
 266:Drivers/STM32F4xx_HAL_Driver/Src/stm32f4xx_hal_i2c.c ****   */
 267:Drivers/STM32F4xx_HAL_Driver/Src/stm32f4xx_hal_i2c.c **** 
 268:Drivers/STM32F4xx_HAL_Driver/Src/stm32f4xx_hal_i2c.c **** /* Private macro -------------------------------------------------------------*/
 269:Drivers/STM32F4xx_HAL_Driver/Src/stm32f4xx_hal_i2c.c **** /* Private variables ---------------------------------------------------------*/
 270:Drivers/STM32F4xx_HAL_Driver/Src/stm32f4xx_hal_i2c.c **** /* Private function prototypes -----------------------------------------------*/
 271:Drivers/STM32F4xx_HAL_Driver/Src/stm32f4xx_hal_i2c.c **** /** @addtogroup I2C_Private_Functions
 272:Drivers/STM32F4xx_HAL_Driver/Src/stm32f4xx_hal_i2c.c ****   * @{
 273:Drivers/STM32F4xx_HAL_Driver/Src/stm32f4xx_hal_i2c.c ****   */
 274:Drivers/STM32F4xx_HAL_Driver/Src/stm32f4xx_hal_i2c.c **** /* Private functions to handle DMA transfer */
 275:Drivers/STM32F4xx_HAL_Driver/Src/stm32f4xx_hal_i2c.c **** static void I2C_DMAXferCplt(DMA_HandleTypeDef *hdma);
 276:Drivers/STM32F4xx_HAL_Driver/Src/stm32f4xx_hal_i2c.c **** static void I2C_DMAError(DMA_HandleTypeDef *hdma);
 277:Drivers/STM32F4xx_HAL_Driver/Src/stm32f4xx_hal_i2c.c **** static void I2C_DMAAbort(DMA_HandleTypeDef *hdma);
 278:Drivers/STM32F4xx_HAL_Driver/Src/stm32f4xx_hal_i2c.c **** 
 279:Drivers/STM32F4xx_HAL_Driver/Src/stm32f4xx_hal_i2c.c **** static void I2C_ITError(I2C_HandleTypeDef *hi2c);
 280:Drivers/STM32F4xx_HAL_Driver/Src/stm32f4xx_hal_i2c.c **** 
 281:Drivers/STM32F4xx_HAL_Driver/Src/stm32f4xx_hal_i2c.c **** static HAL_StatusTypeDef I2C_MasterRequestWrite(I2C_HandleTypeDef *hi2c, uint16_t DevAddress, uint3
 282:Drivers/STM32F4xx_HAL_Driver/Src/stm32f4xx_hal_i2c.c **** static HAL_StatusTypeDef I2C_MasterRequestRead(I2C_HandleTypeDef *hi2c, uint16_t DevAddress, uint32
 283:Drivers/STM32F4xx_HAL_Driver/Src/stm32f4xx_hal_i2c.c **** static HAL_StatusTypeDef I2C_RequestMemoryWrite(I2C_HandleTypeDef *hi2c, uint16_t DevAddress, uint1
 284:Drivers/STM32F4xx_HAL_Driver/Src/stm32f4xx_hal_i2c.c **** static HAL_StatusTypeDef I2C_RequestMemoryRead(I2C_HandleTypeDef *hi2c, uint16_t DevAddress, uint16
 285:Drivers/STM32F4xx_HAL_Driver/Src/stm32f4xx_hal_i2c.c **** static HAL_StatusTypeDef I2C_WaitOnFlagUntilTimeout(I2C_HandleTypeDef *hi2c, uint32_t Flag, FlagSta
 286:Drivers/STM32F4xx_HAL_Driver/Src/stm32f4xx_hal_i2c.c **** static HAL_StatusTypeDef I2C_WaitOnMasterAddressFlagUntilTimeout(I2C_HandleTypeDef *hi2c, uint32_t 
 287:Drivers/STM32F4xx_HAL_Driver/Src/stm32f4xx_hal_i2c.c **** static HAL_StatusTypeDef I2C_WaitOnTXEFlagUntilTimeout(I2C_HandleTypeDef *hi2c, uint32_t Timeout, u
 288:Drivers/STM32F4xx_HAL_Driver/Src/stm32f4xx_hal_i2c.c **** static HAL_StatusTypeDef I2C_WaitOnBTFFlagUntilTimeout(I2C_HandleTypeDef *hi2c, uint32_t Timeout, u
 289:Drivers/STM32F4xx_HAL_Driver/Src/stm32f4xx_hal_i2c.c **** static HAL_StatusTypeDef I2C_WaitOnRXNEFlagUntilTimeout(I2C_HandleTypeDef *hi2c, uint32_t Timeout, 
 290:Drivers/STM32F4xx_HAL_Driver/Src/stm32f4xx_hal_i2c.c **** static HAL_StatusTypeDef I2C_WaitOnSTOPFlagUntilTimeout(I2C_HandleTypeDef *hi2c, uint32_t Timeout, 
 291:Drivers/STM32F4xx_HAL_Driver/Src/stm32f4xx_hal_i2c.c **** static HAL_StatusTypeDef I2C_IsAcknowledgeFailed(I2C_HandleTypeDef *hi2c);
 292:Drivers/STM32F4xx_HAL_Driver/Src/stm32f4xx_hal_i2c.c **** 
 293:Drivers/STM32F4xx_HAL_Driver/Src/stm32f4xx_hal_i2c.c **** /* Private functions for I2C transfer IRQ handler */
 294:Drivers/STM32F4xx_HAL_Driver/Src/stm32f4xx_hal_i2c.c **** static HAL_StatusTypeDef I2C_MasterTransmit_TXE(I2C_HandleTypeDef *hi2c);
 295:Drivers/STM32F4xx_HAL_Driver/Src/stm32f4xx_hal_i2c.c **** static HAL_StatusTypeDef I2C_MasterTransmit_BTF(I2C_HandleTypeDef *hi2c);
 296:Drivers/STM32F4xx_HAL_Driver/Src/stm32f4xx_hal_i2c.c **** static HAL_StatusTypeDef I2C_MasterReceive_RXNE(I2C_HandleTypeDef *hi2c);
 297:Drivers/STM32F4xx_HAL_Driver/Src/stm32f4xx_hal_i2c.c **** static HAL_StatusTypeDef I2C_MasterReceive_BTF(I2C_HandleTypeDef *hi2c);
 298:Drivers/STM32F4xx_HAL_Driver/Src/stm32f4xx_hal_i2c.c **** static HAL_StatusTypeDef I2C_Master_SB(I2C_HandleTypeDef *hi2c);
 299:Drivers/STM32F4xx_HAL_Driver/Src/stm32f4xx_hal_i2c.c **** static HAL_StatusTypeDef I2C_Master_ADD10(I2C_HandleTypeDef *hi2c);
 300:Drivers/STM32F4xx_HAL_Driver/Src/stm32f4xx_hal_i2c.c **** static HAL_StatusTypeDef I2C_Master_ADDR(I2C_HandleTypeDef *hi2c);
 301:Drivers/STM32F4xx_HAL_Driver/Src/stm32f4xx_hal_i2c.c **** 
 302:Drivers/STM32F4xx_HAL_Driver/Src/stm32f4xx_hal_i2c.c **** static HAL_StatusTypeDef I2C_SlaveTransmit_TXE(I2C_HandleTypeDef *hi2c);
 303:Drivers/STM32F4xx_HAL_Driver/Src/stm32f4xx_hal_i2c.c **** static HAL_StatusTypeDef I2C_SlaveTransmit_BTF(I2C_HandleTypeDef *hi2c);
 304:Drivers/STM32F4xx_HAL_Driver/Src/stm32f4xx_hal_i2c.c **** static HAL_StatusTypeDef I2C_SlaveReceive_RXNE(I2C_HandleTypeDef *hi2c);
 305:Drivers/STM32F4xx_HAL_Driver/Src/stm32f4xx_hal_i2c.c **** static HAL_StatusTypeDef I2C_SlaveReceive_BTF(I2C_HandleTypeDef *hi2c);
 306:Drivers/STM32F4xx_HAL_Driver/Src/stm32f4xx_hal_i2c.c **** static HAL_StatusTypeDef I2C_Slave_ADDR(I2C_HandleTypeDef *hi2c);
 307:Drivers/STM32F4xx_HAL_Driver/Src/stm32f4xx_hal_i2c.c **** static HAL_StatusTypeDef I2C_Slave_STOPF(I2C_HandleTypeDef *hi2c);
 308:Drivers/STM32F4xx_HAL_Driver/Src/stm32f4xx_hal_i2c.c **** static HAL_StatusTypeDef I2C_Slave_AF(I2C_HandleTypeDef *hi2c);
 309:Drivers/STM32F4xx_HAL_Driver/Src/stm32f4xx_hal_i2c.c **** /**
 310:Drivers/STM32F4xx_HAL_Driver/Src/stm32f4xx_hal_i2c.c ****   * @}
 311:Drivers/STM32F4xx_HAL_Driver/Src/stm32f4xx_hal_i2c.c ****   */
 312:Drivers/STM32F4xx_HAL_Driver/Src/stm32f4xx_hal_i2c.c **** 
 313:Drivers/STM32F4xx_HAL_Driver/Src/stm32f4xx_hal_i2c.c **** /* Exported functions --------------------------------------------------------*/
 314:Drivers/STM32F4xx_HAL_Driver/Src/stm32f4xx_hal_i2c.c **** /** @defgroup I2C_Exported_Functions I2C Exported Functions
ARM GAS  /tmp/cc3ELaEI.s 			page 7


 315:Drivers/STM32F4xx_HAL_Driver/Src/stm32f4xx_hal_i2c.c ****   * @{
 316:Drivers/STM32F4xx_HAL_Driver/Src/stm32f4xx_hal_i2c.c ****   */
 317:Drivers/STM32F4xx_HAL_Driver/Src/stm32f4xx_hal_i2c.c **** 
 318:Drivers/STM32F4xx_HAL_Driver/Src/stm32f4xx_hal_i2c.c **** /** @defgroup I2C_Exported_Functions_Group1 Initialization and de-initialization functions
 319:Drivers/STM32F4xx_HAL_Driver/Src/stm32f4xx_hal_i2c.c ****  *  @brief    Initialization and Configuration functions
 320:Drivers/STM32F4xx_HAL_Driver/Src/stm32f4xx_hal_i2c.c ****  *
 321:Drivers/STM32F4xx_HAL_Driver/Src/stm32f4xx_hal_i2c.c **** @verbatim
 322:Drivers/STM32F4xx_HAL_Driver/Src/stm32f4xx_hal_i2c.c ****  ===============================================================================
 323:Drivers/STM32F4xx_HAL_Driver/Src/stm32f4xx_hal_i2c.c ****               ##### Initialization and de-initialization functions #####
 324:Drivers/STM32F4xx_HAL_Driver/Src/stm32f4xx_hal_i2c.c ****  ===============================================================================
 325:Drivers/STM32F4xx_HAL_Driver/Src/stm32f4xx_hal_i2c.c ****     [..]  This subsection provides a set of functions allowing to initialize and
 326:Drivers/STM32F4xx_HAL_Driver/Src/stm32f4xx_hal_i2c.c ****           de-initialize the I2Cx peripheral:
 327:Drivers/STM32F4xx_HAL_Driver/Src/stm32f4xx_hal_i2c.c **** 
 328:Drivers/STM32F4xx_HAL_Driver/Src/stm32f4xx_hal_i2c.c ****       (+) User must Implement HAL_I2C_MspInit() function in which he configures
 329:Drivers/STM32F4xx_HAL_Driver/Src/stm32f4xx_hal_i2c.c ****           all related peripherals resources (CLOCK, GPIO, DMA, IT and NVIC).
 330:Drivers/STM32F4xx_HAL_Driver/Src/stm32f4xx_hal_i2c.c **** 
 331:Drivers/STM32F4xx_HAL_Driver/Src/stm32f4xx_hal_i2c.c ****       (+) Call the function HAL_I2C_Init() to configure the selected device with
 332:Drivers/STM32F4xx_HAL_Driver/Src/stm32f4xx_hal_i2c.c ****           the selected configuration:
 333:Drivers/STM32F4xx_HAL_Driver/Src/stm32f4xx_hal_i2c.c ****         (++) Communication Speed
 334:Drivers/STM32F4xx_HAL_Driver/Src/stm32f4xx_hal_i2c.c ****         (++) Duty cycle
 335:Drivers/STM32F4xx_HAL_Driver/Src/stm32f4xx_hal_i2c.c ****         (++) Addressing mode
 336:Drivers/STM32F4xx_HAL_Driver/Src/stm32f4xx_hal_i2c.c ****         (++) Own Address 1
 337:Drivers/STM32F4xx_HAL_Driver/Src/stm32f4xx_hal_i2c.c ****         (++) Dual Addressing mode
 338:Drivers/STM32F4xx_HAL_Driver/Src/stm32f4xx_hal_i2c.c ****         (++) Own Address 2
 339:Drivers/STM32F4xx_HAL_Driver/Src/stm32f4xx_hal_i2c.c ****         (++) General call mode
 340:Drivers/STM32F4xx_HAL_Driver/Src/stm32f4xx_hal_i2c.c ****         (++) Nostretch mode
 341:Drivers/STM32F4xx_HAL_Driver/Src/stm32f4xx_hal_i2c.c **** 
 342:Drivers/STM32F4xx_HAL_Driver/Src/stm32f4xx_hal_i2c.c ****       (+) Call the function HAL_I2C_DeInit() to restore the default configuration
 343:Drivers/STM32F4xx_HAL_Driver/Src/stm32f4xx_hal_i2c.c ****           of the selected I2Cx peripheral.
 344:Drivers/STM32F4xx_HAL_Driver/Src/stm32f4xx_hal_i2c.c **** 
 345:Drivers/STM32F4xx_HAL_Driver/Src/stm32f4xx_hal_i2c.c **** @endverbatim
 346:Drivers/STM32F4xx_HAL_Driver/Src/stm32f4xx_hal_i2c.c ****   * @{
 347:Drivers/STM32F4xx_HAL_Driver/Src/stm32f4xx_hal_i2c.c ****   */
 348:Drivers/STM32F4xx_HAL_Driver/Src/stm32f4xx_hal_i2c.c **** 
 349:Drivers/STM32F4xx_HAL_Driver/Src/stm32f4xx_hal_i2c.c **** /**
 350:Drivers/STM32F4xx_HAL_Driver/Src/stm32f4xx_hal_i2c.c ****   * @brief  Initializes the I2C according to the specified parameters
 351:Drivers/STM32F4xx_HAL_Driver/Src/stm32f4xx_hal_i2c.c ****   *         in the I2C_InitTypeDef and create the associated handle.
 352:Drivers/STM32F4xx_HAL_Driver/Src/stm32f4xx_hal_i2c.c ****   * @param  hi2c: pointer to a I2C_HandleTypeDef structure that contains
 353:Drivers/STM32F4xx_HAL_Driver/Src/stm32f4xx_hal_i2c.c ****   *         the configuration information for I2C module
 354:Drivers/STM32F4xx_HAL_Driver/Src/stm32f4xx_hal_i2c.c ****   * @retval HAL status
 355:Drivers/STM32F4xx_HAL_Driver/Src/stm32f4xx_hal_i2c.c ****   */
 356:Drivers/STM32F4xx_HAL_Driver/Src/stm32f4xx_hal_i2c.c **** HAL_StatusTypeDef HAL_I2C_Init(I2C_HandleTypeDef *hi2c)
 357:Drivers/STM32F4xx_HAL_Driver/Src/stm32f4xx_hal_i2c.c **** {
  30              		.loc 1 357 0
  31              		.cfi_startproc
  32              		@ args = 0, pretend = 0, frame = 16
  33              		@ frame_needed = 1, uses_anonymous_args = 0
  34 0000 80B5     		push	{r7, lr}
  35              	.LCFI0:
  36              		.cfi_def_cfa_offset 8
  37              		.cfi_offset 7, -8
  38              		.cfi_offset 14, -4
  39 0002 84B0     		sub	sp, sp, #16
  40              	.LCFI1:
  41              		.cfi_def_cfa_offset 24
  42 0004 00AF     		add	r7, sp, #0
  43              	.LCFI2:
ARM GAS  /tmp/cc3ELaEI.s 			page 8


  44              		.cfi_def_cfa_register 7
  45 0006 7860     		str	r0, [r7, #4]
 358:Drivers/STM32F4xx_HAL_Driver/Src/stm32f4xx_hal_i2c.c ****   uint32_t freqrange = 0U;
  46              		.loc 1 358 0
  47 0008 0023     		movs	r3, #0
  48 000a FB60     		str	r3, [r7, #12]
 359:Drivers/STM32F4xx_HAL_Driver/Src/stm32f4xx_hal_i2c.c ****   uint32_t pclk1 = 0U;
  49              		.loc 1 359 0
  50 000c 0023     		movs	r3, #0
  51 000e BB60     		str	r3, [r7, #8]
 360:Drivers/STM32F4xx_HAL_Driver/Src/stm32f4xx_hal_i2c.c **** 
 361:Drivers/STM32F4xx_HAL_Driver/Src/stm32f4xx_hal_i2c.c ****   /* Check the I2C handle allocation */
 362:Drivers/STM32F4xx_HAL_Driver/Src/stm32f4xx_hal_i2c.c ****   if(hi2c == NULL)
  52              		.loc 1 362 0
  53 0010 7B68     		ldr	r3, [r7, #4]
  54 0012 002B     		cmp	r3, #0
  55 0014 01D1     		bne	.L2
 363:Drivers/STM32F4xx_HAL_Driver/Src/stm32f4xx_hal_i2c.c ****   {
 364:Drivers/STM32F4xx_HAL_Driver/Src/stm32f4xx_hal_i2c.c ****     return HAL_ERROR;
  56              		.loc 1 364 0
  57 0016 0123     		movs	r3, #1
  58 0018 C8E0     		b	.L3
  59              	.L2:
 365:Drivers/STM32F4xx_HAL_Driver/Src/stm32f4xx_hal_i2c.c ****   }
 366:Drivers/STM32F4xx_HAL_Driver/Src/stm32f4xx_hal_i2c.c **** 
 367:Drivers/STM32F4xx_HAL_Driver/Src/stm32f4xx_hal_i2c.c ****   /* Check the parameters */
 368:Drivers/STM32F4xx_HAL_Driver/Src/stm32f4xx_hal_i2c.c ****   assert_param(IS_I2C_ALL_INSTANCE(hi2c->Instance));
 369:Drivers/STM32F4xx_HAL_Driver/Src/stm32f4xx_hal_i2c.c ****   assert_param(IS_I2C_CLOCK_SPEED(hi2c->Init.ClockSpeed));
 370:Drivers/STM32F4xx_HAL_Driver/Src/stm32f4xx_hal_i2c.c ****   assert_param(IS_I2C_DUTY_CYCLE(hi2c->Init.DutyCycle));
 371:Drivers/STM32F4xx_HAL_Driver/Src/stm32f4xx_hal_i2c.c ****   assert_param(IS_I2C_OWN_ADDRESS1(hi2c->Init.OwnAddress1));
 372:Drivers/STM32F4xx_HAL_Driver/Src/stm32f4xx_hal_i2c.c ****   assert_param(IS_I2C_ADDRESSING_MODE(hi2c->Init.AddressingMode));
 373:Drivers/STM32F4xx_HAL_Driver/Src/stm32f4xx_hal_i2c.c ****   assert_param(IS_I2C_DUAL_ADDRESS(hi2c->Init.DualAddressMode));
 374:Drivers/STM32F4xx_HAL_Driver/Src/stm32f4xx_hal_i2c.c ****   assert_param(IS_I2C_OWN_ADDRESS2(hi2c->Init.OwnAddress2));
 375:Drivers/STM32F4xx_HAL_Driver/Src/stm32f4xx_hal_i2c.c ****   assert_param(IS_I2C_GENERAL_CALL(hi2c->Init.GeneralCallMode));
 376:Drivers/STM32F4xx_HAL_Driver/Src/stm32f4xx_hal_i2c.c ****   assert_param(IS_I2C_NO_STRETCH(hi2c->Init.NoStretchMode));
 377:Drivers/STM32F4xx_HAL_Driver/Src/stm32f4xx_hal_i2c.c **** 
 378:Drivers/STM32F4xx_HAL_Driver/Src/stm32f4xx_hal_i2c.c ****   if(hi2c->State == HAL_I2C_STATE_RESET)
  60              		.loc 1 378 0
  61 001a 7B68     		ldr	r3, [r7, #4]
  62 001c 93F83D30 		ldrb	r3, [r3, #61]
  63 0020 DBB2     		uxtb	r3, r3
  64 0022 002B     		cmp	r3, #0
  65 0024 06D1     		bne	.L4
 379:Drivers/STM32F4xx_HAL_Driver/Src/stm32f4xx_hal_i2c.c ****   {
 380:Drivers/STM32F4xx_HAL_Driver/Src/stm32f4xx_hal_i2c.c ****     /* Allocate lock resource and initialize it */
 381:Drivers/STM32F4xx_HAL_Driver/Src/stm32f4xx_hal_i2c.c ****     hi2c->Lock = HAL_UNLOCKED;
  66              		.loc 1 381 0
  67 0026 7B68     		ldr	r3, [r7, #4]
  68 0028 0022     		movs	r2, #0
  69 002a 83F83C20 		strb	r2, [r3, #60]
 382:Drivers/STM32F4xx_HAL_Driver/Src/stm32f4xx_hal_i2c.c ****     /* Init the low level hardware : GPIO, CLOCK, NVIC */
 383:Drivers/STM32F4xx_HAL_Driver/Src/stm32f4xx_hal_i2c.c ****     HAL_I2C_MspInit(hi2c);
  70              		.loc 1 383 0
  71 002e 7868     		ldr	r0, [r7, #4]
  72 0030 FFF7FEFF 		bl	HAL_I2C_MspInit
  73              	.L4:
 384:Drivers/STM32F4xx_HAL_Driver/Src/stm32f4xx_hal_i2c.c ****   }
ARM GAS  /tmp/cc3ELaEI.s 			page 9


 385:Drivers/STM32F4xx_HAL_Driver/Src/stm32f4xx_hal_i2c.c **** 
 386:Drivers/STM32F4xx_HAL_Driver/Src/stm32f4xx_hal_i2c.c ****   hi2c->State = HAL_I2C_STATE_BUSY;
  74              		.loc 1 386 0
  75 0034 7B68     		ldr	r3, [r7, #4]
  76 0036 2422     		movs	r2, #36
  77 0038 83F83D20 		strb	r2, [r3, #61]
 387:Drivers/STM32F4xx_HAL_Driver/Src/stm32f4xx_hal_i2c.c **** 
 388:Drivers/STM32F4xx_HAL_Driver/Src/stm32f4xx_hal_i2c.c ****   /* Disable the selected I2C peripheral */
 389:Drivers/STM32F4xx_HAL_Driver/Src/stm32f4xx_hal_i2c.c ****   __HAL_I2C_DISABLE(hi2c);
  78              		.loc 1 389 0
  79 003c 7B68     		ldr	r3, [r7, #4]
  80 003e 1B68     		ldr	r3, [r3]
  81 0040 7A68     		ldr	r2, [r7, #4]
  82 0042 1268     		ldr	r2, [r2]
  83 0044 1268     		ldr	r2, [r2]
  84 0046 22F00102 		bic	r2, r2, #1
  85 004a 1A60     		str	r2, [r3]
 390:Drivers/STM32F4xx_HAL_Driver/Src/stm32f4xx_hal_i2c.c **** 
 391:Drivers/STM32F4xx_HAL_Driver/Src/stm32f4xx_hal_i2c.c ****   /* Get PCLK1 frequency */
 392:Drivers/STM32F4xx_HAL_Driver/Src/stm32f4xx_hal_i2c.c ****   pclk1 = HAL_RCC_GetPCLK1Freq();
  86              		.loc 1 392 0
  87 004c FFF7FEFF 		bl	HAL_RCC_GetPCLK1Freq
  88 0050 B860     		str	r0, [r7, #8]
 393:Drivers/STM32F4xx_HAL_Driver/Src/stm32f4xx_hal_i2c.c **** 
 394:Drivers/STM32F4xx_HAL_Driver/Src/stm32f4xx_hal_i2c.c ****   /* Calculate frequency range */
 395:Drivers/STM32F4xx_HAL_Driver/Src/stm32f4xx_hal_i2c.c ****   freqrange = I2C_FREQRANGE(pclk1);
  89              		.loc 1 395 0
  90 0052 BB68     		ldr	r3, [r7, #8]
  91 0054 574A     		ldr	r2, .L17
  92 0056 A2FB0323 		umull	r2, r3, r2, r3
  93 005a 9B0C     		lsrs	r3, r3, #18
  94 005c FB60     		str	r3, [r7, #12]
 396:Drivers/STM32F4xx_HAL_Driver/Src/stm32f4xx_hal_i2c.c **** 
 397:Drivers/STM32F4xx_HAL_Driver/Src/stm32f4xx_hal_i2c.c ****   /*---------------------------- I2Cx CR2 Configuration ----------------------*/
 398:Drivers/STM32F4xx_HAL_Driver/Src/stm32f4xx_hal_i2c.c ****   /* Configure I2Cx: Frequency range */
 399:Drivers/STM32F4xx_HAL_Driver/Src/stm32f4xx_hal_i2c.c ****   hi2c->Instance->CR2 = freqrange;
  95              		.loc 1 399 0
  96 005e 7B68     		ldr	r3, [r7, #4]
  97 0060 1B68     		ldr	r3, [r3]
  98 0062 FA68     		ldr	r2, [r7, #12]
  99 0064 5A60     		str	r2, [r3, #4]
 400:Drivers/STM32F4xx_HAL_Driver/Src/stm32f4xx_hal_i2c.c **** 
 401:Drivers/STM32F4xx_HAL_Driver/Src/stm32f4xx_hal_i2c.c ****   /*---------------------------- I2Cx TRISE Configuration --------------------*/
 402:Drivers/STM32F4xx_HAL_Driver/Src/stm32f4xx_hal_i2c.c ****   /* Configure I2Cx: Rise Time */
 403:Drivers/STM32F4xx_HAL_Driver/Src/stm32f4xx_hal_i2c.c ****   hi2c->Instance->TRISE = I2C_RISE_TIME(freqrange, hi2c->Init.ClockSpeed);
 100              		.loc 1 403 0
 101 0066 7B68     		ldr	r3, [r7, #4]
 102 0068 1A68     		ldr	r2, [r3]
 103 006a 7B68     		ldr	r3, [r7, #4]
 104 006c 5B68     		ldr	r3, [r3, #4]
 105 006e 5249     		ldr	r1, .L17+4
 106 0070 8B42     		cmp	r3, r1
 107 0072 02D8     		bhi	.L5
 108              		.loc 1 403 0 is_stmt 0 discriminator 1
 109 0074 FB68     		ldr	r3, [r7, #12]
 110 0076 0133     		adds	r3, r3, #1
 111 0078 09E0     		b	.L6
ARM GAS  /tmp/cc3ELaEI.s 			page 10


 112              	.L5:
 113              		.loc 1 403 0 discriminator 2
 114 007a FB68     		ldr	r3, [r7, #12]
 115 007c 4FF49671 		mov	r1, #300
 116 0080 01FB03F3 		mul	r3, r1, r3
 117 0084 4D49     		ldr	r1, .L17+8
 118 0086 A1FB0313 		umull	r1, r3, r1, r3
 119 008a 9B09     		lsrs	r3, r3, #6
 120 008c 0133     		adds	r3, r3, #1
 121              	.L6:
 122              		.loc 1 403 0 discriminator 4
 123 008e 1362     		str	r3, [r2, #32]
 404:Drivers/STM32F4xx_HAL_Driver/Src/stm32f4xx_hal_i2c.c **** 
 405:Drivers/STM32F4xx_HAL_Driver/Src/stm32f4xx_hal_i2c.c ****   /*---------------------------- I2Cx CCR Configuration ----------------------*/
 406:Drivers/STM32F4xx_HAL_Driver/Src/stm32f4xx_hal_i2c.c ****   /* Configure I2Cx: Speed */
 407:Drivers/STM32F4xx_HAL_Driver/Src/stm32f4xx_hal_i2c.c ****   hi2c->Instance->CCR = I2C_SPEED(pclk1, hi2c->Init.ClockSpeed, hi2c->Init.DutyCycle);
 124              		.loc 1 407 0 is_stmt 1 discriminator 4
 125 0090 7B68     		ldr	r3, [r7, #4]
 126 0092 1968     		ldr	r1, [r3]
 127 0094 7B68     		ldr	r3, [r7, #4]
 128 0096 5B68     		ldr	r3, [r3, #4]
 129 0098 474A     		ldr	r2, .L17+4
 130 009a 9342     		cmp	r3, r2
 131 009c 12D8     		bhi	.L7
 132              		.loc 1 407 0 is_stmt 0 discriminator 1
 133 009e 7B68     		ldr	r3, [r7, #4]
 134 00a0 5B68     		ldr	r3, [r3, #4]
 135 00a2 5B00     		lsls	r3, r3, #1
 136 00a4 BA68     		ldr	r2, [r7, #8]
 137 00a6 B2FBF3F3 		udiv	r3, r2, r3
 138 00aa C3F30B03 		ubfx	r3, r3, #0, #12
 139 00ae 032B     		cmp	r3, #3
 140 00b0 06D9     		bls	.L8
 141              		.loc 1 407 0 discriminator 3
 142 00b2 7B68     		ldr	r3, [r7, #4]
 143 00b4 5B68     		ldr	r3, [r3, #4]
 144 00b6 5B00     		lsls	r3, r3, #1
 145 00b8 BA68     		ldr	r2, [r7, #8]
 146 00ba B2FBF3F3 		udiv	r3, r2, r3
 147 00be 45E0     		b	.L10
 148              	.L8:
 149              		.loc 1 407 0 discriminator 4
 150 00c0 0423     		movs	r3, #4
 151 00c2 43E0     		b	.L10
 152              	.L7:
 153              		.loc 1 407 0 discriminator 2
 154 00c4 7B68     		ldr	r3, [r7, #4]
 155 00c6 9B68     		ldr	r3, [r3, #8]
 156 00c8 002B     		cmp	r3, #0
 157 00ca 0FD1     		bne	.L11
 158              		.loc 1 407 0 discriminator 8
 159 00cc 7B68     		ldr	r3, [r7, #4]
 160 00ce 5A68     		ldr	r2, [r3, #4]
 161 00d0 1346     		mov	r3, r2
 162 00d2 5B00     		lsls	r3, r3, #1
 163 00d4 1344     		add	r3, r3, r2
 164 00d6 BA68     		ldr	r2, [r7, #8]
ARM GAS  /tmp/cc3ELaEI.s 			page 11


 165 00d8 B2FBF3F3 		udiv	r3, r2, r3
 166 00dc C3F30B03 		ubfx	r3, r3, #0, #12
 167 00e0 002B     		cmp	r3, #0
 168 00e2 0CBF     		ite	eq
 169 00e4 0123     		moveq	r3, #1
 170 00e6 0023     		movne	r3, #0
 171 00e8 DBB2     		uxtb	r3, r3
 172 00ea 10E0     		b	.L12
 173              	.L11:
 174              		.loc 1 407 0 discriminator 9
 175 00ec 7B68     		ldr	r3, [r7, #4]
 176 00ee 5A68     		ldr	r2, [r3, #4]
 177 00f0 1346     		mov	r3, r2
 178 00f2 9B00     		lsls	r3, r3, #2
 179 00f4 1344     		add	r3, r3, r2
 180 00f6 9A00     		lsls	r2, r3, #2
 181 00f8 1344     		add	r3, r3, r2
 182 00fa BA68     		ldr	r2, [r7, #8]
 183 00fc B2FBF3F3 		udiv	r3, r2, r3
 184 0100 C3F30B03 		ubfx	r3, r3, #0, #12
 185 0104 002B     		cmp	r3, #0
 186 0106 0CBF     		ite	eq
 187 0108 0123     		moveq	r3, #1
 188 010a 0023     		movne	r3, #0
 189 010c DBB2     		uxtb	r3, r3
 190              	.L12:
 191              		.loc 1 407 0 discriminator 11
 192 010e 002B     		cmp	r3, #0
 193 0110 01D0     		beq	.L13
 194              		.loc 1 407 0 discriminator 12
 195 0112 0123     		movs	r3, #1
 196 0114 1AE0     		b	.L10
 197              	.L13:
 198              		.loc 1 407 0 discriminator 13
 199 0116 7B68     		ldr	r3, [r7, #4]
 200 0118 9B68     		ldr	r3, [r3, #8]
 201 011a 002B     		cmp	r3, #0
 202 011c 0AD1     		bne	.L15
 203              		.loc 1 407 0 discriminator 15
 204 011e 7B68     		ldr	r3, [r7, #4]
 205 0120 5A68     		ldr	r2, [r3, #4]
 206 0122 1346     		mov	r3, r2
 207 0124 5B00     		lsls	r3, r3, #1
 208 0126 1344     		add	r3, r3, r2
 209 0128 BA68     		ldr	r2, [r7, #8]
 210 012a B2FBF3F3 		udiv	r3, r2, r3
 211 012e 43F40043 		orr	r3, r3, #32768
 212 0132 0BE0     		b	.L10
 213              	.L15:
 214              		.loc 1 407 0 discriminator 16
 215 0134 7B68     		ldr	r3, [r7, #4]
 216 0136 5A68     		ldr	r2, [r3, #4]
 217 0138 1346     		mov	r3, r2
 218 013a 9B00     		lsls	r3, r3, #2
 219 013c 1344     		add	r3, r3, r2
 220 013e 9A00     		lsls	r2, r3, #2
 221 0140 1344     		add	r3, r3, r2
ARM GAS  /tmp/cc3ELaEI.s 			page 12


 222 0142 BA68     		ldr	r2, [r7, #8]
 223 0144 B2FBF3F3 		udiv	r3, r2, r3
 224 0148 43F44043 		orr	r3, r3, #49152
 225              	.L10:
 226              		.loc 1 407 0 discriminator 20
 227 014c CB61     		str	r3, [r1, #28]
 408:Drivers/STM32F4xx_HAL_Driver/Src/stm32f4xx_hal_i2c.c **** 
 409:Drivers/STM32F4xx_HAL_Driver/Src/stm32f4xx_hal_i2c.c ****   /*---------------------------- I2Cx CR1 Configuration ----------------------*/
 410:Drivers/STM32F4xx_HAL_Driver/Src/stm32f4xx_hal_i2c.c ****   /* Configure I2Cx: Generalcall and NoStretch mode */
 411:Drivers/STM32F4xx_HAL_Driver/Src/stm32f4xx_hal_i2c.c ****   hi2c->Instance->CR1 = (hi2c->Init.GeneralCallMode | hi2c->Init.NoStretchMode);
 228              		.loc 1 411 0 is_stmt 1 discriminator 20
 229 014e 7B68     		ldr	r3, [r7, #4]
 230 0150 1B68     		ldr	r3, [r3]
 231 0152 7A68     		ldr	r2, [r7, #4]
 232 0154 D169     		ldr	r1, [r2, #28]
 233 0156 7A68     		ldr	r2, [r7, #4]
 234 0158 126A     		ldr	r2, [r2, #32]
 235 015a 0A43     		orrs	r2, r2, r1
 236 015c 1A60     		str	r2, [r3]
 412:Drivers/STM32F4xx_HAL_Driver/Src/stm32f4xx_hal_i2c.c **** 
 413:Drivers/STM32F4xx_HAL_Driver/Src/stm32f4xx_hal_i2c.c ****   /*---------------------------- I2Cx OAR1 Configuration ---------------------*/
 414:Drivers/STM32F4xx_HAL_Driver/Src/stm32f4xx_hal_i2c.c ****   /* Configure I2Cx: Own Address1 and addressing mode */
 415:Drivers/STM32F4xx_HAL_Driver/Src/stm32f4xx_hal_i2c.c ****   hi2c->Instance->OAR1 = (hi2c->Init.AddressingMode | hi2c->Init.OwnAddress1);
 237              		.loc 1 415 0 discriminator 20
 238 015e 7B68     		ldr	r3, [r7, #4]
 239 0160 1B68     		ldr	r3, [r3]
 240 0162 7A68     		ldr	r2, [r7, #4]
 241 0164 1169     		ldr	r1, [r2, #16]
 242 0166 7A68     		ldr	r2, [r7, #4]
 243 0168 D268     		ldr	r2, [r2, #12]
 244 016a 0A43     		orrs	r2, r2, r1
 245 016c 9A60     		str	r2, [r3, #8]
 416:Drivers/STM32F4xx_HAL_Driver/Src/stm32f4xx_hal_i2c.c **** 
 417:Drivers/STM32F4xx_HAL_Driver/Src/stm32f4xx_hal_i2c.c ****   /*---------------------------- I2Cx OAR2 Configuration ---------------------*/
 418:Drivers/STM32F4xx_HAL_Driver/Src/stm32f4xx_hal_i2c.c ****   /* Configure I2Cx: Dual mode and Own Address2 */
 419:Drivers/STM32F4xx_HAL_Driver/Src/stm32f4xx_hal_i2c.c ****   hi2c->Instance->OAR2 = (hi2c->Init.DualAddressMode | hi2c->Init.OwnAddress2);
 246              		.loc 1 419 0 discriminator 20
 247 016e 7B68     		ldr	r3, [r7, #4]
 248 0170 1B68     		ldr	r3, [r3]
 249 0172 7A68     		ldr	r2, [r7, #4]
 250 0174 5169     		ldr	r1, [r2, #20]
 251 0176 7A68     		ldr	r2, [r7, #4]
 252 0178 9269     		ldr	r2, [r2, #24]
 253 017a 0A43     		orrs	r2, r2, r1
 254 017c DA60     		str	r2, [r3, #12]
 420:Drivers/STM32F4xx_HAL_Driver/Src/stm32f4xx_hal_i2c.c **** 
 421:Drivers/STM32F4xx_HAL_Driver/Src/stm32f4xx_hal_i2c.c ****   /* Enable the selected I2C peripheral */
 422:Drivers/STM32F4xx_HAL_Driver/Src/stm32f4xx_hal_i2c.c ****   __HAL_I2C_ENABLE(hi2c);
 255              		.loc 1 422 0 discriminator 20
 256 017e 7B68     		ldr	r3, [r7, #4]
 257 0180 1B68     		ldr	r3, [r3]
 258 0182 7A68     		ldr	r2, [r7, #4]
 259 0184 1268     		ldr	r2, [r2]
 260 0186 1268     		ldr	r2, [r2]
 261 0188 42F00102 		orr	r2, r2, #1
 262 018c 1A60     		str	r2, [r3]
 423:Drivers/STM32F4xx_HAL_Driver/Src/stm32f4xx_hal_i2c.c **** 
ARM GAS  /tmp/cc3ELaEI.s 			page 13


 424:Drivers/STM32F4xx_HAL_Driver/Src/stm32f4xx_hal_i2c.c ****   hi2c->ErrorCode = HAL_I2C_ERROR_NONE;
 263              		.loc 1 424 0 discriminator 20
 264 018e 7B68     		ldr	r3, [r7, #4]
 265 0190 0022     		movs	r2, #0
 266 0192 1A64     		str	r2, [r3, #64]
 425:Drivers/STM32F4xx_HAL_Driver/Src/stm32f4xx_hal_i2c.c ****   hi2c->State = HAL_I2C_STATE_READY;
 267              		.loc 1 425 0 discriminator 20
 268 0194 7B68     		ldr	r3, [r7, #4]
 269 0196 2022     		movs	r2, #32
 270 0198 83F83D20 		strb	r2, [r3, #61]
 426:Drivers/STM32F4xx_HAL_Driver/Src/stm32f4xx_hal_i2c.c ****   hi2c->PreviousState = I2C_STATE_NONE;
 271              		.loc 1 426 0 discriminator 20
 272 019c 7B68     		ldr	r3, [r7, #4]
 273 019e 0022     		movs	r2, #0
 274 01a0 1A63     		str	r2, [r3, #48]
 427:Drivers/STM32F4xx_HAL_Driver/Src/stm32f4xx_hal_i2c.c ****   hi2c->Mode = HAL_I2C_MODE_NONE;
 275              		.loc 1 427 0 discriminator 20
 276 01a2 7B68     		ldr	r3, [r7, #4]
 277 01a4 0022     		movs	r2, #0
 278 01a6 83F83E20 		strb	r2, [r3, #62]
 428:Drivers/STM32F4xx_HAL_Driver/Src/stm32f4xx_hal_i2c.c **** 
 429:Drivers/STM32F4xx_HAL_Driver/Src/stm32f4xx_hal_i2c.c ****   return HAL_OK;
 279              		.loc 1 429 0 discriminator 20
 280 01aa 0023     		movs	r3, #0
 281              	.L3:
 430:Drivers/STM32F4xx_HAL_Driver/Src/stm32f4xx_hal_i2c.c **** }
 282              		.loc 1 430 0
 283 01ac 1846     		mov	r0, r3
 284 01ae 1037     		adds	r7, r7, #16
 285              	.LCFI3:
 286              		.cfi_def_cfa_offset 8
 287 01b0 BD46     		mov	sp, r7
 288              	.LCFI4:
 289              		.cfi_def_cfa_register 13
 290              		@ sp needed
 291 01b2 80BD     		pop	{r7, pc}
 292              	.L18:
 293              		.align	2
 294              	.L17:
 295 01b4 83DE1B43 		.word	1125899907
 296 01b8 A0860100 		.word	100000
 297 01bc D34D6210 		.word	274877907
 298              		.cfi_endproc
 299              	.LFE126:
 301              		.section	.text.HAL_I2C_DeInit,"ax",%progbits
 302              		.align	2
 303              		.global	HAL_I2C_DeInit
 304              		.thumb
 305              		.thumb_func
 307              	HAL_I2C_DeInit:
 308              	.LFB127:
 431:Drivers/STM32F4xx_HAL_Driver/Src/stm32f4xx_hal_i2c.c **** 
 432:Drivers/STM32F4xx_HAL_Driver/Src/stm32f4xx_hal_i2c.c **** /**
 433:Drivers/STM32F4xx_HAL_Driver/Src/stm32f4xx_hal_i2c.c ****   * @brief  DeInitializes the I2C peripheral.
 434:Drivers/STM32F4xx_HAL_Driver/Src/stm32f4xx_hal_i2c.c ****   * @param  hi2c: pointer to a I2C_HandleTypeDef structure that contains
 435:Drivers/STM32F4xx_HAL_Driver/Src/stm32f4xx_hal_i2c.c ****   *         the configuration information for I2C module
 436:Drivers/STM32F4xx_HAL_Driver/Src/stm32f4xx_hal_i2c.c ****   * @retval HAL status
ARM GAS  /tmp/cc3ELaEI.s 			page 14


 437:Drivers/STM32F4xx_HAL_Driver/Src/stm32f4xx_hal_i2c.c ****   */
 438:Drivers/STM32F4xx_HAL_Driver/Src/stm32f4xx_hal_i2c.c **** HAL_StatusTypeDef HAL_I2C_DeInit(I2C_HandleTypeDef *hi2c)
 439:Drivers/STM32F4xx_HAL_Driver/Src/stm32f4xx_hal_i2c.c **** {
 309              		.loc 1 439 0
 310              		.cfi_startproc
 311              		@ args = 0, pretend = 0, frame = 8
 312              		@ frame_needed = 1, uses_anonymous_args = 0
 313 0000 80B5     		push	{r7, lr}
 314              	.LCFI5:
 315              		.cfi_def_cfa_offset 8
 316              		.cfi_offset 7, -8
 317              		.cfi_offset 14, -4
 318 0002 82B0     		sub	sp, sp, #8
 319              	.LCFI6:
 320              		.cfi_def_cfa_offset 16
 321 0004 00AF     		add	r7, sp, #0
 322              	.LCFI7:
 323              		.cfi_def_cfa_register 7
 324 0006 7860     		str	r0, [r7, #4]
 440:Drivers/STM32F4xx_HAL_Driver/Src/stm32f4xx_hal_i2c.c ****   /* Check the I2C handle allocation */
 441:Drivers/STM32F4xx_HAL_Driver/Src/stm32f4xx_hal_i2c.c ****   if(hi2c == NULL)
 325              		.loc 1 441 0
 326 0008 7B68     		ldr	r3, [r7, #4]
 327 000a 002B     		cmp	r3, #0
 328 000c 01D1     		bne	.L20
 442:Drivers/STM32F4xx_HAL_Driver/Src/stm32f4xx_hal_i2c.c ****   {
 443:Drivers/STM32F4xx_HAL_Driver/Src/stm32f4xx_hal_i2c.c ****     return HAL_ERROR;
 329              		.loc 1 443 0
 330 000e 0123     		movs	r3, #1
 331 0010 21E0     		b	.L21
 332              	.L20:
 444:Drivers/STM32F4xx_HAL_Driver/Src/stm32f4xx_hal_i2c.c ****   }
 445:Drivers/STM32F4xx_HAL_Driver/Src/stm32f4xx_hal_i2c.c **** 
 446:Drivers/STM32F4xx_HAL_Driver/Src/stm32f4xx_hal_i2c.c ****   /* Check the parameters */
 447:Drivers/STM32F4xx_HAL_Driver/Src/stm32f4xx_hal_i2c.c ****   assert_param(IS_I2C_ALL_INSTANCE(hi2c->Instance));
 448:Drivers/STM32F4xx_HAL_Driver/Src/stm32f4xx_hal_i2c.c **** 
 449:Drivers/STM32F4xx_HAL_Driver/Src/stm32f4xx_hal_i2c.c ****   hi2c->State = HAL_I2C_STATE_BUSY;
 333              		.loc 1 449 0
 334 0012 7B68     		ldr	r3, [r7, #4]
 335 0014 2422     		movs	r2, #36
 336 0016 83F83D20 		strb	r2, [r3, #61]
 450:Drivers/STM32F4xx_HAL_Driver/Src/stm32f4xx_hal_i2c.c **** 
 451:Drivers/STM32F4xx_HAL_Driver/Src/stm32f4xx_hal_i2c.c ****   /* Disable the I2C Peripheral Clock */
 452:Drivers/STM32F4xx_HAL_Driver/Src/stm32f4xx_hal_i2c.c ****   __HAL_I2C_DISABLE(hi2c);
 337              		.loc 1 452 0
 338 001a 7B68     		ldr	r3, [r7, #4]
 339 001c 1B68     		ldr	r3, [r3]
 340 001e 7A68     		ldr	r2, [r7, #4]
 341 0020 1268     		ldr	r2, [r2]
 342 0022 1268     		ldr	r2, [r2]
 343 0024 22F00102 		bic	r2, r2, #1
 344 0028 1A60     		str	r2, [r3]
 453:Drivers/STM32F4xx_HAL_Driver/Src/stm32f4xx_hal_i2c.c **** 
 454:Drivers/STM32F4xx_HAL_Driver/Src/stm32f4xx_hal_i2c.c ****   /* DeInit the low level hardware: GPIO, CLOCK, NVIC */
 455:Drivers/STM32F4xx_HAL_Driver/Src/stm32f4xx_hal_i2c.c ****   HAL_I2C_MspDeInit(hi2c);
 345              		.loc 1 455 0
 346 002a 7868     		ldr	r0, [r7, #4]
ARM GAS  /tmp/cc3ELaEI.s 			page 15


 347 002c FFF7FEFF 		bl	HAL_I2C_MspDeInit
 456:Drivers/STM32F4xx_HAL_Driver/Src/stm32f4xx_hal_i2c.c **** 
 457:Drivers/STM32F4xx_HAL_Driver/Src/stm32f4xx_hal_i2c.c ****   hi2c->ErrorCode     = HAL_I2C_ERROR_NONE;
 348              		.loc 1 457 0
 349 0030 7B68     		ldr	r3, [r7, #4]
 350 0032 0022     		movs	r2, #0
 351 0034 1A64     		str	r2, [r3, #64]
 458:Drivers/STM32F4xx_HAL_Driver/Src/stm32f4xx_hal_i2c.c ****   hi2c->State         = HAL_I2C_STATE_RESET;
 352              		.loc 1 458 0
 353 0036 7B68     		ldr	r3, [r7, #4]
 354 0038 0022     		movs	r2, #0
 355 003a 83F83D20 		strb	r2, [r3, #61]
 459:Drivers/STM32F4xx_HAL_Driver/Src/stm32f4xx_hal_i2c.c ****   hi2c->PreviousState = I2C_STATE_NONE;
 356              		.loc 1 459 0
 357 003e 7B68     		ldr	r3, [r7, #4]
 358 0040 0022     		movs	r2, #0
 359 0042 1A63     		str	r2, [r3, #48]
 460:Drivers/STM32F4xx_HAL_Driver/Src/stm32f4xx_hal_i2c.c ****   hi2c->Mode          = HAL_I2C_MODE_NONE;
 360              		.loc 1 460 0
 361 0044 7B68     		ldr	r3, [r7, #4]
 362 0046 0022     		movs	r2, #0
 363 0048 83F83E20 		strb	r2, [r3, #62]
 461:Drivers/STM32F4xx_HAL_Driver/Src/stm32f4xx_hal_i2c.c **** 
 462:Drivers/STM32F4xx_HAL_Driver/Src/stm32f4xx_hal_i2c.c ****   /* Release Lock */
 463:Drivers/STM32F4xx_HAL_Driver/Src/stm32f4xx_hal_i2c.c ****   __HAL_UNLOCK(hi2c);
 364              		.loc 1 463 0
 365 004c 7B68     		ldr	r3, [r7, #4]
 366 004e 0022     		movs	r2, #0
 367 0050 83F83C20 		strb	r2, [r3, #60]
 464:Drivers/STM32F4xx_HAL_Driver/Src/stm32f4xx_hal_i2c.c **** 
 465:Drivers/STM32F4xx_HAL_Driver/Src/stm32f4xx_hal_i2c.c ****   return HAL_OK;
 368              		.loc 1 465 0
 369 0054 0023     		movs	r3, #0
 370              	.L21:
 466:Drivers/STM32F4xx_HAL_Driver/Src/stm32f4xx_hal_i2c.c **** }
 371              		.loc 1 466 0
 372 0056 1846     		mov	r0, r3
 373 0058 0837     		adds	r7, r7, #8
 374              	.LCFI8:
 375              		.cfi_def_cfa_offset 8
 376 005a BD46     		mov	sp, r7
 377              	.LCFI9:
 378              		.cfi_def_cfa_register 13
 379              		@ sp needed
 380 005c 80BD     		pop	{r7, pc}
 381              		.cfi_endproc
 382              	.LFE127:
 384 005e 00BF     		.section	.text.HAL_I2C_MspInit,"ax",%progbits
 385              		.align	2
 386              		.weak	HAL_I2C_MspInit
 387              		.thumb
 388              		.thumb_func
 390              	HAL_I2C_MspInit:
 391              	.LFB128:
 467:Drivers/STM32F4xx_HAL_Driver/Src/stm32f4xx_hal_i2c.c **** 
 468:Drivers/STM32F4xx_HAL_Driver/Src/stm32f4xx_hal_i2c.c **** /**
 469:Drivers/STM32F4xx_HAL_Driver/Src/stm32f4xx_hal_i2c.c ****   * @brief I2C MSP Init.
ARM GAS  /tmp/cc3ELaEI.s 			page 16


 470:Drivers/STM32F4xx_HAL_Driver/Src/stm32f4xx_hal_i2c.c ****   * @param  hi2c: pointer to a I2C_HandleTypeDef structure that contains
 471:Drivers/STM32F4xx_HAL_Driver/Src/stm32f4xx_hal_i2c.c ****   *         the configuration information for I2C module
 472:Drivers/STM32F4xx_HAL_Driver/Src/stm32f4xx_hal_i2c.c ****   * @retval None
 473:Drivers/STM32F4xx_HAL_Driver/Src/stm32f4xx_hal_i2c.c ****   */
 474:Drivers/STM32F4xx_HAL_Driver/Src/stm32f4xx_hal_i2c.c ****  __weak void HAL_I2C_MspInit(I2C_HandleTypeDef *hi2c)
 475:Drivers/STM32F4xx_HAL_Driver/Src/stm32f4xx_hal_i2c.c **** {
 392              		.loc 1 475 0
 393              		.cfi_startproc
 394              		@ args = 0, pretend = 0, frame = 8
 395              		@ frame_needed = 1, uses_anonymous_args = 0
 396              		@ link register save eliminated.
 397 0000 80B4     		push	{r7}
 398              	.LCFI10:
 399              		.cfi_def_cfa_offset 4
 400              		.cfi_offset 7, -4
 401 0002 83B0     		sub	sp, sp, #12
 402              	.LCFI11:
 403              		.cfi_def_cfa_offset 16
 404 0004 00AF     		add	r7, sp, #0
 405              	.LCFI12:
 406              		.cfi_def_cfa_register 7
 407 0006 7860     		str	r0, [r7, #4]
 476:Drivers/STM32F4xx_HAL_Driver/Src/stm32f4xx_hal_i2c.c ****   /* Prevent unused argument(s) compilation warning */
 477:Drivers/STM32F4xx_HAL_Driver/Src/stm32f4xx_hal_i2c.c ****   UNUSED(hi2c);
 478:Drivers/STM32F4xx_HAL_Driver/Src/stm32f4xx_hal_i2c.c ****   /* NOTE : This function Should not be modified, when the callback is needed,
 479:Drivers/STM32F4xx_HAL_Driver/Src/stm32f4xx_hal_i2c.c ****             the HAL_I2C_MspInit could be implemented in the user file
 480:Drivers/STM32F4xx_HAL_Driver/Src/stm32f4xx_hal_i2c.c ****    */
 481:Drivers/STM32F4xx_HAL_Driver/Src/stm32f4xx_hal_i2c.c **** }
 408              		.loc 1 481 0
 409 0008 00BF     		nop
 410 000a 0C37     		adds	r7, r7, #12
 411              	.LCFI13:
 412              		.cfi_def_cfa_offset 4
 413 000c BD46     		mov	sp, r7
 414              	.LCFI14:
 415              		.cfi_def_cfa_register 13
 416              		@ sp needed
 417 000e 5DF8047B 		ldr	r7, [sp], #4
 418              	.LCFI15:
 419              		.cfi_restore 7
 420              		.cfi_def_cfa_offset 0
 421 0012 7047     		bx	lr
 422              		.cfi_endproc
 423              	.LFE128:
 425              		.section	.text.HAL_I2C_MspDeInit,"ax",%progbits
 426              		.align	2
 427              		.weak	HAL_I2C_MspDeInit
 428              		.thumb
 429              		.thumb_func
 431              	HAL_I2C_MspDeInit:
 432              	.LFB129:
 482:Drivers/STM32F4xx_HAL_Driver/Src/stm32f4xx_hal_i2c.c **** 
 483:Drivers/STM32F4xx_HAL_Driver/Src/stm32f4xx_hal_i2c.c **** /**
 484:Drivers/STM32F4xx_HAL_Driver/Src/stm32f4xx_hal_i2c.c ****   * @brief I2C MSP DeInit
 485:Drivers/STM32F4xx_HAL_Driver/Src/stm32f4xx_hal_i2c.c ****   * @param  hi2c: pointer to a I2C_HandleTypeDef structure that contains
 486:Drivers/STM32F4xx_HAL_Driver/Src/stm32f4xx_hal_i2c.c ****   *         the configuration information for I2C module
 487:Drivers/STM32F4xx_HAL_Driver/Src/stm32f4xx_hal_i2c.c ****   * @retval None
ARM GAS  /tmp/cc3ELaEI.s 			page 17


 488:Drivers/STM32F4xx_HAL_Driver/Src/stm32f4xx_hal_i2c.c ****   */
 489:Drivers/STM32F4xx_HAL_Driver/Src/stm32f4xx_hal_i2c.c ****  __weak void HAL_I2C_MspDeInit(I2C_HandleTypeDef *hi2c)
 490:Drivers/STM32F4xx_HAL_Driver/Src/stm32f4xx_hal_i2c.c **** {
 433              		.loc 1 490 0
 434              		.cfi_startproc
 435              		@ args = 0, pretend = 0, frame = 8
 436              		@ frame_needed = 1, uses_anonymous_args = 0
 437              		@ link register save eliminated.
 438 0000 80B4     		push	{r7}
 439              	.LCFI16:
 440              		.cfi_def_cfa_offset 4
 441              		.cfi_offset 7, -4
 442 0002 83B0     		sub	sp, sp, #12
 443              	.LCFI17:
 444              		.cfi_def_cfa_offset 16
 445 0004 00AF     		add	r7, sp, #0
 446              	.LCFI18:
 447              		.cfi_def_cfa_register 7
 448 0006 7860     		str	r0, [r7, #4]
 491:Drivers/STM32F4xx_HAL_Driver/Src/stm32f4xx_hal_i2c.c ****   /* Prevent unused argument(s) compilation warning */
 492:Drivers/STM32F4xx_HAL_Driver/Src/stm32f4xx_hal_i2c.c ****   UNUSED(hi2c);
 493:Drivers/STM32F4xx_HAL_Driver/Src/stm32f4xx_hal_i2c.c ****   /* NOTE : This function Should not be modified, when the callback is needed,
 494:Drivers/STM32F4xx_HAL_Driver/Src/stm32f4xx_hal_i2c.c ****             the HAL_I2C_MspDeInit could be implemented in the user file
 495:Drivers/STM32F4xx_HAL_Driver/Src/stm32f4xx_hal_i2c.c ****    */
 496:Drivers/STM32F4xx_HAL_Driver/Src/stm32f4xx_hal_i2c.c **** }
 449              		.loc 1 496 0
 450 0008 00BF     		nop
 451 000a 0C37     		adds	r7, r7, #12
 452              	.LCFI19:
 453              		.cfi_def_cfa_offset 4
 454 000c BD46     		mov	sp, r7
 455              	.LCFI20:
 456              		.cfi_def_cfa_register 13
 457              		@ sp needed
 458 000e 5DF8047B 		ldr	r7, [sp], #4
 459              	.LCFI21:
 460              		.cfi_restore 7
 461              		.cfi_def_cfa_offset 0
 462 0012 7047     		bx	lr
 463              		.cfi_endproc
 464              	.LFE129:
 466              		.section	.text.HAL_I2C_Master_Transmit,"ax",%progbits
 467              		.align	2
 468              		.global	HAL_I2C_Master_Transmit
 469              		.thumb
 470              		.thumb_func
 472              	HAL_I2C_Master_Transmit:
 473              	.LFB130:
 497:Drivers/STM32F4xx_HAL_Driver/Src/stm32f4xx_hal_i2c.c **** 
 498:Drivers/STM32F4xx_HAL_Driver/Src/stm32f4xx_hal_i2c.c **** /**
 499:Drivers/STM32F4xx_HAL_Driver/Src/stm32f4xx_hal_i2c.c ****   * @}
 500:Drivers/STM32F4xx_HAL_Driver/Src/stm32f4xx_hal_i2c.c ****   */
 501:Drivers/STM32F4xx_HAL_Driver/Src/stm32f4xx_hal_i2c.c **** 
 502:Drivers/STM32F4xx_HAL_Driver/Src/stm32f4xx_hal_i2c.c **** /** @defgroup I2C_Exported_Functions_Group2 IO operation functions
 503:Drivers/STM32F4xx_HAL_Driver/Src/stm32f4xx_hal_i2c.c ****  *  @brief   Data transfers functions
 504:Drivers/STM32F4xx_HAL_Driver/Src/stm32f4xx_hal_i2c.c ****  *
 505:Drivers/STM32F4xx_HAL_Driver/Src/stm32f4xx_hal_i2c.c **** @verbatim
ARM GAS  /tmp/cc3ELaEI.s 			page 18


 506:Drivers/STM32F4xx_HAL_Driver/Src/stm32f4xx_hal_i2c.c ****  ===============================================================================
 507:Drivers/STM32F4xx_HAL_Driver/Src/stm32f4xx_hal_i2c.c ****                       ##### IO operation functions #####
 508:Drivers/STM32F4xx_HAL_Driver/Src/stm32f4xx_hal_i2c.c ****  ===============================================================================
 509:Drivers/STM32F4xx_HAL_Driver/Src/stm32f4xx_hal_i2c.c ****     [..]
 510:Drivers/STM32F4xx_HAL_Driver/Src/stm32f4xx_hal_i2c.c ****     This subsection provides a set of functions allowing to manage the I2C data
 511:Drivers/STM32F4xx_HAL_Driver/Src/stm32f4xx_hal_i2c.c ****     transfers.
 512:Drivers/STM32F4xx_HAL_Driver/Src/stm32f4xx_hal_i2c.c **** 
 513:Drivers/STM32F4xx_HAL_Driver/Src/stm32f4xx_hal_i2c.c ****     (#) There are two modes of transfer:
 514:Drivers/STM32F4xx_HAL_Driver/Src/stm32f4xx_hal_i2c.c ****        (++) Blocking mode : The communication is performed in the polling mode.
 515:Drivers/STM32F4xx_HAL_Driver/Src/stm32f4xx_hal_i2c.c ****             The status of all data processing is returned by the same function
 516:Drivers/STM32F4xx_HAL_Driver/Src/stm32f4xx_hal_i2c.c ****             after finishing transfer.
 517:Drivers/STM32F4xx_HAL_Driver/Src/stm32f4xx_hal_i2c.c ****        (++) No-Blocking mode : The communication is performed using Interrupts
 518:Drivers/STM32F4xx_HAL_Driver/Src/stm32f4xx_hal_i2c.c ****             or DMA. These functions return the status of the transfer startup.
 519:Drivers/STM32F4xx_HAL_Driver/Src/stm32f4xx_hal_i2c.c ****             The end of the data processing will be indicated through the
 520:Drivers/STM32F4xx_HAL_Driver/Src/stm32f4xx_hal_i2c.c ****             dedicated I2C IRQ when using Interrupt mode or the DMA IRQ when
 521:Drivers/STM32F4xx_HAL_Driver/Src/stm32f4xx_hal_i2c.c ****             using DMA mode.
 522:Drivers/STM32F4xx_HAL_Driver/Src/stm32f4xx_hal_i2c.c **** 
 523:Drivers/STM32F4xx_HAL_Driver/Src/stm32f4xx_hal_i2c.c ****     (#) Blocking mode functions are :
 524:Drivers/STM32F4xx_HAL_Driver/Src/stm32f4xx_hal_i2c.c ****         (++) HAL_I2C_Master_Transmit()
 525:Drivers/STM32F4xx_HAL_Driver/Src/stm32f4xx_hal_i2c.c ****         (++) HAL_I2C_Master_Receive()
 526:Drivers/STM32F4xx_HAL_Driver/Src/stm32f4xx_hal_i2c.c ****         (++) HAL_I2C_Slave_Transmit()
 527:Drivers/STM32F4xx_HAL_Driver/Src/stm32f4xx_hal_i2c.c ****         (++) HAL_I2C_Slave_Receive()
 528:Drivers/STM32F4xx_HAL_Driver/Src/stm32f4xx_hal_i2c.c ****         (++) HAL_I2C_Mem_Write()
 529:Drivers/STM32F4xx_HAL_Driver/Src/stm32f4xx_hal_i2c.c ****         (++) HAL_I2C_Mem_Read()
 530:Drivers/STM32F4xx_HAL_Driver/Src/stm32f4xx_hal_i2c.c ****         (++) HAL_I2C_IsDeviceReady()
 531:Drivers/STM32F4xx_HAL_Driver/Src/stm32f4xx_hal_i2c.c **** 
 532:Drivers/STM32F4xx_HAL_Driver/Src/stm32f4xx_hal_i2c.c ****     (#) No-Blocking mode functions with Interrupt are :
 533:Drivers/STM32F4xx_HAL_Driver/Src/stm32f4xx_hal_i2c.c ****         (++) HAL_I2C_Master_Transmit_IT()
 534:Drivers/STM32F4xx_HAL_Driver/Src/stm32f4xx_hal_i2c.c ****         (++) HAL_I2C_Master_Receive_IT()
 535:Drivers/STM32F4xx_HAL_Driver/Src/stm32f4xx_hal_i2c.c ****         (++) HAL_I2C_Slave_Transmit_IT()
 536:Drivers/STM32F4xx_HAL_Driver/Src/stm32f4xx_hal_i2c.c ****         (++) HAL_I2C_Slave_Receive_IT()
 537:Drivers/STM32F4xx_HAL_Driver/Src/stm32f4xx_hal_i2c.c ****         (++) HAL_I2C_Master_Sequential_Transmit_IT()
 538:Drivers/STM32F4xx_HAL_Driver/Src/stm32f4xx_hal_i2c.c ****         (++) HAL_I2C_Master_Sequential_Receive_IT()
 539:Drivers/STM32F4xx_HAL_Driver/Src/stm32f4xx_hal_i2c.c ****         (++) HAL_I2C_Slave_Sequential_Transmit_IT()
 540:Drivers/STM32F4xx_HAL_Driver/Src/stm32f4xx_hal_i2c.c ****         (++) HAL_I2C_Slave_Sequential_Receive_IT()
 541:Drivers/STM32F4xx_HAL_Driver/Src/stm32f4xx_hal_i2c.c ****         (++) HAL_I2C_Mem_Write_IT()
 542:Drivers/STM32F4xx_HAL_Driver/Src/stm32f4xx_hal_i2c.c ****         (++) HAL_I2C_Mem_Read_IT()
 543:Drivers/STM32F4xx_HAL_Driver/Src/stm32f4xx_hal_i2c.c **** 
 544:Drivers/STM32F4xx_HAL_Driver/Src/stm32f4xx_hal_i2c.c ****     (#) No-Blocking mode functions with DMA are :
 545:Drivers/STM32F4xx_HAL_Driver/Src/stm32f4xx_hal_i2c.c ****         (++) HAL_I2C_Master_Transmit_DMA()
 546:Drivers/STM32F4xx_HAL_Driver/Src/stm32f4xx_hal_i2c.c ****         (++) HAL_I2C_Master_Receive_DMA()
 547:Drivers/STM32F4xx_HAL_Driver/Src/stm32f4xx_hal_i2c.c ****         (++) HAL_I2C_Slave_Transmit_DMA()
 548:Drivers/STM32F4xx_HAL_Driver/Src/stm32f4xx_hal_i2c.c ****         (++) HAL_I2C_Slave_Receive_DMA()
 549:Drivers/STM32F4xx_HAL_Driver/Src/stm32f4xx_hal_i2c.c ****         (++) HAL_I2C_Mem_Write_DMA()
 550:Drivers/STM32F4xx_HAL_Driver/Src/stm32f4xx_hal_i2c.c ****         (++) HAL_I2C_Mem_Read_DMA()
 551:Drivers/STM32F4xx_HAL_Driver/Src/stm32f4xx_hal_i2c.c **** 
 552:Drivers/STM32F4xx_HAL_Driver/Src/stm32f4xx_hal_i2c.c ****     (#) A set of Transfer Complete Callbacks are provided in non Blocking mode:
 553:Drivers/STM32F4xx_HAL_Driver/Src/stm32f4xx_hal_i2c.c ****         (++) HAL_I2C_MemTxCpltCallback()
 554:Drivers/STM32F4xx_HAL_Driver/Src/stm32f4xx_hal_i2c.c ****         (++) HAL_I2C_MemRxCpltCallback()
 555:Drivers/STM32F4xx_HAL_Driver/Src/stm32f4xx_hal_i2c.c ****         (++) HAL_I2C_MasterTxCpltCallback()
 556:Drivers/STM32F4xx_HAL_Driver/Src/stm32f4xx_hal_i2c.c ****         (++) HAL_I2C_MasterRxCpltCallback()
 557:Drivers/STM32F4xx_HAL_Driver/Src/stm32f4xx_hal_i2c.c ****         (++) HAL_I2C_SlaveTxCpltCallback()
 558:Drivers/STM32F4xx_HAL_Driver/Src/stm32f4xx_hal_i2c.c ****         (++) HAL_I2C_SlaveRxCpltCallback()
 559:Drivers/STM32F4xx_HAL_Driver/Src/stm32f4xx_hal_i2c.c ****         (++) HAL_I2C_ErrorCallback()
 560:Drivers/STM32F4xx_HAL_Driver/Src/stm32f4xx_hal_i2c.c ****         (++) HAL_I2C_AbortCpltCallback()
 561:Drivers/STM32F4xx_HAL_Driver/Src/stm32f4xx_hal_i2c.c **** 
 562:Drivers/STM32F4xx_HAL_Driver/Src/stm32f4xx_hal_i2c.c **** @endverbatim
ARM GAS  /tmp/cc3ELaEI.s 			page 19


 563:Drivers/STM32F4xx_HAL_Driver/Src/stm32f4xx_hal_i2c.c ****   * @{
 564:Drivers/STM32F4xx_HAL_Driver/Src/stm32f4xx_hal_i2c.c ****   */
 565:Drivers/STM32F4xx_HAL_Driver/Src/stm32f4xx_hal_i2c.c **** 
 566:Drivers/STM32F4xx_HAL_Driver/Src/stm32f4xx_hal_i2c.c **** /**
 567:Drivers/STM32F4xx_HAL_Driver/Src/stm32f4xx_hal_i2c.c ****   * @brief  Transmits in master mode an amount of data in blocking mode.
 568:Drivers/STM32F4xx_HAL_Driver/Src/stm32f4xx_hal_i2c.c ****   * @param  hi2c Pointer to a I2C_HandleTypeDef structure that contains
 569:Drivers/STM32F4xx_HAL_Driver/Src/stm32f4xx_hal_i2c.c ****   *                the configuration information for the specified I2C.
 570:Drivers/STM32F4xx_HAL_Driver/Src/stm32f4xx_hal_i2c.c ****   * @param  DevAddress Target device address: The device 7 bits address value
 571:Drivers/STM32F4xx_HAL_Driver/Src/stm32f4xx_hal_i2c.c ****   *         in datasheet must be shift at right before call interface
 572:Drivers/STM32F4xx_HAL_Driver/Src/stm32f4xx_hal_i2c.c ****   * @param  pData Pointer to data buffer
 573:Drivers/STM32F4xx_HAL_Driver/Src/stm32f4xx_hal_i2c.c ****   * @param  Size Amount of data to be sent
 574:Drivers/STM32F4xx_HAL_Driver/Src/stm32f4xx_hal_i2c.c ****   * @param  Timeout Timeout duration
 575:Drivers/STM32F4xx_HAL_Driver/Src/stm32f4xx_hal_i2c.c ****   * @retval HAL status
 576:Drivers/STM32F4xx_HAL_Driver/Src/stm32f4xx_hal_i2c.c ****   */
 577:Drivers/STM32F4xx_HAL_Driver/Src/stm32f4xx_hal_i2c.c **** HAL_StatusTypeDef HAL_I2C_Master_Transmit(I2C_HandleTypeDef *hi2c, uint16_t DevAddress, uint8_t *pD
 578:Drivers/STM32F4xx_HAL_Driver/Src/stm32f4xx_hal_i2c.c **** {
 474              		.loc 1 578 0
 475              		.cfi_startproc
 476              		@ args = 4, pretend = 0, frame = 24
 477              		@ frame_needed = 1, uses_anonymous_args = 0
 478 0000 80B5     		push	{r7, lr}
 479              	.LCFI22:
 480              		.cfi_def_cfa_offset 8
 481              		.cfi_offset 7, -8
 482              		.cfi_offset 14, -4
 483 0002 88B0     		sub	sp, sp, #32
 484              	.LCFI23:
 485              		.cfi_def_cfa_offset 40
 486 0004 02AF     		add	r7, sp, #8
 487              	.LCFI24:
 488              		.cfi_def_cfa 7, 32
 489 0006 F860     		str	r0, [r7, #12]
 490 0008 7A60     		str	r2, [r7, #4]
 491 000a 1A46     		mov	r2, r3
 492 000c 0B46     		mov	r3, r1	@ movhi
 493 000e 7B81     		strh	r3, [r7, #10]	@ movhi
 494 0010 1346     		mov	r3, r2	@ movhi
 495 0012 3B81     		strh	r3, [r7, #8]	@ movhi
 579:Drivers/STM32F4xx_HAL_Driver/Src/stm32f4xx_hal_i2c.c ****   uint32_t tickstart = 0x00U;
 496              		.loc 1 579 0
 497 0014 0023     		movs	r3, #0
 498 0016 7B61     		str	r3, [r7, #20]
 580:Drivers/STM32F4xx_HAL_Driver/Src/stm32f4xx_hal_i2c.c **** 
 581:Drivers/STM32F4xx_HAL_Driver/Src/stm32f4xx_hal_i2c.c ****   /* Init tickstart for timeout management*/
 582:Drivers/STM32F4xx_HAL_Driver/Src/stm32f4xx_hal_i2c.c ****   tickstart = HAL_GetTick();
 499              		.loc 1 582 0
 500 0018 FFF7FEFF 		bl	HAL_GetTick
 501 001c 7861     		str	r0, [r7, #20]
 583:Drivers/STM32F4xx_HAL_Driver/Src/stm32f4xx_hal_i2c.c **** 
 584:Drivers/STM32F4xx_HAL_Driver/Src/stm32f4xx_hal_i2c.c ****   if(hi2c->State == HAL_I2C_STATE_READY)
 502              		.loc 1 584 0
 503 001e FB68     		ldr	r3, [r7, #12]
 504 0020 93F83D30 		ldrb	r3, [r3, #61]
 505 0024 DBB2     		uxtb	r3, r3
 506 0026 202B     		cmp	r3, #32
 507 0028 40F0ED80 		bne	.L25
 585:Drivers/STM32F4xx_HAL_Driver/Src/stm32f4xx_hal_i2c.c ****   {
ARM GAS  /tmp/cc3ELaEI.s 			page 20


 586:Drivers/STM32F4xx_HAL_Driver/Src/stm32f4xx_hal_i2c.c ****     /* Wait until BUSY flag is reset */
 587:Drivers/STM32F4xx_HAL_Driver/Src/stm32f4xx_hal_i2c.c ****     if(I2C_WaitOnFlagUntilTimeout(hi2c, I2C_FLAG_BUSY, SET, I2C_TIMEOUT_BUSY_FLAG, tickstart) != HA
 508              		.loc 1 587 0
 509 002c 7B69     		ldr	r3, [r7, #20]
 510 002e 0093     		str	r3, [sp]
 511 0030 1923     		movs	r3, #25
 512 0032 0122     		movs	r2, #1
 513 0034 7649     		ldr	r1, .L38
 514 0036 F868     		ldr	r0, [r7, #12]
 515 0038 FFF7FEFF 		bl	I2C_WaitOnFlagUntilTimeout
 516 003c 0346     		mov	r3, r0
 517 003e 002B     		cmp	r3, #0
 518 0040 01D0     		beq	.L26
 588:Drivers/STM32F4xx_HAL_Driver/Src/stm32f4xx_hal_i2c.c ****     {
 589:Drivers/STM32F4xx_HAL_Driver/Src/stm32f4xx_hal_i2c.c ****       return HAL_BUSY;
 519              		.loc 1 589 0
 520 0042 0223     		movs	r3, #2
 521 0044 E0E0     		b	.L27
 522              	.L26:
 590:Drivers/STM32F4xx_HAL_Driver/Src/stm32f4xx_hal_i2c.c ****     }
 591:Drivers/STM32F4xx_HAL_Driver/Src/stm32f4xx_hal_i2c.c **** 
 592:Drivers/STM32F4xx_HAL_Driver/Src/stm32f4xx_hal_i2c.c ****     /* Process Locked */
 593:Drivers/STM32F4xx_HAL_Driver/Src/stm32f4xx_hal_i2c.c ****     __HAL_LOCK(hi2c);
 523              		.loc 1 593 0
 524 0046 FB68     		ldr	r3, [r7, #12]
 525 0048 93F83C30 		ldrb	r3, [r3, #60]	@ zero_extendqisi2
 526 004c 012B     		cmp	r3, #1
 527 004e 01D1     		bne	.L28
 528              		.loc 1 593 0 is_stmt 0 discriminator 1
 529 0050 0223     		movs	r3, #2
 530 0052 D9E0     		b	.L27
 531              	.L28:
 532              		.loc 1 593 0 discriminator 2
 533 0054 FB68     		ldr	r3, [r7, #12]
 534 0056 0122     		movs	r2, #1
 535 0058 83F83C20 		strb	r2, [r3, #60]
 594:Drivers/STM32F4xx_HAL_Driver/Src/stm32f4xx_hal_i2c.c **** 
 595:Drivers/STM32F4xx_HAL_Driver/Src/stm32f4xx_hal_i2c.c ****     /* Check if the I2C is already enabled */
 596:Drivers/STM32F4xx_HAL_Driver/Src/stm32f4xx_hal_i2c.c ****     if((hi2c->Instance->CR1 & I2C_CR1_PE) != I2C_CR1_PE)
 536              		.loc 1 596 0 is_stmt 1 discriminator 2
 537 005c FB68     		ldr	r3, [r7, #12]
 538 005e 1B68     		ldr	r3, [r3]
 539 0060 1B68     		ldr	r3, [r3]
 540 0062 03F00103 		and	r3, r3, #1
 541 0066 002B     		cmp	r3, #0
 542 0068 07D1     		bne	.L29
 597:Drivers/STM32F4xx_HAL_Driver/Src/stm32f4xx_hal_i2c.c ****     {
 598:Drivers/STM32F4xx_HAL_Driver/Src/stm32f4xx_hal_i2c.c ****       /* Enable I2C peripheral */
 599:Drivers/STM32F4xx_HAL_Driver/Src/stm32f4xx_hal_i2c.c ****       __HAL_I2C_ENABLE(hi2c);
 543              		.loc 1 599 0
 544 006a FB68     		ldr	r3, [r7, #12]
 545 006c 1B68     		ldr	r3, [r3]
 546 006e FA68     		ldr	r2, [r7, #12]
 547 0070 1268     		ldr	r2, [r2]
 548 0072 1268     		ldr	r2, [r2]
 549 0074 42F00102 		orr	r2, r2, #1
 550 0078 1A60     		str	r2, [r3]
ARM GAS  /tmp/cc3ELaEI.s 			page 21


 551              	.L29:
 600:Drivers/STM32F4xx_HAL_Driver/Src/stm32f4xx_hal_i2c.c ****     }
 601:Drivers/STM32F4xx_HAL_Driver/Src/stm32f4xx_hal_i2c.c **** 
 602:Drivers/STM32F4xx_HAL_Driver/Src/stm32f4xx_hal_i2c.c ****     /* Disable Pos */
 603:Drivers/STM32F4xx_HAL_Driver/Src/stm32f4xx_hal_i2c.c ****     hi2c->Instance->CR1 &= ~I2C_CR1_POS;
 552              		.loc 1 603 0
 553 007a FB68     		ldr	r3, [r7, #12]
 554 007c 1B68     		ldr	r3, [r3]
 555 007e FA68     		ldr	r2, [r7, #12]
 556 0080 1268     		ldr	r2, [r2]
 557 0082 1268     		ldr	r2, [r2]
 558 0084 22F40062 		bic	r2, r2, #2048
 559 0088 1A60     		str	r2, [r3]
 604:Drivers/STM32F4xx_HAL_Driver/Src/stm32f4xx_hal_i2c.c **** 
 605:Drivers/STM32F4xx_HAL_Driver/Src/stm32f4xx_hal_i2c.c ****     hi2c->State     = HAL_I2C_STATE_BUSY_TX;
 560              		.loc 1 605 0
 561 008a FB68     		ldr	r3, [r7, #12]
 562 008c 2122     		movs	r2, #33
 563 008e 83F83D20 		strb	r2, [r3, #61]
 606:Drivers/STM32F4xx_HAL_Driver/Src/stm32f4xx_hal_i2c.c ****     hi2c->Mode      = HAL_I2C_MODE_MASTER;
 564              		.loc 1 606 0
 565 0092 FB68     		ldr	r3, [r7, #12]
 566 0094 1022     		movs	r2, #16
 567 0096 83F83E20 		strb	r2, [r3, #62]
 607:Drivers/STM32F4xx_HAL_Driver/Src/stm32f4xx_hal_i2c.c ****     hi2c->ErrorCode = HAL_I2C_ERROR_NONE;
 568              		.loc 1 607 0
 569 009a FB68     		ldr	r3, [r7, #12]
 570 009c 0022     		movs	r2, #0
 571 009e 1A64     		str	r2, [r3, #64]
 608:Drivers/STM32F4xx_HAL_Driver/Src/stm32f4xx_hal_i2c.c **** 
 609:Drivers/STM32F4xx_HAL_Driver/Src/stm32f4xx_hal_i2c.c ****     /* Prepare transfer parameters */
 610:Drivers/STM32F4xx_HAL_Driver/Src/stm32f4xx_hal_i2c.c ****     hi2c->pBuffPtr    = pData;
 572              		.loc 1 610 0
 573 00a0 FB68     		ldr	r3, [r7, #12]
 574 00a2 7A68     		ldr	r2, [r7, #4]
 575 00a4 5A62     		str	r2, [r3, #36]
 611:Drivers/STM32F4xx_HAL_Driver/Src/stm32f4xx_hal_i2c.c ****     hi2c->XferCount   = Size;
 576              		.loc 1 611 0
 577 00a6 FB68     		ldr	r3, [r7, #12]
 578 00a8 3A89     		ldrh	r2, [r7, #8]	@ movhi
 579 00aa 5A85     		strh	r2, [r3, #42]	@ movhi
 612:Drivers/STM32F4xx_HAL_Driver/Src/stm32f4xx_hal_i2c.c ****     hi2c->XferOptions = I2C_NO_OPTION_FRAME;
 580              		.loc 1 612 0
 581 00ac FB68     		ldr	r3, [r7, #12]
 582 00ae 594A     		ldr	r2, .L38+4
 583 00b0 DA62     		str	r2, [r3, #44]
 613:Drivers/STM32F4xx_HAL_Driver/Src/stm32f4xx_hal_i2c.c ****     hi2c->XferSize    = hi2c->XferCount;
 584              		.loc 1 613 0
 585 00b2 FB68     		ldr	r3, [r7, #12]
 586 00b4 5B8D     		ldrh	r3, [r3, #42]	@ movhi
 587 00b6 9AB2     		uxth	r2, r3
 588 00b8 FB68     		ldr	r3, [r7, #12]
 589 00ba 1A85     		strh	r2, [r3, #40]	@ movhi
 614:Drivers/STM32F4xx_HAL_Driver/Src/stm32f4xx_hal_i2c.c **** 
 615:Drivers/STM32F4xx_HAL_Driver/Src/stm32f4xx_hal_i2c.c ****     /* Send Slave Address */
 616:Drivers/STM32F4xx_HAL_Driver/Src/stm32f4xx_hal_i2c.c ****     if(I2C_MasterRequestWrite(hi2c, DevAddress, Timeout, tickstart) != HAL_OK)
 590              		.loc 1 616 0
ARM GAS  /tmp/cc3ELaEI.s 			page 22


 591 00bc 7989     		ldrh	r1, [r7, #10]
 592 00be 7B69     		ldr	r3, [r7, #20]
 593 00c0 3A6A     		ldr	r2, [r7, #32]
 594 00c2 F868     		ldr	r0, [r7, #12]
 595 00c4 FFF7FEFF 		bl	I2C_MasterRequestWrite
 596 00c8 0346     		mov	r3, r0
 597 00ca 002B     		cmp	r3, #0
 598 00cc 0FD0     		beq	.L30
 617:Drivers/STM32F4xx_HAL_Driver/Src/stm32f4xx_hal_i2c.c ****     {
 618:Drivers/STM32F4xx_HAL_Driver/Src/stm32f4xx_hal_i2c.c ****       if(hi2c->ErrorCode == HAL_I2C_ERROR_AF)
 599              		.loc 1 618 0
 600 00ce FB68     		ldr	r3, [r7, #12]
 601 00d0 1B6C     		ldr	r3, [r3, #64]
 602 00d2 042B     		cmp	r3, #4
 603 00d4 05D1     		bne	.L31
 619:Drivers/STM32F4xx_HAL_Driver/Src/stm32f4xx_hal_i2c.c ****       {
 620:Drivers/STM32F4xx_HAL_Driver/Src/stm32f4xx_hal_i2c.c ****         /* Process Unlocked */
 621:Drivers/STM32F4xx_HAL_Driver/Src/stm32f4xx_hal_i2c.c ****         __HAL_UNLOCK(hi2c);
 604              		.loc 1 621 0
 605 00d6 FB68     		ldr	r3, [r7, #12]
 606 00d8 0022     		movs	r2, #0
 607 00da 83F83C20 		strb	r2, [r3, #60]
 622:Drivers/STM32F4xx_HAL_Driver/Src/stm32f4xx_hal_i2c.c ****         return HAL_ERROR;
 608              		.loc 1 622 0
 609 00de 0123     		movs	r3, #1
 610 00e0 92E0     		b	.L27
 611              	.L31:
 623:Drivers/STM32F4xx_HAL_Driver/Src/stm32f4xx_hal_i2c.c ****       }
 624:Drivers/STM32F4xx_HAL_Driver/Src/stm32f4xx_hal_i2c.c ****       else
 625:Drivers/STM32F4xx_HAL_Driver/Src/stm32f4xx_hal_i2c.c ****       {
 626:Drivers/STM32F4xx_HAL_Driver/Src/stm32f4xx_hal_i2c.c ****         /* Process Unlocked */
 627:Drivers/STM32F4xx_HAL_Driver/Src/stm32f4xx_hal_i2c.c ****         __HAL_UNLOCK(hi2c);
 612              		.loc 1 627 0
 613 00e2 FB68     		ldr	r3, [r7, #12]
 614 00e4 0022     		movs	r2, #0
 615 00e6 83F83C20 		strb	r2, [r3, #60]
 628:Drivers/STM32F4xx_HAL_Driver/Src/stm32f4xx_hal_i2c.c ****         return HAL_TIMEOUT;
 616              		.loc 1 628 0
 617 00ea 0323     		movs	r3, #3
 618 00ec 8CE0     		b	.L27
 619              	.L30:
 620              	.LBB2:
 629:Drivers/STM32F4xx_HAL_Driver/Src/stm32f4xx_hal_i2c.c ****       }
 630:Drivers/STM32F4xx_HAL_Driver/Src/stm32f4xx_hal_i2c.c ****     }
 631:Drivers/STM32F4xx_HAL_Driver/Src/stm32f4xx_hal_i2c.c **** 
 632:Drivers/STM32F4xx_HAL_Driver/Src/stm32f4xx_hal_i2c.c ****     /* Clear ADDR flag */
 633:Drivers/STM32F4xx_HAL_Driver/Src/stm32f4xx_hal_i2c.c ****     __HAL_I2C_CLEAR_ADDRFLAG(hi2c);
 621              		.loc 1 633 0
 622 00ee 0023     		movs	r3, #0
 623 00f0 3B61     		str	r3, [r7, #16]
 624 00f2 FB68     		ldr	r3, [r7, #12]
 625 00f4 1B68     		ldr	r3, [r3]
 626 00f6 5B69     		ldr	r3, [r3, #20]
 627 00f8 3B61     		str	r3, [r7, #16]
 628 00fa FB68     		ldr	r3, [r7, #12]
 629 00fc 1B68     		ldr	r3, [r3]
 630 00fe 9B69     		ldr	r3, [r3, #24]
ARM GAS  /tmp/cc3ELaEI.s 			page 23


 631 0100 3B61     		str	r3, [r7, #16]
 632 0102 3B69     		ldr	r3, [r7, #16]
 633              	.LBE2:
 634:Drivers/STM32F4xx_HAL_Driver/Src/stm32f4xx_hal_i2c.c **** 
 635:Drivers/STM32F4xx_HAL_Driver/Src/stm32f4xx_hal_i2c.c ****     while(hi2c->XferSize > 0U)
 634              		.loc 1 635 0
 635 0104 65E0     		b	.L32
 636              	.L37:
 636:Drivers/STM32F4xx_HAL_Driver/Src/stm32f4xx_hal_i2c.c ****     {
 637:Drivers/STM32F4xx_HAL_Driver/Src/stm32f4xx_hal_i2c.c ****       /* Wait until TXE flag is set */
 638:Drivers/STM32F4xx_HAL_Driver/Src/stm32f4xx_hal_i2c.c ****       if(I2C_WaitOnTXEFlagUntilTimeout(hi2c, Timeout, tickstart) != HAL_OK)
 637              		.loc 1 638 0
 638 0106 7A69     		ldr	r2, [r7, #20]
 639 0108 396A     		ldr	r1, [r7, #32]
 640 010a F868     		ldr	r0, [r7, #12]
 641 010c FFF7FEFF 		bl	I2C_WaitOnTXEFlagUntilTimeout
 642 0110 0346     		mov	r3, r0
 643 0112 002B     		cmp	r3, #0
 644 0114 0FD0     		beq	.L33
 639:Drivers/STM32F4xx_HAL_Driver/Src/stm32f4xx_hal_i2c.c ****       {
 640:Drivers/STM32F4xx_HAL_Driver/Src/stm32f4xx_hal_i2c.c ****         if(hi2c->ErrorCode == HAL_I2C_ERROR_AF)
 645              		.loc 1 640 0
 646 0116 FB68     		ldr	r3, [r7, #12]
 647 0118 1B6C     		ldr	r3, [r3, #64]
 648 011a 042B     		cmp	r3, #4
 649 011c 09D1     		bne	.L34
 641:Drivers/STM32F4xx_HAL_Driver/Src/stm32f4xx_hal_i2c.c ****         {
 642:Drivers/STM32F4xx_HAL_Driver/Src/stm32f4xx_hal_i2c.c ****           /* Generate Stop */
 643:Drivers/STM32F4xx_HAL_Driver/Src/stm32f4xx_hal_i2c.c ****           hi2c->Instance->CR1 |= I2C_CR1_STOP;
 650              		.loc 1 643 0
 651 011e FB68     		ldr	r3, [r7, #12]
 652 0120 1B68     		ldr	r3, [r3]
 653 0122 FA68     		ldr	r2, [r7, #12]
 654 0124 1268     		ldr	r2, [r2]
 655 0126 1268     		ldr	r2, [r2]
 656 0128 42F40072 		orr	r2, r2, #512
 657 012c 1A60     		str	r2, [r3]
 644:Drivers/STM32F4xx_HAL_Driver/Src/stm32f4xx_hal_i2c.c ****           return HAL_ERROR;
 658              		.loc 1 644 0
 659 012e 0123     		movs	r3, #1
 660 0130 6AE0     		b	.L27
 661              	.L34:
 645:Drivers/STM32F4xx_HAL_Driver/Src/stm32f4xx_hal_i2c.c ****         }
 646:Drivers/STM32F4xx_HAL_Driver/Src/stm32f4xx_hal_i2c.c ****         else
 647:Drivers/STM32F4xx_HAL_Driver/Src/stm32f4xx_hal_i2c.c ****         {
 648:Drivers/STM32F4xx_HAL_Driver/Src/stm32f4xx_hal_i2c.c ****           return HAL_TIMEOUT;
 662              		.loc 1 648 0
 663 0132 0323     		movs	r3, #3
 664 0134 68E0     		b	.L27
 665              	.L33:
 649:Drivers/STM32F4xx_HAL_Driver/Src/stm32f4xx_hal_i2c.c ****         }
 650:Drivers/STM32F4xx_HAL_Driver/Src/stm32f4xx_hal_i2c.c ****       }
 651:Drivers/STM32F4xx_HAL_Driver/Src/stm32f4xx_hal_i2c.c **** 
 652:Drivers/STM32F4xx_HAL_Driver/Src/stm32f4xx_hal_i2c.c ****       /* Write data to DR */
 653:Drivers/STM32F4xx_HAL_Driver/Src/stm32f4xx_hal_i2c.c ****       hi2c->Instance->DR = (*hi2c->pBuffPtr++);
 666              		.loc 1 653 0
 667 0136 FB68     		ldr	r3, [r7, #12]
ARM GAS  /tmp/cc3ELaEI.s 			page 24


 668 0138 1A68     		ldr	r2, [r3]
 669 013a FB68     		ldr	r3, [r7, #12]
 670 013c 5B6A     		ldr	r3, [r3, #36]
 671 013e 581C     		adds	r0, r3, #1
 672 0140 F968     		ldr	r1, [r7, #12]
 673 0142 4862     		str	r0, [r1, #36]
 674 0144 1B78     		ldrb	r3, [r3]	@ zero_extendqisi2
 675 0146 1361     		str	r3, [r2, #16]
 654:Drivers/STM32F4xx_HAL_Driver/Src/stm32f4xx_hal_i2c.c ****       hi2c->XferCount--;
 676              		.loc 1 654 0
 677 0148 FB68     		ldr	r3, [r7, #12]
 678 014a 5B8D     		ldrh	r3, [r3, #42]	@ movhi
 679 014c 9BB2     		uxth	r3, r3
 680 014e 013B     		subs	r3, r3, #1
 681 0150 9AB2     		uxth	r2, r3
 682 0152 FB68     		ldr	r3, [r7, #12]
 683 0154 5A85     		strh	r2, [r3, #42]	@ movhi
 655:Drivers/STM32F4xx_HAL_Driver/Src/stm32f4xx_hal_i2c.c ****       hi2c->XferSize--;
 684              		.loc 1 655 0
 685 0156 FB68     		ldr	r3, [r7, #12]
 686 0158 1B8D     		ldrh	r3, [r3, #40]
 687 015a 013B     		subs	r3, r3, #1
 688 015c 9AB2     		uxth	r2, r3
 689 015e FB68     		ldr	r3, [r7, #12]
 690 0160 1A85     		strh	r2, [r3, #40]	@ movhi
 656:Drivers/STM32F4xx_HAL_Driver/Src/stm32f4xx_hal_i2c.c **** 
 657:Drivers/STM32F4xx_HAL_Driver/Src/stm32f4xx_hal_i2c.c ****       if((__HAL_I2C_GET_FLAG(hi2c, I2C_FLAG_BTF) == SET) && (Size != 0U))
 691              		.loc 1 657 0
 692 0162 FB68     		ldr	r3, [r7, #12]
 693 0164 1B68     		ldr	r3, [r3]
 694 0166 5B69     		ldr	r3, [r3, #20]
 695 0168 03F00403 		and	r3, r3, #4
 696 016c 002B     		cmp	r3, #0
 697 016e 18D0     		beq	.L35
 698              		.loc 1 657 0 is_stmt 0 discriminator 1
 699 0170 3B89     		ldrh	r3, [r7, #8]
 700 0172 002B     		cmp	r3, #0
 701 0174 15D0     		beq	.L35
 658:Drivers/STM32F4xx_HAL_Driver/Src/stm32f4xx_hal_i2c.c ****       {
 659:Drivers/STM32F4xx_HAL_Driver/Src/stm32f4xx_hal_i2c.c ****         /* Write data to DR */
 660:Drivers/STM32F4xx_HAL_Driver/Src/stm32f4xx_hal_i2c.c ****         hi2c->Instance->DR = (*hi2c->pBuffPtr++);
 702              		.loc 1 660 0 is_stmt 1
 703 0176 FB68     		ldr	r3, [r7, #12]
 704 0178 1A68     		ldr	r2, [r3]
 705 017a FB68     		ldr	r3, [r7, #12]
 706 017c 5B6A     		ldr	r3, [r3, #36]
 707 017e 581C     		adds	r0, r3, #1
 708 0180 F968     		ldr	r1, [r7, #12]
 709 0182 4862     		str	r0, [r1, #36]
 710 0184 1B78     		ldrb	r3, [r3]	@ zero_extendqisi2
 711 0186 1361     		str	r3, [r2, #16]
 661:Drivers/STM32F4xx_HAL_Driver/Src/stm32f4xx_hal_i2c.c ****         hi2c->XferCount--;
 712              		.loc 1 661 0
 713 0188 FB68     		ldr	r3, [r7, #12]
 714 018a 5B8D     		ldrh	r3, [r3, #42]	@ movhi
 715 018c 9BB2     		uxth	r3, r3
 716 018e 013B     		subs	r3, r3, #1
ARM GAS  /tmp/cc3ELaEI.s 			page 25


 717 0190 9AB2     		uxth	r2, r3
 718 0192 FB68     		ldr	r3, [r7, #12]
 719 0194 5A85     		strh	r2, [r3, #42]	@ movhi
 662:Drivers/STM32F4xx_HAL_Driver/Src/stm32f4xx_hal_i2c.c ****         hi2c->XferSize--;
 720              		.loc 1 662 0
 721 0196 FB68     		ldr	r3, [r7, #12]
 722 0198 1B8D     		ldrh	r3, [r3, #40]
 723 019a 013B     		subs	r3, r3, #1
 724 019c 9AB2     		uxth	r2, r3
 725 019e FB68     		ldr	r3, [r7, #12]
 726 01a0 1A85     		strh	r2, [r3, #40]	@ movhi
 727              	.L35:
 663:Drivers/STM32F4xx_HAL_Driver/Src/stm32f4xx_hal_i2c.c ****       }
 664:Drivers/STM32F4xx_HAL_Driver/Src/stm32f4xx_hal_i2c.c ****       
 665:Drivers/STM32F4xx_HAL_Driver/Src/stm32f4xx_hal_i2c.c ****       /* Wait until BTF flag is set */
 666:Drivers/STM32F4xx_HAL_Driver/Src/stm32f4xx_hal_i2c.c ****       if(I2C_WaitOnBTFFlagUntilTimeout(hi2c, Timeout, tickstart) != HAL_OK)
 728              		.loc 1 666 0
 729 01a2 7A69     		ldr	r2, [r7, #20]
 730 01a4 396A     		ldr	r1, [r7, #32]
 731 01a6 F868     		ldr	r0, [r7, #12]
 732 01a8 FFF7FEFF 		bl	I2C_WaitOnBTFFlagUntilTimeout
 733 01ac 0346     		mov	r3, r0
 734 01ae 002B     		cmp	r3, #0
 735 01b0 0FD0     		beq	.L32
 667:Drivers/STM32F4xx_HAL_Driver/Src/stm32f4xx_hal_i2c.c ****       {
 668:Drivers/STM32F4xx_HAL_Driver/Src/stm32f4xx_hal_i2c.c ****         if(hi2c->ErrorCode == HAL_I2C_ERROR_AF)
 736              		.loc 1 668 0
 737 01b2 FB68     		ldr	r3, [r7, #12]
 738 01b4 1B6C     		ldr	r3, [r3, #64]
 739 01b6 042B     		cmp	r3, #4
 740 01b8 09D1     		bne	.L36
 669:Drivers/STM32F4xx_HAL_Driver/Src/stm32f4xx_hal_i2c.c ****         {
 670:Drivers/STM32F4xx_HAL_Driver/Src/stm32f4xx_hal_i2c.c ****           /* Generate Stop */
 671:Drivers/STM32F4xx_HAL_Driver/Src/stm32f4xx_hal_i2c.c ****           hi2c->Instance->CR1 |= I2C_CR1_STOP;
 741              		.loc 1 671 0
 742 01ba FB68     		ldr	r3, [r7, #12]
 743 01bc 1B68     		ldr	r3, [r3]
 744 01be FA68     		ldr	r2, [r7, #12]
 745 01c0 1268     		ldr	r2, [r2]
 746 01c2 1268     		ldr	r2, [r2]
 747 01c4 42F40072 		orr	r2, r2, #512
 748 01c8 1A60     		str	r2, [r3]
 672:Drivers/STM32F4xx_HAL_Driver/Src/stm32f4xx_hal_i2c.c ****           return HAL_ERROR;
 749              		.loc 1 672 0
 750 01ca 0123     		movs	r3, #1
 751 01cc 1CE0     		b	.L27
 752              	.L36:
 673:Drivers/STM32F4xx_HAL_Driver/Src/stm32f4xx_hal_i2c.c ****         }
 674:Drivers/STM32F4xx_HAL_Driver/Src/stm32f4xx_hal_i2c.c ****         else
 675:Drivers/STM32F4xx_HAL_Driver/Src/stm32f4xx_hal_i2c.c ****         {
 676:Drivers/STM32F4xx_HAL_Driver/Src/stm32f4xx_hal_i2c.c ****           return HAL_TIMEOUT;
 753              		.loc 1 676 0
 754 01ce 0323     		movs	r3, #3
 755 01d0 1AE0     		b	.L27
 756              	.L32:
 635:Drivers/STM32F4xx_HAL_Driver/Src/stm32f4xx_hal_i2c.c ****     {
 757              		.loc 1 635 0
ARM GAS  /tmp/cc3ELaEI.s 			page 26


 758 01d2 FB68     		ldr	r3, [r7, #12]
 759 01d4 1B8D     		ldrh	r3, [r3, #40]
 760 01d6 002B     		cmp	r3, #0
 761 01d8 95D1     		bne	.L37
 677:Drivers/STM32F4xx_HAL_Driver/Src/stm32f4xx_hal_i2c.c ****         }
 678:Drivers/STM32F4xx_HAL_Driver/Src/stm32f4xx_hal_i2c.c ****       }
 679:Drivers/STM32F4xx_HAL_Driver/Src/stm32f4xx_hal_i2c.c ****     }
 680:Drivers/STM32F4xx_HAL_Driver/Src/stm32f4xx_hal_i2c.c **** 
 681:Drivers/STM32F4xx_HAL_Driver/Src/stm32f4xx_hal_i2c.c ****     /* Generate Stop */
 682:Drivers/STM32F4xx_HAL_Driver/Src/stm32f4xx_hal_i2c.c ****     hi2c->Instance->CR1 |= I2C_CR1_STOP;
 762              		.loc 1 682 0
 763 01da FB68     		ldr	r3, [r7, #12]
 764 01dc 1B68     		ldr	r3, [r3]
 765 01de FA68     		ldr	r2, [r7, #12]
 766 01e0 1268     		ldr	r2, [r2]
 767 01e2 1268     		ldr	r2, [r2]
 768 01e4 42F40072 		orr	r2, r2, #512
 769 01e8 1A60     		str	r2, [r3]
 683:Drivers/STM32F4xx_HAL_Driver/Src/stm32f4xx_hal_i2c.c **** 
 684:Drivers/STM32F4xx_HAL_Driver/Src/stm32f4xx_hal_i2c.c ****     hi2c->State = HAL_I2C_STATE_READY;
 770              		.loc 1 684 0
 771 01ea FB68     		ldr	r3, [r7, #12]
 772 01ec 2022     		movs	r2, #32
 773 01ee 83F83D20 		strb	r2, [r3, #61]
 685:Drivers/STM32F4xx_HAL_Driver/Src/stm32f4xx_hal_i2c.c ****     hi2c->Mode = HAL_I2C_MODE_NONE;
 774              		.loc 1 685 0
 775 01f2 FB68     		ldr	r3, [r7, #12]
 776 01f4 0022     		movs	r2, #0
 777 01f6 83F83E20 		strb	r2, [r3, #62]
 686:Drivers/STM32F4xx_HAL_Driver/Src/stm32f4xx_hal_i2c.c ****     
 687:Drivers/STM32F4xx_HAL_Driver/Src/stm32f4xx_hal_i2c.c ****     /* Process Unlocked */
 688:Drivers/STM32F4xx_HAL_Driver/Src/stm32f4xx_hal_i2c.c ****     __HAL_UNLOCK(hi2c);
 778              		.loc 1 688 0
 779 01fa FB68     		ldr	r3, [r7, #12]
 780 01fc 0022     		movs	r2, #0
 781 01fe 83F83C20 		strb	r2, [r3, #60]
 689:Drivers/STM32F4xx_HAL_Driver/Src/stm32f4xx_hal_i2c.c **** 
 690:Drivers/STM32F4xx_HAL_Driver/Src/stm32f4xx_hal_i2c.c ****     return HAL_OK;
 782              		.loc 1 690 0
 783 0202 0023     		movs	r3, #0
 784 0204 00E0     		b	.L27
 785              	.L25:
 691:Drivers/STM32F4xx_HAL_Driver/Src/stm32f4xx_hal_i2c.c ****   }
 692:Drivers/STM32F4xx_HAL_Driver/Src/stm32f4xx_hal_i2c.c ****   else
 693:Drivers/STM32F4xx_HAL_Driver/Src/stm32f4xx_hal_i2c.c ****   {
 694:Drivers/STM32F4xx_HAL_Driver/Src/stm32f4xx_hal_i2c.c ****     return HAL_BUSY;
 786              		.loc 1 694 0
 787 0206 0223     		movs	r3, #2
 788              	.L27:
 695:Drivers/STM32F4xx_HAL_Driver/Src/stm32f4xx_hal_i2c.c ****   }
 696:Drivers/STM32F4xx_HAL_Driver/Src/stm32f4xx_hal_i2c.c **** }
 789              		.loc 1 696 0
 790 0208 1846     		mov	r0, r3
 791 020a 1837     		adds	r7, r7, #24
 792              	.LCFI25:
 793              		.cfi_def_cfa_offset 8
 794 020c BD46     		mov	sp, r7
ARM GAS  /tmp/cc3ELaEI.s 			page 27


 795              	.LCFI26:
 796              		.cfi_def_cfa_register 13
 797              		@ sp needed
 798 020e 80BD     		pop	{r7, pc}
 799              	.L39:
 800              		.align	2
 801              	.L38:
 802 0210 02001000 		.word	1048578
 803 0214 0000FFFF 		.word	-65536
 804              		.cfi_endproc
 805              	.LFE130:
 807              		.section	.text.HAL_I2C_Master_Receive,"ax",%progbits
 808              		.align	2
 809              		.global	HAL_I2C_Master_Receive
 810              		.thumb
 811              		.thumb_func
 813              	HAL_I2C_Master_Receive:
 814              	.LFB131:
 697:Drivers/STM32F4xx_HAL_Driver/Src/stm32f4xx_hal_i2c.c **** 
 698:Drivers/STM32F4xx_HAL_Driver/Src/stm32f4xx_hal_i2c.c **** /**
 699:Drivers/STM32F4xx_HAL_Driver/Src/stm32f4xx_hal_i2c.c ****   * @brief  Receives in master mode an amount of data in blocking mode. 
 700:Drivers/STM32F4xx_HAL_Driver/Src/stm32f4xx_hal_i2c.c ****   * @param  hi2c Pointer to a I2C_HandleTypeDef structure that contains
 701:Drivers/STM32F4xx_HAL_Driver/Src/stm32f4xx_hal_i2c.c ****   *                the configuration information for the specified I2C.
 702:Drivers/STM32F4xx_HAL_Driver/Src/stm32f4xx_hal_i2c.c ****   * @param  DevAddress Target device address: The device 7 bits address value
 703:Drivers/STM32F4xx_HAL_Driver/Src/stm32f4xx_hal_i2c.c ****   *         in datasheet must be shift at right before call interface
 704:Drivers/STM32F4xx_HAL_Driver/Src/stm32f4xx_hal_i2c.c ****   * @param  pData Pointer to data buffer
 705:Drivers/STM32F4xx_HAL_Driver/Src/stm32f4xx_hal_i2c.c ****   * @param  Size Amount of data to be sent
 706:Drivers/STM32F4xx_HAL_Driver/Src/stm32f4xx_hal_i2c.c ****   * @param  Timeout Timeout duration
 707:Drivers/STM32F4xx_HAL_Driver/Src/stm32f4xx_hal_i2c.c ****   * @retval HAL status
 708:Drivers/STM32F4xx_HAL_Driver/Src/stm32f4xx_hal_i2c.c ****   */
 709:Drivers/STM32F4xx_HAL_Driver/Src/stm32f4xx_hal_i2c.c **** HAL_StatusTypeDef HAL_I2C_Master_Receive(I2C_HandleTypeDef *hi2c, uint16_t DevAddress, uint8_t *pDa
 710:Drivers/STM32F4xx_HAL_Driver/Src/stm32f4xx_hal_i2c.c **** {
 815              		.loc 1 710 0
 816              		.cfi_startproc
 817              		@ args = 4, pretend = 0, frame = 40
 818              		@ frame_needed = 1, uses_anonymous_args = 0
 819 0000 80B5     		push	{r7, lr}
 820              	.LCFI27:
 821              		.cfi_def_cfa_offset 8
 822              		.cfi_offset 7, -8
 823              		.cfi_offset 14, -4
 824 0002 8CB0     		sub	sp, sp, #48
 825              	.LCFI28:
 826              		.cfi_def_cfa_offset 56
 827 0004 02AF     		add	r7, sp, #8
 828              	.LCFI29:
 829              		.cfi_def_cfa 7, 48
 830 0006 F860     		str	r0, [r7, #12]
 831 0008 7A60     		str	r2, [r7, #4]
 832 000a 1A46     		mov	r2, r3
 833 000c 0B46     		mov	r3, r1	@ movhi
 834 000e 7B81     		strh	r3, [r7, #10]	@ movhi
 835 0010 1346     		mov	r3, r2	@ movhi
 836 0012 3B81     		strh	r3, [r7, #8]	@ movhi
 711:Drivers/STM32F4xx_HAL_Driver/Src/stm32f4xx_hal_i2c.c ****   uint32_t tickstart = 0x00U;
 837              		.loc 1 711 0
 838 0014 0023     		movs	r3, #0
ARM GAS  /tmp/cc3ELaEI.s 			page 28


 839 0016 7B62     		str	r3, [r7, #36]
 712:Drivers/STM32F4xx_HAL_Driver/Src/stm32f4xx_hal_i2c.c **** 
 713:Drivers/STM32F4xx_HAL_Driver/Src/stm32f4xx_hal_i2c.c ****   /* Init tickstart for timeout management*/
 714:Drivers/STM32F4xx_HAL_Driver/Src/stm32f4xx_hal_i2c.c ****   tickstart = HAL_GetTick();
 840              		.loc 1 714 0
 841 0018 FFF7FEFF 		bl	HAL_GetTick
 842 001c 7862     		str	r0, [r7, #36]
 715:Drivers/STM32F4xx_HAL_Driver/Src/stm32f4xx_hal_i2c.c **** 
 716:Drivers/STM32F4xx_HAL_Driver/Src/stm32f4xx_hal_i2c.c ****   if(hi2c->State == HAL_I2C_STATE_READY)
 843              		.loc 1 716 0
 844 001e FB68     		ldr	r3, [r7, #12]
 845 0020 93F83D30 		ldrb	r3, [r3, #61]
 846 0024 DBB2     		uxtb	r3, r3
 847 0026 202B     		cmp	r3, #32
 848 0028 40F01582 		bne	.L41
 717:Drivers/STM32F4xx_HAL_Driver/Src/stm32f4xx_hal_i2c.c ****   {
 718:Drivers/STM32F4xx_HAL_Driver/Src/stm32f4xx_hal_i2c.c ****     /* Wait until BUSY flag is reset */
 719:Drivers/STM32F4xx_HAL_Driver/Src/stm32f4xx_hal_i2c.c ****     if(I2C_WaitOnFlagUntilTimeout(hi2c, I2C_FLAG_BUSY, SET, I2C_TIMEOUT_BUSY_FLAG, tickstart) != HA
 849              		.loc 1 719 0
 850 002c 7B6A     		ldr	r3, [r7, #36]
 851 002e 0093     		str	r3, [sp]
 852 0030 1923     		movs	r3, #25
 853 0032 0122     		movs	r2, #1
 854 0034 8549     		ldr	r1, .L65
 855 0036 F868     		ldr	r0, [r7, #12]
 856 0038 FFF7FEFF 		bl	I2C_WaitOnFlagUntilTimeout
 857 003c 0346     		mov	r3, r0
 858 003e 002B     		cmp	r3, #0
 859 0040 01D0     		beq	.L42
 720:Drivers/STM32F4xx_HAL_Driver/Src/stm32f4xx_hal_i2c.c ****     {
 721:Drivers/STM32F4xx_HAL_Driver/Src/stm32f4xx_hal_i2c.c ****       return HAL_BUSY;
 860              		.loc 1 721 0
 861 0042 0223     		movs	r3, #2
 862 0044 08E2     		b	.L43
 863              	.L42:
 722:Drivers/STM32F4xx_HAL_Driver/Src/stm32f4xx_hal_i2c.c ****     }
 723:Drivers/STM32F4xx_HAL_Driver/Src/stm32f4xx_hal_i2c.c **** 
 724:Drivers/STM32F4xx_HAL_Driver/Src/stm32f4xx_hal_i2c.c ****     /* Process Locked */
 725:Drivers/STM32F4xx_HAL_Driver/Src/stm32f4xx_hal_i2c.c ****     __HAL_LOCK(hi2c);
 864              		.loc 1 725 0
 865 0046 FB68     		ldr	r3, [r7, #12]
 866 0048 93F83C30 		ldrb	r3, [r3, #60]	@ zero_extendqisi2
 867 004c 012B     		cmp	r3, #1
 868 004e 01D1     		bne	.L44
 869              		.loc 1 725 0 is_stmt 0 discriminator 1
 870 0050 0223     		movs	r3, #2
 871 0052 01E2     		b	.L43
 872              	.L44:
 873              		.loc 1 725 0 discriminator 2
 874 0054 FB68     		ldr	r3, [r7, #12]
 875 0056 0122     		movs	r2, #1
 876 0058 83F83C20 		strb	r2, [r3, #60]
 726:Drivers/STM32F4xx_HAL_Driver/Src/stm32f4xx_hal_i2c.c **** 
 727:Drivers/STM32F4xx_HAL_Driver/Src/stm32f4xx_hal_i2c.c ****     /* Check if the I2C is already enabled */
 728:Drivers/STM32F4xx_HAL_Driver/Src/stm32f4xx_hal_i2c.c ****     if((hi2c->Instance->CR1 & I2C_CR1_PE) != I2C_CR1_PE)
 877              		.loc 1 728 0 is_stmt 1 discriminator 2
 878 005c FB68     		ldr	r3, [r7, #12]
ARM GAS  /tmp/cc3ELaEI.s 			page 29


 879 005e 1B68     		ldr	r3, [r3]
 880 0060 1B68     		ldr	r3, [r3]
 881 0062 03F00103 		and	r3, r3, #1
 882 0066 002B     		cmp	r3, #0
 883 0068 07D1     		bne	.L45
 729:Drivers/STM32F4xx_HAL_Driver/Src/stm32f4xx_hal_i2c.c ****     {
 730:Drivers/STM32F4xx_HAL_Driver/Src/stm32f4xx_hal_i2c.c ****       /* Enable I2C peripheral */
 731:Drivers/STM32F4xx_HAL_Driver/Src/stm32f4xx_hal_i2c.c ****       __HAL_I2C_ENABLE(hi2c);
 884              		.loc 1 731 0
 885 006a FB68     		ldr	r3, [r7, #12]
 886 006c 1B68     		ldr	r3, [r3]
 887 006e FA68     		ldr	r2, [r7, #12]
 888 0070 1268     		ldr	r2, [r2]
 889 0072 1268     		ldr	r2, [r2]
 890 0074 42F00102 		orr	r2, r2, #1
 891 0078 1A60     		str	r2, [r3]
 892              	.L45:
 732:Drivers/STM32F4xx_HAL_Driver/Src/stm32f4xx_hal_i2c.c ****     }
 733:Drivers/STM32F4xx_HAL_Driver/Src/stm32f4xx_hal_i2c.c **** 
 734:Drivers/STM32F4xx_HAL_Driver/Src/stm32f4xx_hal_i2c.c ****     /* Disable Pos */
 735:Drivers/STM32F4xx_HAL_Driver/Src/stm32f4xx_hal_i2c.c ****     hi2c->Instance->CR1 &= ~I2C_CR1_POS;
 893              		.loc 1 735 0
 894 007a FB68     		ldr	r3, [r7, #12]
 895 007c 1B68     		ldr	r3, [r3]
 896 007e FA68     		ldr	r2, [r7, #12]
 897 0080 1268     		ldr	r2, [r2]
 898 0082 1268     		ldr	r2, [r2]
 899 0084 22F40062 		bic	r2, r2, #2048
 900 0088 1A60     		str	r2, [r3]
 736:Drivers/STM32F4xx_HAL_Driver/Src/stm32f4xx_hal_i2c.c **** 
 737:Drivers/STM32F4xx_HAL_Driver/Src/stm32f4xx_hal_i2c.c ****     hi2c->State       = HAL_I2C_STATE_BUSY_RX;
 901              		.loc 1 737 0
 902 008a FB68     		ldr	r3, [r7, #12]
 903 008c 2222     		movs	r2, #34
 904 008e 83F83D20 		strb	r2, [r3, #61]
 738:Drivers/STM32F4xx_HAL_Driver/Src/stm32f4xx_hal_i2c.c ****     hi2c->Mode        = HAL_I2C_MODE_MASTER;
 905              		.loc 1 738 0
 906 0092 FB68     		ldr	r3, [r7, #12]
 907 0094 1022     		movs	r2, #16
 908 0096 83F83E20 		strb	r2, [r3, #62]
 739:Drivers/STM32F4xx_HAL_Driver/Src/stm32f4xx_hal_i2c.c ****     hi2c->ErrorCode   = HAL_I2C_ERROR_NONE;
 909              		.loc 1 739 0
 910 009a FB68     		ldr	r3, [r7, #12]
 911 009c 0022     		movs	r2, #0
 912 009e 1A64     		str	r2, [r3, #64]
 740:Drivers/STM32F4xx_HAL_Driver/Src/stm32f4xx_hal_i2c.c **** 
 741:Drivers/STM32F4xx_HAL_Driver/Src/stm32f4xx_hal_i2c.c ****     /* Prepare transfer parameters */
 742:Drivers/STM32F4xx_HAL_Driver/Src/stm32f4xx_hal_i2c.c ****     hi2c->pBuffPtr    = pData;
 913              		.loc 1 742 0
 914 00a0 FB68     		ldr	r3, [r7, #12]
 915 00a2 7A68     		ldr	r2, [r7, #4]
 916 00a4 5A62     		str	r2, [r3, #36]
 743:Drivers/STM32F4xx_HAL_Driver/Src/stm32f4xx_hal_i2c.c ****     hi2c->XferCount   = Size;
 917              		.loc 1 743 0
 918 00a6 FB68     		ldr	r3, [r7, #12]
 919 00a8 3A89     		ldrh	r2, [r7, #8]	@ movhi
 920 00aa 5A85     		strh	r2, [r3, #42]	@ movhi
ARM GAS  /tmp/cc3ELaEI.s 			page 30


 744:Drivers/STM32F4xx_HAL_Driver/Src/stm32f4xx_hal_i2c.c ****     hi2c->XferOptions = I2C_NO_OPTION_FRAME;
 921              		.loc 1 744 0
 922 00ac FB68     		ldr	r3, [r7, #12]
 923 00ae 684A     		ldr	r2, .L65+4
 924 00b0 DA62     		str	r2, [r3, #44]
 745:Drivers/STM32F4xx_HAL_Driver/Src/stm32f4xx_hal_i2c.c ****     hi2c->XferSize    = hi2c->XferCount;
 925              		.loc 1 745 0
 926 00b2 FB68     		ldr	r3, [r7, #12]
 927 00b4 5B8D     		ldrh	r3, [r3, #42]	@ movhi
 928 00b6 9AB2     		uxth	r2, r3
 929 00b8 FB68     		ldr	r3, [r7, #12]
 930 00ba 1A85     		strh	r2, [r3, #40]	@ movhi
 746:Drivers/STM32F4xx_HAL_Driver/Src/stm32f4xx_hal_i2c.c **** 
 747:Drivers/STM32F4xx_HAL_Driver/Src/stm32f4xx_hal_i2c.c ****     /* Send Slave Address */
 748:Drivers/STM32F4xx_HAL_Driver/Src/stm32f4xx_hal_i2c.c ****     if(I2C_MasterRequestRead(hi2c, DevAddress, Timeout, tickstart) != HAL_OK)
 931              		.loc 1 748 0
 932 00bc 7989     		ldrh	r1, [r7, #10]
 933 00be 7B6A     		ldr	r3, [r7, #36]
 934 00c0 3A6B     		ldr	r2, [r7, #48]
 935 00c2 F868     		ldr	r0, [r7, #12]
 936 00c4 FFF7FEFF 		bl	I2C_MasterRequestRead
 937 00c8 0346     		mov	r3, r0
 938 00ca 002B     		cmp	r3, #0
 939 00cc 0FD0     		beq	.L46
 749:Drivers/STM32F4xx_HAL_Driver/Src/stm32f4xx_hal_i2c.c ****     {
 750:Drivers/STM32F4xx_HAL_Driver/Src/stm32f4xx_hal_i2c.c ****       if(hi2c->ErrorCode == HAL_I2C_ERROR_AF)
 940              		.loc 1 750 0
 941 00ce FB68     		ldr	r3, [r7, #12]
 942 00d0 1B6C     		ldr	r3, [r3, #64]
 943 00d2 042B     		cmp	r3, #4
 944 00d4 05D1     		bne	.L47
 751:Drivers/STM32F4xx_HAL_Driver/Src/stm32f4xx_hal_i2c.c ****       {
 752:Drivers/STM32F4xx_HAL_Driver/Src/stm32f4xx_hal_i2c.c ****         /* Process Unlocked */
 753:Drivers/STM32F4xx_HAL_Driver/Src/stm32f4xx_hal_i2c.c ****         __HAL_UNLOCK(hi2c);
 945              		.loc 1 753 0
 946 00d6 FB68     		ldr	r3, [r7, #12]
 947 00d8 0022     		movs	r2, #0
 948 00da 83F83C20 		strb	r2, [r3, #60]
 754:Drivers/STM32F4xx_HAL_Driver/Src/stm32f4xx_hal_i2c.c ****         return HAL_ERROR;
 949              		.loc 1 754 0
 950 00de 0123     		movs	r3, #1
 951 00e0 BAE1     		b	.L43
 952              	.L47:
 755:Drivers/STM32F4xx_HAL_Driver/Src/stm32f4xx_hal_i2c.c ****       }
 756:Drivers/STM32F4xx_HAL_Driver/Src/stm32f4xx_hal_i2c.c ****       else
 757:Drivers/STM32F4xx_HAL_Driver/Src/stm32f4xx_hal_i2c.c ****       {
 758:Drivers/STM32F4xx_HAL_Driver/Src/stm32f4xx_hal_i2c.c ****         /* Process Unlocked */
 759:Drivers/STM32F4xx_HAL_Driver/Src/stm32f4xx_hal_i2c.c ****         __HAL_UNLOCK(hi2c);
 953              		.loc 1 759 0
 954 00e2 FB68     		ldr	r3, [r7, #12]
 955 00e4 0022     		movs	r2, #0
 956 00e6 83F83C20 		strb	r2, [r3, #60]
 760:Drivers/STM32F4xx_HAL_Driver/Src/stm32f4xx_hal_i2c.c ****         return HAL_TIMEOUT;
 957              		.loc 1 760 0
 958 00ea 0323     		movs	r3, #3
 959 00ec B4E1     		b	.L43
 960              	.L46:
ARM GAS  /tmp/cc3ELaEI.s 			page 31


 761:Drivers/STM32F4xx_HAL_Driver/Src/stm32f4xx_hal_i2c.c ****       }
 762:Drivers/STM32F4xx_HAL_Driver/Src/stm32f4xx_hal_i2c.c ****     }
 763:Drivers/STM32F4xx_HAL_Driver/Src/stm32f4xx_hal_i2c.c **** 
 764:Drivers/STM32F4xx_HAL_Driver/Src/stm32f4xx_hal_i2c.c ****     if(hi2c->XferSize == 0U)
 961              		.loc 1 764 0
 962 00ee FB68     		ldr	r3, [r7, #12]
 963 00f0 1B8D     		ldrh	r3, [r3, #40]
 964 00f2 002B     		cmp	r3, #0
 965 00f4 13D1     		bne	.L48
 966              	.LBB3:
 765:Drivers/STM32F4xx_HAL_Driver/Src/stm32f4xx_hal_i2c.c ****     {
 766:Drivers/STM32F4xx_HAL_Driver/Src/stm32f4xx_hal_i2c.c ****       /* Clear ADDR flag */
 767:Drivers/STM32F4xx_HAL_Driver/Src/stm32f4xx_hal_i2c.c ****       __HAL_I2C_CLEAR_ADDRFLAG(hi2c);
 967              		.loc 1 767 0
 968 00f6 0023     		movs	r3, #0
 969 00f8 3B62     		str	r3, [r7, #32]
 970 00fa FB68     		ldr	r3, [r7, #12]
 971 00fc 1B68     		ldr	r3, [r3]
 972 00fe 5B69     		ldr	r3, [r3, #20]
 973 0100 3B62     		str	r3, [r7, #32]
 974 0102 FB68     		ldr	r3, [r7, #12]
 975 0104 1B68     		ldr	r3, [r3]
 976 0106 9B69     		ldr	r3, [r3, #24]
 977 0108 3B62     		str	r3, [r7, #32]
 978 010a 3B6A     		ldr	r3, [r7, #32]
 979              	.LBE3:
 768:Drivers/STM32F4xx_HAL_Driver/Src/stm32f4xx_hal_i2c.c **** 
 769:Drivers/STM32F4xx_HAL_Driver/Src/stm32f4xx_hal_i2c.c ****       /* Generate Stop */
 770:Drivers/STM32F4xx_HAL_Driver/Src/stm32f4xx_hal_i2c.c ****       hi2c->Instance->CR1 |= I2C_CR1_STOP;
 980              		.loc 1 770 0
 981 010c FB68     		ldr	r3, [r7, #12]
 982 010e 1B68     		ldr	r3, [r3]
 983 0110 FA68     		ldr	r2, [r7, #12]
 984 0112 1268     		ldr	r2, [r2]
 985 0114 1268     		ldr	r2, [r2]
 986 0116 42F40072 		orr	r2, r2, #512
 987 011a 1A60     		str	r2, [r3]
 988 011c 88E1     		b	.L52
 989              	.L48:
 771:Drivers/STM32F4xx_HAL_Driver/Src/stm32f4xx_hal_i2c.c ****     }
 772:Drivers/STM32F4xx_HAL_Driver/Src/stm32f4xx_hal_i2c.c ****     else if(hi2c->XferSize == 1U)
 990              		.loc 1 772 0
 991 011e FB68     		ldr	r3, [r7, #12]
 992 0120 1B8D     		ldrh	r3, [r3, #40]
 993 0122 012B     		cmp	r3, #1
 994 0124 1BD1     		bne	.L50
 773:Drivers/STM32F4xx_HAL_Driver/Src/stm32f4xx_hal_i2c.c ****     {
 774:Drivers/STM32F4xx_HAL_Driver/Src/stm32f4xx_hal_i2c.c ****       /* Disable Acknowledge */
 775:Drivers/STM32F4xx_HAL_Driver/Src/stm32f4xx_hal_i2c.c ****       hi2c->Instance->CR1 &= ~I2C_CR1_ACK;
 995              		.loc 1 775 0
 996 0126 FB68     		ldr	r3, [r7, #12]
 997 0128 1B68     		ldr	r3, [r3]
 998 012a FA68     		ldr	r2, [r7, #12]
 999 012c 1268     		ldr	r2, [r2]
 1000 012e 1268     		ldr	r2, [r2]
 1001 0130 22F48062 		bic	r2, r2, #1024
 1002 0134 1A60     		str	r2, [r3]
ARM GAS  /tmp/cc3ELaEI.s 			page 32


 1003              	.LBB4:
 776:Drivers/STM32F4xx_HAL_Driver/Src/stm32f4xx_hal_i2c.c **** 
 777:Drivers/STM32F4xx_HAL_Driver/Src/stm32f4xx_hal_i2c.c ****       /* Clear ADDR flag */
 778:Drivers/STM32F4xx_HAL_Driver/Src/stm32f4xx_hal_i2c.c ****       __HAL_I2C_CLEAR_ADDRFLAG(hi2c);
 1004              		.loc 1 778 0
 1005 0136 0023     		movs	r3, #0
 1006 0138 FB61     		str	r3, [r7, #28]
 1007 013a FB68     		ldr	r3, [r7, #12]
 1008 013c 1B68     		ldr	r3, [r3]
 1009 013e 5B69     		ldr	r3, [r3, #20]
 1010 0140 FB61     		str	r3, [r7, #28]
 1011 0142 FB68     		ldr	r3, [r7, #12]
 1012 0144 1B68     		ldr	r3, [r3]
 1013 0146 9B69     		ldr	r3, [r3, #24]
 1014 0148 FB61     		str	r3, [r7, #28]
 1015 014a FB69     		ldr	r3, [r7, #28]
 1016              	.LBE4:
 779:Drivers/STM32F4xx_HAL_Driver/Src/stm32f4xx_hal_i2c.c **** 
 780:Drivers/STM32F4xx_HAL_Driver/Src/stm32f4xx_hal_i2c.c ****       /* Generate Stop */
 781:Drivers/STM32F4xx_HAL_Driver/Src/stm32f4xx_hal_i2c.c ****       hi2c->Instance->CR1 |= I2C_CR1_STOP;
 1017              		.loc 1 781 0
 1018 014c FB68     		ldr	r3, [r7, #12]
 1019 014e 1B68     		ldr	r3, [r3]
 1020 0150 FA68     		ldr	r2, [r7, #12]
 1021 0152 1268     		ldr	r2, [r2]
 1022 0154 1268     		ldr	r2, [r2]
 1023 0156 42F40072 		orr	r2, r2, #512
 1024 015a 1A60     		str	r2, [r3]
 1025 015c 68E1     		b	.L52
 1026              	.L50:
 782:Drivers/STM32F4xx_HAL_Driver/Src/stm32f4xx_hal_i2c.c ****     }
 783:Drivers/STM32F4xx_HAL_Driver/Src/stm32f4xx_hal_i2c.c ****     else if(hi2c->XferSize == 2U)
 1027              		.loc 1 783 0
 1028 015e FB68     		ldr	r3, [r7, #12]
 1029 0160 1B8D     		ldrh	r3, [r3, #40]
 1030 0162 022B     		cmp	r3, #2
 1031 0164 1BD1     		bne	.L51
 784:Drivers/STM32F4xx_HAL_Driver/Src/stm32f4xx_hal_i2c.c ****     {
 785:Drivers/STM32F4xx_HAL_Driver/Src/stm32f4xx_hal_i2c.c ****       /* Disable Acknowledge */
 786:Drivers/STM32F4xx_HAL_Driver/Src/stm32f4xx_hal_i2c.c ****       hi2c->Instance->CR1 &= ~I2C_CR1_ACK;
 1032              		.loc 1 786 0
 1033 0166 FB68     		ldr	r3, [r7, #12]
 1034 0168 1B68     		ldr	r3, [r3]
 1035 016a FA68     		ldr	r2, [r7, #12]
 1036 016c 1268     		ldr	r2, [r2]
 1037 016e 1268     		ldr	r2, [r2]
 1038 0170 22F48062 		bic	r2, r2, #1024
 1039 0174 1A60     		str	r2, [r3]
 787:Drivers/STM32F4xx_HAL_Driver/Src/stm32f4xx_hal_i2c.c **** 
 788:Drivers/STM32F4xx_HAL_Driver/Src/stm32f4xx_hal_i2c.c ****       /* Enable Pos */
 789:Drivers/STM32F4xx_HAL_Driver/Src/stm32f4xx_hal_i2c.c ****       hi2c->Instance->CR1 |= I2C_CR1_POS;
 1040              		.loc 1 789 0
 1041 0176 FB68     		ldr	r3, [r7, #12]
 1042 0178 1B68     		ldr	r3, [r3]
 1043 017a FA68     		ldr	r2, [r7, #12]
 1044 017c 1268     		ldr	r2, [r2]
 1045 017e 1268     		ldr	r2, [r2]
ARM GAS  /tmp/cc3ELaEI.s 			page 33


 1046 0180 42F40062 		orr	r2, r2, #2048
 1047 0184 1A60     		str	r2, [r3]
 1048              	.LBB5:
 790:Drivers/STM32F4xx_HAL_Driver/Src/stm32f4xx_hal_i2c.c **** 
 791:Drivers/STM32F4xx_HAL_Driver/Src/stm32f4xx_hal_i2c.c ****       /* Clear ADDR flag */
 792:Drivers/STM32F4xx_HAL_Driver/Src/stm32f4xx_hal_i2c.c ****       __HAL_I2C_CLEAR_ADDRFLAG(hi2c);
 1049              		.loc 1 792 0
 1050 0186 0023     		movs	r3, #0
 1051 0188 BB61     		str	r3, [r7, #24]
 1052 018a FB68     		ldr	r3, [r7, #12]
 1053 018c 1B68     		ldr	r3, [r3]
 1054 018e 5B69     		ldr	r3, [r3, #20]
 1055 0190 BB61     		str	r3, [r7, #24]
 1056 0192 FB68     		ldr	r3, [r7, #12]
 1057 0194 1B68     		ldr	r3, [r3]
 1058 0196 9B69     		ldr	r3, [r3, #24]
 1059 0198 BB61     		str	r3, [r7, #24]
 1060 019a BB69     		ldr	r3, [r7, #24]
 1061              	.LBE5:
 1062 019c 48E1     		b	.L52
 1063              	.L51:
 793:Drivers/STM32F4xx_HAL_Driver/Src/stm32f4xx_hal_i2c.c ****     }
 794:Drivers/STM32F4xx_HAL_Driver/Src/stm32f4xx_hal_i2c.c ****     else
 795:Drivers/STM32F4xx_HAL_Driver/Src/stm32f4xx_hal_i2c.c ****     {
 796:Drivers/STM32F4xx_HAL_Driver/Src/stm32f4xx_hal_i2c.c ****       /* Enable Acknowledge */
 797:Drivers/STM32F4xx_HAL_Driver/Src/stm32f4xx_hal_i2c.c ****       hi2c->Instance->CR1 |= I2C_CR1_ACK;
 1064              		.loc 1 797 0
 1065 019e FB68     		ldr	r3, [r7, #12]
 1066 01a0 1B68     		ldr	r3, [r3]
 1067 01a2 FA68     		ldr	r2, [r7, #12]
 1068 01a4 1268     		ldr	r2, [r2]
 1069 01a6 1268     		ldr	r2, [r2]
 1070 01a8 42F48062 		orr	r2, r2, #1024
 1071 01ac 1A60     		str	r2, [r3]
 1072              	.LBB6:
 798:Drivers/STM32F4xx_HAL_Driver/Src/stm32f4xx_hal_i2c.c **** 
 799:Drivers/STM32F4xx_HAL_Driver/Src/stm32f4xx_hal_i2c.c ****       /* Clear ADDR flag */
 800:Drivers/STM32F4xx_HAL_Driver/Src/stm32f4xx_hal_i2c.c ****       __HAL_I2C_CLEAR_ADDRFLAG(hi2c);
 1073              		.loc 1 800 0
 1074 01ae 0023     		movs	r3, #0
 1075 01b0 7B61     		str	r3, [r7, #20]
 1076 01b2 FB68     		ldr	r3, [r7, #12]
 1077 01b4 1B68     		ldr	r3, [r3]
 1078 01b6 5B69     		ldr	r3, [r3, #20]
 1079 01b8 7B61     		str	r3, [r7, #20]
 1080 01ba FB68     		ldr	r3, [r7, #12]
 1081 01bc 1B68     		ldr	r3, [r3]
 1082 01be 9B69     		ldr	r3, [r3, #24]
 1083 01c0 7B61     		str	r3, [r7, #20]
 1084 01c2 7B69     		ldr	r3, [r7, #20]
 1085              	.LBE6:
 801:Drivers/STM32F4xx_HAL_Driver/Src/stm32f4xx_hal_i2c.c ****     }
 802:Drivers/STM32F4xx_HAL_Driver/Src/stm32f4xx_hal_i2c.c **** 
 803:Drivers/STM32F4xx_HAL_Driver/Src/stm32f4xx_hal_i2c.c ****     while(hi2c->XferSize > 0U)
 1086              		.loc 1 803 0
 1087 01c4 34E1     		b	.L52
 1088              	.L64:
ARM GAS  /tmp/cc3ELaEI.s 			page 34


 804:Drivers/STM32F4xx_HAL_Driver/Src/stm32f4xx_hal_i2c.c ****     {
 805:Drivers/STM32F4xx_HAL_Driver/Src/stm32f4xx_hal_i2c.c ****       if(hi2c->XferSize <= 3U)
 1089              		.loc 1 805 0
 1090 01c6 FB68     		ldr	r3, [r7, #12]
 1091 01c8 1B8D     		ldrh	r3, [r3, #40]
 1092 01ca 032B     		cmp	r3, #3
 1093 01cc 00F2EB80 		bhi	.L53
 806:Drivers/STM32F4xx_HAL_Driver/Src/stm32f4xx_hal_i2c.c ****       {
 807:Drivers/STM32F4xx_HAL_Driver/Src/stm32f4xx_hal_i2c.c ****         /* One byte */
 808:Drivers/STM32F4xx_HAL_Driver/Src/stm32f4xx_hal_i2c.c ****         if(hi2c->XferSize == 1U)
 1094              		.loc 1 808 0
 1095 01d0 FB68     		ldr	r3, [r7, #12]
 1096 01d2 1B8D     		ldrh	r3, [r3, #40]
 1097 01d4 012B     		cmp	r3, #1
 1098 01d6 27D1     		bne	.L54
 809:Drivers/STM32F4xx_HAL_Driver/Src/stm32f4xx_hal_i2c.c ****         {
 810:Drivers/STM32F4xx_HAL_Driver/Src/stm32f4xx_hal_i2c.c ****           /* Wait until RXNE flag is set */
 811:Drivers/STM32F4xx_HAL_Driver/Src/stm32f4xx_hal_i2c.c ****           if(I2C_WaitOnRXNEFlagUntilTimeout(hi2c, Timeout, tickstart) != HAL_OK)      
 1099              		.loc 1 811 0
 1100 01d8 7A6A     		ldr	r2, [r7, #36]
 1101 01da 396B     		ldr	r1, [r7, #48]
 1102 01dc F868     		ldr	r0, [r7, #12]
 1103 01de FFF7FEFF 		bl	I2C_WaitOnRXNEFlagUntilTimeout
 1104 01e2 0346     		mov	r3, r0
 1105 01e4 002B     		cmp	r3, #0
 1106 01e6 07D0     		beq	.L55
 812:Drivers/STM32F4xx_HAL_Driver/Src/stm32f4xx_hal_i2c.c ****           {
 813:Drivers/STM32F4xx_HAL_Driver/Src/stm32f4xx_hal_i2c.c ****             if(hi2c->ErrorCode == HAL_I2C_ERROR_TIMEOUT)
 1107              		.loc 1 813 0
 1108 01e8 FB68     		ldr	r3, [r7, #12]
 1109 01ea 1B6C     		ldr	r3, [r3, #64]
 1110 01ec 202B     		cmp	r3, #32
 1111 01ee 01D1     		bne	.L56
 814:Drivers/STM32F4xx_HAL_Driver/Src/stm32f4xx_hal_i2c.c ****             {
 815:Drivers/STM32F4xx_HAL_Driver/Src/stm32f4xx_hal_i2c.c ****               return HAL_TIMEOUT;
 1112              		.loc 1 815 0
 1113 01f0 0323     		movs	r3, #3
 1114 01f2 31E1     		b	.L43
 1115              	.L56:
 816:Drivers/STM32F4xx_HAL_Driver/Src/stm32f4xx_hal_i2c.c ****             }
 817:Drivers/STM32F4xx_HAL_Driver/Src/stm32f4xx_hal_i2c.c ****             else
 818:Drivers/STM32F4xx_HAL_Driver/Src/stm32f4xx_hal_i2c.c ****             {
 819:Drivers/STM32F4xx_HAL_Driver/Src/stm32f4xx_hal_i2c.c ****               return HAL_ERROR;
 1116              		.loc 1 819 0
 1117 01f4 0123     		movs	r3, #1
 1118 01f6 2FE1     		b	.L43
 1119              	.L55:
 820:Drivers/STM32F4xx_HAL_Driver/Src/stm32f4xx_hal_i2c.c ****             }
 821:Drivers/STM32F4xx_HAL_Driver/Src/stm32f4xx_hal_i2c.c ****           }
 822:Drivers/STM32F4xx_HAL_Driver/Src/stm32f4xx_hal_i2c.c **** 
 823:Drivers/STM32F4xx_HAL_Driver/Src/stm32f4xx_hal_i2c.c ****           /* Read data from DR */
 824:Drivers/STM32F4xx_HAL_Driver/Src/stm32f4xx_hal_i2c.c ****           (*hi2c->pBuffPtr++) = hi2c->Instance->DR;
 1120              		.loc 1 824 0
 1121 01f8 FB68     		ldr	r3, [r7, #12]
 1122 01fa 5B6A     		ldr	r3, [r3, #36]
 1123 01fc 591C     		adds	r1, r3, #1
 1124 01fe FA68     		ldr	r2, [r7, #12]
ARM GAS  /tmp/cc3ELaEI.s 			page 35


 1125 0200 5162     		str	r1, [r2, #36]
 1126 0202 FA68     		ldr	r2, [r7, #12]
 1127 0204 1268     		ldr	r2, [r2]
 1128 0206 1269     		ldr	r2, [r2, #16]
 1129 0208 D2B2     		uxtb	r2, r2
 1130 020a 1A70     		strb	r2, [r3]
 825:Drivers/STM32F4xx_HAL_Driver/Src/stm32f4xx_hal_i2c.c ****           hi2c->XferSize--;
 1131              		.loc 1 825 0
 1132 020c FB68     		ldr	r3, [r7, #12]
 1133 020e 1B8D     		ldrh	r3, [r3, #40]
 1134 0210 013B     		subs	r3, r3, #1
 1135 0212 9AB2     		uxth	r2, r3
 1136 0214 FB68     		ldr	r3, [r7, #12]
 1137 0216 1A85     		strh	r2, [r3, #40]	@ movhi
 826:Drivers/STM32F4xx_HAL_Driver/Src/stm32f4xx_hal_i2c.c ****           hi2c->XferCount--;
 1138              		.loc 1 826 0
 1139 0218 FB68     		ldr	r3, [r7, #12]
 1140 021a 5B8D     		ldrh	r3, [r3, #42]	@ movhi
 1141 021c 9BB2     		uxth	r3, r3
 1142 021e 013B     		subs	r3, r3, #1
 1143 0220 9AB2     		uxth	r2, r3
 1144 0222 FB68     		ldr	r3, [r7, #12]
 1145 0224 5A85     		strh	r2, [r3, #42]	@ movhi
 1146 0226 03E1     		b	.L52
 1147              	.L54:
 827:Drivers/STM32F4xx_HAL_Driver/Src/stm32f4xx_hal_i2c.c ****         }
 828:Drivers/STM32F4xx_HAL_Driver/Src/stm32f4xx_hal_i2c.c ****         /* Two bytes */
 829:Drivers/STM32F4xx_HAL_Driver/Src/stm32f4xx_hal_i2c.c ****         else if(hi2c->XferSize == 2U)
 1148              		.loc 1 829 0
 1149 0228 FB68     		ldr	r3, [r7, #12]
 1150 022a 1B8D     		ldrh	r3, [r3, #40]
 1151 022c 022B     		cmp	r3, #2
 1152 022e 4AD1     		bne	.L58
 830:Drivers/STM32F4xx_HAL_Driver/Src/stm32f4xx_hal_i2c.c ****         {
 831:Drivers/STM32F4xx_HAL_Driver/Src/stm32f4xx_hal_i2c.c ****           /* Wait until BTF flag is set */
 832:Drivers/STM32F4xx_HAL_Driver/Src/stm32f4xx_hal_i2c.c ****           if(I2C_WaitOnFlagUntilTimeout(hi2c, I2C_FLAG_BTF, RESET, Timeout, tickstart) != HAL_OK)
 1153              		.loc 1 832 0
 1154 0230 7B6A     		ldr	r3, [r7, #36]
 1155 0232 0093     		str	r3, [sp]
 1156 0234 3B6B     		ldr	r3, [r7, #48]
 1157 0236 0022     		movs	r2, #0
 1158 0238 0649     		ldr	r1, .L65+8
 1159 023a F868     		ldr	r0, [r7, #12]
 1160 023c FFF7FEFF 		bl	I2C_WaitOnFlagUntilTimeout
 1161 0240 0346     		mov	r3, r0
 1162 0242 002B     		cmp	r3, #0
 1163 0244 08D0     		beq	.L59
 833:Drivers/STM32F4xx_HAL_Driver/Src/stm32f4xx_hal_i2c.c ****           {
 834:Drivers/STM32F4xx_HAL_Driver/Src/stm32f4xx_hal_i2c.c ****             return HAL_TIMEOUT;
 1164              		.loc 1 834 0
 1165 0246 0323     		movs	r3, #3
 1166 0248 06E1     		b	.L43
 1167              	.L66:
 1168 024a 00BF     		.align	2
 1169              	.L65:
 1170 024c 02001000 		.word	1048578
 1171 0250 0000FFFF 		.word	-65536
ARM GAS  /tmp/cc3ELaEI.s 			page 36


 1172 0254 04000100 		.word	65540
 1173              	.L59:
 835:Drivers/STM32F4xx_HAL_Driver/Src/stm32f4xx_hal_i2c.c ****           }
 836:Drivers/STM32F4xx_HAL_Driver/Src/stm32f4xx_hal_i2c.c **** 
 837:Drivers/STM32F4xx_HAL_Driver/Src/stm32f4xx_hal_i2c.c ****           /* Generate Stop */
 838:Drivers/STM32F4xx_HAL_Driver/Src/stm32f4xx_hal_i2c.c ****           hi2c->Instance->CR1 |= I2C_CR1_STOP;
 1174              		.loc 1 838 0
 1175 0258 FB68     		ldr	r3, [r7, #12]
 1176 025a 1B68     		ldr	r3, [r3]
 1177 025c FA68     		ldr	r2, [r7, #12]
 1178 025e 1268     		ldr	r2, [r2]
 1179 0260 1268     		ldr	r2, [r2]
 1180 0262 42F40072 		orr	r2, r2, #512
 1181 0266 1A60     		str	r2, [r3]
 839:Drivers/STM32F4xx_HAL_Driver/Src/stm32f4xx_hal_i2c.c **** 
 840:Drivers/STM32F4xx_HAL_Driver/Src/stm32f4xx_hal_i2c.c ****           /* Read data from DR */
 841:Drivers/STM32F4xx_HAL_Driver/Src/stm32f4xx_hal_i2c.c ****           (*hi2c->pBuffPtr++) = hi2c->Instance->DR;
 1182              		.loc 1 841 0
 1183 0268 FB68     		ldr	r3, [r7, #12]
 1184 026a 5B6A     		ldr	r3, [r3, #36]
 1185 026c 591C     		adds	r1, r3, #1
 1186 026e FA68     		ldr	r2, [r7, #12]
 1187 0270 5162     		str	r1, [r2, #36]
 1188 0272 FA68     		ldr	r2, [r7, #12]
 1189 0274 1268     		ldr	r2, [r2]
 1190 0276 1269     		ldr	r2, [r2, #16]
 1191 0278 D2B2     		uxtb	r2, r2
 1192 027a 1A70     		strb	r2, [r3]
 842:Drivers/STM32F4xx_HAL_Driver/Src/stm32f4xx_hal_i2c.c ****           hi2c->XferSize--;
 1193              		.loc 1 842 0
 1194 027c FB68     		ldr	r3, [r7, #12]
 1195 027e 1B8D     		ldrh	r3, [r3, #40]
 1196 0280 013B     		subs	r3, r3, #1
 1197 0282 9AB2     		uxth	r2, r3
 1198 0284 FB68     		ldr	r3, [r7, #12]
 1199 0286 1A85     		strh	r2, [r3, #40]	@ movhi
 843:Drivers/STM32F4xx_HAL_Driver/Src/stm32f4xx_hal_i2c.c ****           hi2c->XferCount--;
 1200              		.loc 1 843 0
 1201 0288 FB68     		ldr	r3, [r7, #12]
 1202 028a 5B8D     		ldrh	r3, [r3, #42]	@ movhi
 1203 028c 9BB2     		uxth	r3, r3
 1204 028e 013B     		subs	r3, r3, #1
 1205 0290 9AB2     		uxth	r2, r3
 1206 0292 FB68     		ldr	r3, [r7, #12]
 1207 0294 5A85     		strh	r2, [r3, #42]	@ movhi
 844:Drivers/STM32F4xx_HAL_Driver/Src/stm32f4xx_hal_i2c.c **** 
 845:Drivers/STM32F4xx_HAL_Driver/Src/stm32f4xx_hal_i2c.c ****           /* Read data from DR */
 846:Drivers/STM32F4xx_HAL_Driver/Src/stm32f4xx_hal_i2c.c ****           (*hi2c->pBuffPtr++) = hi2c->Instance->DR;
 1208              		.loc 1 846 0
 1209 0296 FB68     		ldr	r3, [r7, #12]
 1210 0298 5B6A     		ldr	r3, [r3, #36]
 1211 029a 591C     		adds	r1, r3, #1
 1212 029c FA68     		ldr	r2, [r7, #12]
 1213 029e 5162     		str	r1, [r2, #36]
 1214 02a0 FA68     		ldr	r2, [r7, #12]
 1215 02a2 1268     		ldr	r2, [r2]
 1216 02a4 1269     		ldr	r2, [r2, #16]
ARM GAS  /tmp/cc3ELaEI.s 			page 37


 1217 02a6 D2B2     		uxtb	r2, r2
 1218 02a8 1A70     		strb	r2, [r3]
 847:Drivers/STM32F4xx_HAL_Driver/Src/stm32f4xx_hal_i2c.c ****           hi2c->XferSize--;
 1219              		.loc 1 847 0
 1220 02aa FB68     		ldr	r3, [r7, #12]
 1221 02ac 1B8D     		ldrh	r3, [r3, #40]
 1222 02ae 013B     		subs	r3, r3, #1
 1223 02b0 9AB2     		uxth	r2, r3
 1224 02b2 FB68     		ldr	r3, [r7, #12]
 1225 02b4 1A85     		strh	r2, [r3, #40]	@ movhi
 848:Drivers/STM32F4xx_HAL_Driver/Src/stm32f4xx_hal_i2c.c ****           hi2c->XferCount--;
 1226              		.loc 1 848 0
 1227 02b6 FB68     		ldr	r3, [r7, #12]
 1228 02b8 5B8D     		ldrh	r3, [r3, #42]	@ movhi
 1229 02ba 9BB2     		uxth	r3, r3
 1230 02bc 013B     		subs	r3, r3, #1
 1231 02be 9AB2     		uxth	r2, r3
 1232 02c0 FB68     		ldr	r3, [r7, #12]
 1233 02c2 5A85     		strh	r2, [r3, #42]	@ movhi
 1234 02c4 B4E0     		b	.L52
 1235              	.L58:
 849:Drivers/STM32F4xx_HAL_Driver/Src/stm32f4xx_hal_i2c.c ****         }
 850:Drivers/STM32F4xx_HAL_Driver/Src/stm32f4xx_hal_i2c.c ****         /* 3 Last bytes */
 851:Drivers/STM32F4xx_HAL_Driver/Src/stm32f4xx_hal_i2c.c ****         else
 852:Drivers/STM32F4xx_HAL_Driver/Src/stm32f4xx_hal_i2c.c ****         {
 853:Drivers/STM32F4xx_HAL_Driver/Src/stm32f4xx_hal_i2c.c ****           /* Wait until BTF flag is set */
 854:Drivers/STM32F4xx_HAL_Driver/Src/stm32f4xx_hal_i2c.c ****           if(I2C_WaitOnFlagUntilTimeout(hi2c, I2C_FLAG_BTF, RESET, Timeout, tickstart) != HAL_OK)
 1236              		.loc 1 854 0
 1237 02c6 7B6A     		ldr	r3, [r7, #36]
 1238 02c8 0093     		str	r3, [sp]
 1239 02ca 3B6B     		ldr	r3, [r7, #48]
 1240 02cc 0022     		movs	r2, #0
 1241 02ce 6449     		ldr	r1, .L67
 1242 02d0 F868     		ldr	r0, [r7, #12]
 1243 02d2 FFF7FEFF 		bl	I2C_WaitOnFlagUntilTimeout
 1244 02d6 0346     		mov	r3, r0
 1245 02d8 002B     		cmp	r3, #0
 1246 02da 01D0     		beq	.L60
 855:Drivers/STM32F4xx_HAL_Driver/Src/stm32f4xx_hal_i2c.c ****           {
 856:Drivers/STM32F4xx_HAL_Driver/Src/stm32f4xx_hal_i2c.c ****             return HAL_TIMEOUT;
 1247              		.loc 1 856 0
 1248 02dc 0323     		movs	r3, #3
 1249 02de BBE0     		b	.L43
 1250              	.L60:
 857:Drivers/STM32F4xx_HAL_Driver/Src/stm32f4xx_hal_i2c.c ****           }
 858:Drivers/STM32F4xx_HAL_Driver/Src/stm32f4xx_hal_i2c.c **** 
 859:Drivers/STM32F4xx_HAL_Driver/Src/stm32f4xx_hal_i2c.c ****           /* Disable Acknowledge */
 860:Drivers/STM32F4xx_HAL_Driver/Src/stm32f4xx_hal_i2c.c ****           hi2c->Instance->CR1 &= ~I2C_CR1_ACK;
 1251              		.loc 1 860 0
 1252 02e0 FB68     		ldr	r3, [r7, #12]
 1253 02e2 1B68     		ldr	r3, [r3]
 1254 02e4 FA68     		ldr	r2, [r7, #12]
 1255 02e6 1268     		ldr	r2, [r2]
 1256 02e8 1268     		ldr	r2, [r2]
 1257 02ea 22F48062 		bic	r2, r2, #1024
 1258 02ee 1A60     		str	r2, [r3]
 861:Drivers/STM32F4xx_HAL_Driver/Src/stm32f4xx_hal_i2c.c **** 
ARM GAS  /tmp/cc3ELaEI.s 			page 38


 862:Drivers/STM32F4xx_HAL_Driver/Src/stm32f4xx_hal_i2c.c ****           /* Read data from DR */
 863:Drivers/STM32F4xx_HAL_Driver/Src/stm32f4xx_hal_i2c.c ****           (*hi2c->pBuffPtr++) = hi2c->Instance->DR;
 1259              		.loc 1 863 0
 1260 02f0 FB68     		ldr	r3, [r7, #12]
 1261 02f2 5B6A     		ldr	r3, [r3, #36]
 1262 02f4 591C     		adds	r1, r3, #1
 1263 02f6 FA68     		ldr	r2, [r7, #12]
 1264 02f8 5162     		str	r1, [r2, #36]
 1265 02fa FA68     		ldr	r2, [r7, #12]
 1266 02fc 1268     		ldr	r2, [r2]
 1267 02fe 1269     		ldr	r2, [r2, #16]
 1268 0300 D2B2     		uxtb	r2, r2
 1269 0302 1A70     		strb	r2, [r3]
 864:Drivers/STM32F4xx_HAL_Driver/Src/stm32f4xx_hal_i2c.c ****           hi2c->XferSize--;
 1270              		.loc 1 864 0
 1271 0304 FB68     		ldr	r3, [r7, #12]
 1272 0306 1B8D     		ldrh	r3, [r3, #40]
 1273 0308 013B     		subs	r3, r3, #1
 1274 030a 9AB2     		uxth	r2, r3
 1275 030c FB68     		ldr	r3, [r7, #12]
 1276 030e 1A85     		strh	r2, [r3, #40]	@ movhi
 865:Drivers/STM32F4xx_HAL_Driver/Src/stm32f4xx_hal_i2c.c ****           hi2c->XferCount--;
 1277              		.loc 1 865 0
 1278 0310 FB68     		ldr	r3, [r7, #12]
 1279 0312 5B8D     		ldrh	r3, [r3, #42]	@ movhi
 1280 0314 9BB2     		uxth	r3, r3
 1281 0316 013B     		subs	r3, r3, #1
 1282 0318 9AB2     		uxth	r2, r3
 1283 031a FB68     		ldr	r3, [r7, #12]
 1284 031c 5A85     		strh	r2, [r3, #42]	@ movhi
 866:Drivers/STM32F4xx_HAL_Driver/Src/stm32f4xx_hal_i2c.c **** 
 867:Drivers/STM32F4xx_HAL_Driver/Src/stm32f4xx_hal_i2c.c ****           /* Wait until BTF flag is set */
 868:Drivers/STM32F4xx_HAL_Driver/Src/stm32f4xx_hal_i2c.c ****           if(I2C_WaitOnFlagUntilTimeout(hi2c, I2C_FLAG_BTF, RESET, Timeout, tickstart) != HAL_OK)
 1285              		.loc 1 868 0
 1286 031e 7B6A     		ldr	r3, [r7, #36]
 1287 0320 0093     		str	r3, [sp]
 1288 0322 3B6B     		ldr	r3, [r7, #48]
 1289 0324 0022     		movs	r2, #0
 1290 0326 4E49     		ldr	r1, .L67
 1291 0328 F868     		ldr	r0, [r7, #12]
 1292 032a FFF7FEFF 		bl	I2C_WaitOnFlagUntilTimeout
 1293 032e 0346     		mov	r3, r0
 1294 0330 002B     		cmp	r3, #0
 1295 0332 01D0     		beq	.L61
 869:Drivers/STM32F4xx_HAL_Driver/Src/stm32f4xx_hal_i2c.c ****           {
 870:Drivers/STM32F4xx_HAL_Driver/Src/stm32f4xx_hal_i2c.c ****             return HAL_TIMEOUT;
 1296              		.loc 1 870 0
 1297 0334 0323     		movs	r3, #3
 1298 0336 8FE0     		b	.L43
 1299              	.L61:
 871:Drivers/STM32F4xx_HAL_Driver/Src/stm32f4xx_hal_i2c.c ****           }
 872:Drivers/STM32F4xx_HAL_Driver/Src/stm32f4xx_hal_i2c.c **** 
 873:Drivers/STM32F4xx_HAL_Driver/Src/stm32f4xx_hal_i2c.c ****           /* Generate Stop */
 874:Drivers/STM32F4xx_HAL_Driver/Src/stm32f4xx_hal_i2c.c ****           hi2c->Instance->CR1 |= I2C_CR1_STOP;
 1300              		.loc 1 874 0
 1301 0338 FB68     		ldr	r3, [r7, #12]
 1302 033a 1B68     		ldr	r3, [r3]
ARM GAS  /tmp/cc3ELaEI.s 			page 39


 1303 033c FA68     		ldr	r2, [r7, #12]
 1304 033e 1268     		ldr	r2, [r2]
 1305 0340 1268     		ldr	r2, [r2]
 1306 0342 42F40072 		orr	r2, r2, #512
 1307 0346 1A60     		str	r2, [r3]
 875:Drivers/STM32F4xx_HAL_Driver/Src/stm32f4xx_hal_i2c.c **** 
 876:Drivers/STM32F4xx_HAL_Driver/Src/stm32f4xx_hal_i2c.c ****           /* Read data from DR */
 877:Drivers/STM32F4xx_HAL_Driver/Src/stm32f4xx_hal_i2c.c ****           (*hi2c->pBuffPtr++) = hi2c->Instance->DR;
 1308              		.loc 1 877 0
 1309 0348 FB68     		ldr	r3, [r7, #12]
 1310 034a 5B6A     		ldr	r3, [r3, #36]
 1311 034c 591C     		adds	r1, r3, #1
 1312 034e FA68     		ldr	r2, [r7, #12]
 1313 0350 5162     		str	r1, [r2, #36]
 1314 0352 FA68     		ldr	r2, [r7, #12]
 1315 0354 1268     		ldr	r2, [r2]
 1316 0356 1269     		ldr	r2, [r2, #16]
 1317 0358 D2B2     		uxtb	r2, r2
 1318 035a 1A70     		strb	r2, [r3]
 878:Drivers/STM32F4xx_HAL_Driver/Src/stm32f4xx_hal_i2c.c ****           hi2c->XferSize--;
 1319              		.loc 1 878 0
 1320 035c FB68     		ldr	r3, [r7, #12]
 1321 035e 1B8D     		ldrh	r3, [r3, #40]
 1322 0360 013B     		subs	r3, r3, #1
 1323 0362 9AB2     		uxth	r2, r3
 1324 0364 FB68     		ldr	r3, [r7, #12]
 1325 0366 1A85     		strh	r2, [r3, #40]	@ movhi
 879:Drivers/STM32F4xx_HAL_Driver/Src/stm32f4xx_hal_i2c.c ****           hi2c->XferCount--;
 1326              		.loc 1 879 0
 1327 0368 FB68     		ldr	r3, [r7, #12]
 1328 036a 5B8D     		ldrh	r3, [r3, #42]	@ movhi
 1329 036c 9BB2     		uxth	r3, r3
 1330 036e 013B     		subs	r3, r3, #1
 1331 0370 9AB2     		uxth	r2, r3
 1332 0372 FB68     		ldr	r3, [r7, #12]
 1333 0374 5A85     		strh	r2, [r3, #42]	@ movhi
 880:Drivers/STM32F4xx_HAL_Driver/Src/stm32f4xx_hal_i2c.c **** 
 881:Drivers/STM32F4xx_HAL_Driver/Src/stm32f4xx_hal_i2c.c ****           /* Read data from DR */
 882:Drivers/STM32F4xx_HAL_Driver/Src/stm32f4xx_hal_i2c.c ****           (*hi2c->pBuffPtr++) = hi2c->Instance->DR;
 1334              		.loc 1 882 0
 1335 0376 FB68     		ldr	r3, [r7, #12]
 1336 0378 5B6A     		ldr	r3, [r3, #36]
 1337 037a 591C     		adds	r1, r3, #1
 1338 037c FA68     		ldr	r2, [r7, #12]
 1339 037e 5162     		str	r1, [r2, #36]
 1340 0380 FA68     		ldr	r2, [r7, #12]
 1341 0382 1268     		ldr	r2, [r2]
 1342 0384 1269     		ldr	r2, [r2, #16]
 1343 0386 D2B2     		uxtb	r2, r2
 1344 0388 1A70     		strb	r2, [r3]
 883:Drivers/STM32F4xx_HAL_Driver/Src/stm32f4xx_hal_i2c.c ****           hi2c->XferSize--;
 1345              		.loc 1 883 0
 1346 038a FB68     		ldr	r3, [r7, #12]
 1347 038c 1B8D     		ldrh	r3, [r3, #40]
 1348 038e 013B     		subs	r3, r3, #1
 1349 0390 9AB2     		uxth	r2, r3
 1350 0392 FB68     		ldr	r3, [r7, #12]
ARM GAS  /tmp/cc3ELaEI.s 			page 40


 1351 0394 1A85     		strh	r2, [r3, #40]	@ movhi
 884:Drivers/STM32F4xx_HAL_Driver/Src/stm32f4xx_hal_i2c.c ****           hi2c->XferCount--;
 1352              		.loc 1 884 0
 1353 0396 FB68     		ldr	r3, [r7, #12]
 1354 0398 5B8D     		ldrh	r3, [r3, #42]	@ movhi
 1355 039a 9BB2     		uxth	r3, r3
 1356 039c 013B     		subs	r3, r3, #1
 1357 039e 9AB2     		uxth	r2, r3
 1358 03a0 FB68     		ldr	r3, [r7, #12]
 1359 03a2 5A85     		strh	r2, [r3, #42]	@ movhi
 1360 03a4 44E0     		b	.L52
 1361              	.L53:
 885:Drivers/STM32F4xx_HAL_Driver/Src/stm32f4xx_hal_i2c.c ****         }
 886:Drivers/STM32F4xx_HAL_Driver/Src/stm32f4xx_hal_i2c.c ****       }
 887:Drivers/STM32F4xx_HAL_Driver/Src/stm32f4xx_hal_i2c.c ****       else
 888:Drivers/STM32F4xx_HAL_Driver/Src/stm32f4xx_hal_i2c.c ****       {
 889:Drivers/STM32F4xx_HAL_Driver/Src/stm32f4xx_hal_i2c.c ****         /* Wait until RXNE flag is set */
 890:Drivers/STM32F4xx_HAL_Driver/Src/stm32f4xx_hal_i2c.c ****         if(I2C_WaitOnRXNEFlagUntilTimeout(hi2c, Timeout, tickstart) != HAL_OK)      
 1362              		.loc 1 890 0
 1363 03a6 7A6A     		ldr	r2, [r7, #36]
 1364 03a8 396B     		ldr	r1, [r7, #48]
 1365 03aa F868     		ldr	r0, [r7, #12]
 1366 03ac FFF7FEFF 		bl	I2C_WaitOnRXNEFlagUntilTimeout
 1367 03b0 0346     		mov	r3, r0
 1368 03b2 002B     		cmp	r3, #0
 1369 03b4 07D0     		beq	.L62
 891:Drivers/STM32F4xx_HAL_Driver/Src/stm32f4xx_hal_i2c.c ****         {
 892:Drivers/STM32F4xx_HAL_Driver/Src/stm32f4xx_hal_i2c.c ****           if(hi2c->ErrorCode == HAL_I2C_ERROR_TIMEOUT)
 1370              		.loc 1 892 0
 1371 03b6 FB68     		ldr	r3, [r7, #12]
 1372 03b8 1B6C     		ldr	r3, [r3, #64]
 1373 03ba 202B     		cmp	r3, #32
 1374 03bc 01D1     		bne	.L63
 893:Drivers/STM32F4xx_HAL_Driver/Src/stm32f4xx_hal_i2c.c ****           {
 894:Drivers/STM32F4xx_HAL_Driver/Src/stm32f4xx_hal_i2c.c ****             return HAL_TIMEOUT;
 1375              		.loc 1 894 0
 1376 03be 0323     		movs	r3, #3
 1377 03c0 4AE0     		b	.L43
 1378              	.L63:
 895:Drivers/STM32F4xx_HAL_Driver/Src/stm32f4xx_hal_i2c.c ****           }
 896:Drivers/STM32F4xx_HAL_Driver/Src/stm32f4xx_hal_i2c.c ****           else
 897:Drivers/STM32F4xx_HAL_Driver/Src/stm32f4xx_hal_i2c.c ****           {
 898:Drivers/STM32F4xx_HAL_Driver/Src/stm32f4xx_hal_i2c.c ****             return HAL_ERROR;
 1379              		.loc 1 898 0
 1380 03c2 0123     		movs	r3, #1
 1381 03c4 48E0     		b	.L43
 1382              	.L62:
 899:Drivers/STM32F4xx_HAL_Driver/Src/stm32f4xx_hal_i2c.c ****           }
 900:Drivers/STM32F4xx_HAL_Driver/Src/stm32f4xx_hal_i2c.c ****         }
 901:Drivers/STM32F4xx_HAL_Driver/Src/stm32f4xx_hal_i2c.c **** 
 902:Drivers/STM32F4xx_HAL_Driver/Src/stm32f4xx_hal_i2c.c ****         /* Read data from DR */
 903:Drivers/STM32F4xx_HAL_Driver/Src/stm32f4xx_hal_i2c.c ****         (*hi2c->pBuffPtr++) = hi2c->Instance->DR;
 1383              		.loc 1 903 0
 1384 03c6 FB68     		ldr	r3, [r7, #12]
 1385 03c8 5B6A     		ldr	r3, [r3, #36]
 1386 03ca 591C     		adds	r1, r3, #1
 1387 03cc FA68     		ldr	r2, [r7, #12]
ARM GAS  /tmp/cc3ELaEI.s 			page 41


 1388 03ce 5162     		str	r1, [r2, #36]
 1389 03d0 FA68     		ldr	r2, [r7, #12]
 1390 03d2 1268     		ldr	r2, [r2]
 1391 03d4 1269     		ldr	r2, [r2, #16]
 1392 03d6 D2B2     		uxtb	r2, r2
 1393 03d8 1A70     		strb	r2, [r3]
 904:Drivers/STM32F4xx_HAL_Driver/Src/stm32f4xx_hal_i2c.c ****         hi2c->XferSize--;
 1394              		.loc 1 904 0
 1395 03da FB68     		ldr	r3, [r7, #12]
 1396 03dc 1B8D     		ldrh	r3, [r3, #40]
 1397 03de 013B     		subs	r3, r3, #1
 1398 03e0 9AB2     		uxth	r2, r3
 1399 03e2 FB68     		ldr	r3, [r7, #12]
 1400 03e4 1A85     		strh	r2, [r3, #40]	@ movhi
 905:Drivers/STM32F4xx_HAL_Driver/Src/stm32f4xx_hal_i2c.c ****         hi2c->XferCount--;
 1401              		.loc 1 905 0
 1402 03e6 FB68     		ldr	r3, [r7, #12]
 1403 03e8 5B8D     		ldrh	r3, [r3, #42]	@ movhi
 1404 03ea 9BB2     		uxth	r3, r3
 1405 03ec 013B     		subs	r3, r3, #1
 1406 03ee 9AB2     		uxth	r2, r3
 1407 03f0 FB68     		ldr	r3, [r7, #12]
 1408 03f2 5A85     		strh	r2, [r3, #42]	@ movhi
 906:Drivers/STM32F4xx_HAL_Driver/Src/stm32f4xx_hal_i2c.c **** 
 907:Drivers/STM32F4xx_HAL_Driver/Src/stm32f4xx_hal_i2c.c ****         if(__HAL_I2C_GET_FLAG(hi2c, I2C_FLAG_BTF) == SET)
 1409              		.loc 1 907 0
 1410 03f4 FB68     		ldr	r3, [r7, #12]
 1411 03f6 1B68     		ldr	r3, [r3]
 1412 03f8 5B69     		ldr	r3, [r3, #20]
 1413 03fa 03F00403 		and	r3, r3, #4
 1414 03fe 002B     		cmp	r3, #0
 1415 0400 16D0     		beq	.L52
 908:Drivers/STM32F4xx_HAL_Driver/Src/stm32f4xx_hal_i2c.c ****         {
 909:Drivers/STM32F4xx_HAL_Driver/Src/stm32f4xx_hal_i2c.c ****           /* Read data from DR */
 910:Drivers/STM32F4xx_HAL_Driver/Src/stm32f4xx_hal_i2c.c ****           (*hi2c->pBuffPtr++) = hi2c->Instance->DR;
 1416              		.loc 1 910 0
 1417 0402 FB68     		ldr	r3, [r7, #12]
 1418 0404 5B6A     		ldr	r3, [r3, #36]
 1419 0406 591C     		adds	r1, r3, #1
 1420 0408 FA68     		ldr	r2, [r7, #12]
 1421 040a 5162     		str	r1, [r2, #36]
 1422 040c FA68     		ldr	r2, [r7, #12]
 1423 040e 1268     		ldr	r2, [r2]
 1424 0410 1269     		ldr	r2, [r2, #16]
 1425 0412 D2B2     		uxtb	r2, r2
 1426 0414 1A70     		strb	r2, [r3]
 911:Drivers/STM32F4xx_HAL_Driver/Src/stm32f4xx_hal_i2c.c ****           hi2c->XferSize--;
 1427              		.loc 1 911 0
 1428 0416 FB68     		ldr	r3, [r7, #12]
 1429 0418 1B8D     		ldrh	r3, [r3, #40]
 1430 041a 013B     		subs	r3, r3, #1
 1431 041c 9AB2     		uxth	r2, r3
 1432 041e FB68     		ldr	r3, [r7, #12]
 1433 0420 1A85     		strh	r2, [r3, #40]	@ movhi
 912:Drivers/STM32F4xx_HAL_Driver/Src/stm32f4xx_hal_i2c.c ****           hi2c->XferCount--;
 1434              		.loc 1 912 0
 1435 0422 FB68     		ldr	r3, [r7, #12]
ARM GAS  /tmp/cc3ELaEI.s 			page 42


 1436 0424 5B8D     		ldrh	r3, [r3, #42]	@ movhi
 1437 0426 9BB2     		uxth	r3, r3
 1438 0428 013B     		subs	r3, r3, #1
 1439 042a 9AB2     		uxth	r2, r3
 1440 042c FB68     		ldr	r3, [r7, #12]
 1441 042e 5A85     		strh	r2, [r3, #42]	@ movhi
 1442              	.L52:
 803:Drivers/STM32F4xx_HAL_Driver/Src/stm32f4xx_hal_i2c.c ****     {
 1443              		.loc 1 803 0
 1444 0430 FB68     		ldr	r3, [r7, #12]
 1445 0432 1B8D     		ldrh	r3, [r3, #40]
 1446 0434 002B     		cmp	r3, #0
 1447 0436 7FF4C6AE 		bne	.L64
 913:Drivers/STM32F4xx_HAL_Driver/Src/stm32f4xx_hal_i2c.c ****         }
 914:Drivers/STM32F4xx_HAL_Driver/Src/stm32f4xx_hal_i2c.c ****       }
 915:Drivers/STM32F4xx_HAL_Driver/Src/stm32f4xx_hal_i2c.c ****     }
 916:Drivers/STM32F4xx_HAL_Driver/Src/stm32f4xx_hal_i2c.c **** 
 917:Drivers/STM32F4xx_HAL_Driver/Src/stm32f4xx_hal_i2c.c ****     hi2c->State = HAL_I2C_STATE_READY;
 1448              		.loc 1 917 0
 1449 043a FB68     		ldr	r3, [r7, #12]
 1450 043c 2022     		movs	r2, #32
 1451 043e 83F83D20 		strb	r2, [r3, #61]
 918:Drivers/STM32F4xx_HAL_Driver/Src/stm32f4xx_hal_i2c.c ****     hi2c->Mode = HAL_I2C_MODE_NONE;
 1452              		.loc 1 918 0
 1453 0442 FB68     		ldr	r3, [r7, #12]
 1454 0444 0022     		movs	r2, #0
 1455 0446 83F83E20 		strb	r2, [r3, #62]
 919:Drivers/STM32F4xx_HAL_Driver/Src/stm32f4xx_hal_i2c.c **** 
 920:Drivers/STM32F4xx_HAL_Driver/Src/stm32f4xx_hal_i2c.c ****     /* Process Unlocked */
 921:Drivers/STM32F4xx_HAL_Driver/Src/stm32f4xx_hal_i2c.c ****     __HAL_UNLOCK(hi2c);
 1456              		.loc 1 921 0
 1457 044a FB68     		ldr	r3, [r7, #12]
 1458 044c 0022     		movs	r2, #0
 1459 044e 83F83C20 		strb	r2, [r3, #60]
 922:Drivers/STM32F4xx_HAL_Driver/Src/stm32f4xx_hal_i2c.c **** 
 923:Drivers/STM32F4xx_HAL_Driver/Src/stm32f4xx_hal_i2c.c ****     return HAL_OK;
 1460              		.loc 1 923 0
 1461 0452 0023     		movs	r3, #0
 1462 0454 00E0     		b	.L43
 1463              	.L41:
 924:Drivers/STM32F4xx_HAL_Driver/Src/stm32f4xx_hal_i2c.c ****   }
 925:Drivers/STM32F4xx_HAL_Driver/Src/stm32f4xx_hal_i2c.c ****   else
 926:Drivers/STM32F4xx_HAL_Driver/Src/stm32f4xx_hal_i2c.c ****   {
 927:Drivers/STM32F4xx_HAL_Driver/Src/stm32f4xx_hal_i2c.c ****     return HAL_BUSY;
 1464              		.loc 1 927 0
 1465 0456 0223     		movs	r3, #2
 1466              	.L43:
 928:Drivers/STM32F4xx_HAL_Driver/Src/stm32f4xx_hal_i2c.c ****   }
 929:Drivers/STM32F4xx_HAL_Driver/Src/stm32f4xx_hal_i2c.c **** }
 1467              		.loc 1 929 0
 1468 0458 1846     		mov	r0, r3
 1469 045a 2837     		adds	r7, r7, #40
 1470              	.LCFI30:
 1471              		.cfi_def_cfa_offset 8
 1472 045c BD46     		mov	sp, r7
 1473              	.LCFI31:
 1474              		.cfi_def_cfa_register 13
ARM GAS  /tmp/cc3ELaEI.s 			page 43


 1475              		@ sp needed
 1476 045e 80BD     		pop	{r7, pc}
 1477              	.L68:
 1478              		.align	2
 1479              	.L67:
 1480 0460 04000100 		.word	65540
 1481              		.cfi_endproc
 1482              	.LFE131:
 1484              		.section	.text.HAL_I2C_Slave_Transmit,"ax",%progbits
 1485              		.align	2
 1486              		.global	HAL_I2C_Slave_Transmit
 1487              		.thumb
 1488              		.thumb_func
 1490              	HAL_I2C_Slave_Transmit:
 1491              	.LFB132:
 930:Drivers/STM32F4xx_HAL_Driver/Src/stm32f4xx_hal_i2c.c **** 
 931:Drivers/STM32F4xx_HAL_Driver/Src/stm32f4xx_hal_i2c.c **** /**
 932:Drivers/STM32F4xx_HAL_Driver/Src/stm32f4xx_hal_i2c.c ****   * @brief  Transmits in slave mode an amount of data in blocking mode. 
 933:Drivers/STM32F4xx_HAL_Driver/Src/stm32f4xx_hal_i2c.c ****   * @param  hi2c Pointer to a I2C_HandleTypeDef structure that contains
 934:Drivers/STM32F4xx_HAL_Driver/Src/stm32f4xx_hal_i2c.c ****   *                the configuration information for the specified I2C.
 935:Drivers/STM32F4xx_HAL_Driver/Src/stm32f4xx_hal_i2c.c ****   * @param  pData Pointer to data buffer
 936:Drivers/STM32F4xx_HAL_Driver/Src/stm32f4xx_hal_i2c.c ****   * @param  Size Amount of data to be sent
 937:Drivers/STM32F4xx_HAL_Driver/Src/stm32f4xx_hal_i2c.c ****   * @param  Timeout Timeout duration
 938:Drivers/STM32F4xx_HAL_Driver/Src/stm32f4xx_hal_i2c.c ****   * @retval HAL status
 939:Drivers/STM32F4xx_HAL_Driver/Src/stm32f4xx_hal_i2c.c ****   */
 940:Drivers/STM32F4xx_HAL_Driver/Src/stm32f4xx_hal_i2c.c **** HAL_StatusTypeDef HAL_I2C_Slave_Transmit(I2C_HandleTypeDef *hi2c, uint8_t *pData, uint16_t Size, ui
 941:Drivers/STM32F4xx_HAL_Driver/Src/stm32f4xx_hal_i2c.c **** {
 1492              		.loc 1 941 0
 1493              		.cfi_startproc
 1494              		@ args = 0, pretend = 0, frame = 32
 1495              		@ frame_needed = 1, uses_anonymous_args = 0
 1496 0000 80B5     		push	{r7, lr}
 1497              	.LCFI32:
 1498              		.cfi_def_cfa_offset 8
 1499              		.cfi_offset 7, -8
 1500              		.cfi_offset 14, -4
 1501 0002 8AB0     		sub	sp, sp, #40
 1502              	.LCFI33:
 1503              		.cfi_def_cfa_offset 48
 1504 0004 02AF     		add	r7, sp, #8
 1505              	.LCFI34:
 1506              		.cfi_def_cfa 7, 40
 1507 0006 F860     		str	r0, [r7, #12]
 1508 0008 B960     		str	r1, [r7, #8]
 1509 000a 3B60     		str	r3, [r7]
 1510 000c 1346     		mov	r3, r2	@ movhi
 1511 000e FB80     		strh	r3, [r7, #6]	@ movhi
 942:Drivers/STM32F4xx_HAL_Driver/Src/stm32f4xx_hal_i2c.c ****   uint32_t tickstart = 0x00U;
 1512              		.loc 1 942 0
 1513 0010 0023     		movs	r3, #0
 1514 0012 FB61     		str	r3, [r7, #28]
 943:Drivers/STM32F4xx_HAL_Driver/Src/stm32f4xx_hal_i2c.c ****   
 944:Drivers/STM32F4xx_HAL_Driver/Src/stm32f4xx_hal_i2c.c ****   /* Init tickstart for timeout management*/
 945:Drivers/STM32F4xx_HAL_Driver/Src/stm32f4xx_hal_i2c.c ****   tickstart = HAL_GetTick();
 1515              		.loc 1 945 0
 1516 0014 FFF7FEFF 		bl	HAL_GetTick
 1517 0018 F861     		str	r0, [r7, #28]
ARM GAS  /tmp/cc3ELaEI.s 			page 44


 946:Drivers/STM32F4xx_HAL_Driver/Src/stm32f4xx_hal_i2c.c ****   
 947:Drivers/STM32F4xx_HAL_Driver/Src/stm32f4xx_hal_i2c.c ****   if(hi2c->State == HAL_I2C_STATE_READY)
 1518              		.loc 1 947 0
 1519 001a FB68     		ldr	r3, [r7, #12]
 1520 001c 93F83D30 		ldrb	r3, [r3, #61]
 1521 0020 DBB2     		uxtb	r3, r3
 1522 0022 202B     		cmp	r3, #32
 1523 0024 40F0FC80 		bne	.L70
 948:Drivers/STM32F4xx_HAL_Driver/Src/stm32f4xx_hal_i2c.c ****   {
 949:Drivers/STM32F4xx_HAL_Driver/Src/stm32f4xx_hal_i2c.c ****     if((pData == NULL) || (Size == 0U))
 1524              		.loc 1 949 0
 1525 0028 BB68     		ldr	r3, [r7, #8]
 1526 002a 002B     		cmp	r3, #0
 1527 002c 02D0     		beq	.L71
 1528              		.loc 1 949 0 is_stmt 0 discriminator 1
 1529 002e FB88     		ldrh	r3, [r7, #6]
 1530 0030 002B     		cmp	r3, #0
 1531 0032 01D1     		bne	.L72
 1532              	.L71:
 950:Drivers/STM32F4xx_HAL_Driver/Src/stm32f4xx_hal_i2c.c ****     {
 951:Drivers/STM32F4xx_HAL_Driver/Src/stm32f4xx_hal_i2c.c ****       return  HAL_ERROR;
 1533              		.loc 1 951 0 is_stmt 1
 1534 0034 0123     		movs	r3, #1
 1535 0036 F4E0     		b	.L73
 1536              	.L72:
 952:Drivers/STM32F4xx_HAL_Driver/Src/stm32f4xx_hal_i2c.c ****     }
 953:Drivers/STM32F4xx_HAL_Driver/Src/stm32f4xx_hal_i2c.c **** 
 954:Drivers/STM32F4xx_HAL_Driver/Src/stm32f4xx_hal_i2c.c ****     /* Process Locked */
 955:Drivers/STM32F4xx_HAL_Driver/Src/stm32f4xx_hal_i2c.c ****     __HAL_LOCK(hi2c);
 1537              		.loc 1 955 0
 1538 0038 FB68     		ldr	r3, [r7, #12]
 1539 003a 93F83C30 		ldrb	r3, [r3, #60]	@ zero_extendqisi2
 1540 003e 012B     		cmp	r3, #1
 1541 0040 01D1     		bne	.L74
 1542              		.loc 1 955 0 is_stmt 0 discriminator 1
 1543 0042 0223     		movs	r3, #2
 1544 0044 EDE0     		b	.L73
 1545              	.L74:
 1546              		.loc 1 955 0 discriminator 2
 1547 0046 FB68     		ldr	r3, [r7, #12]
 1548 0048 0122     		movs	r2, #1
 1549 004a 83F83C20 		strb	r2, [r3, #60]
 956:Drivers/STM32F4xx_HAL_Driver/Src/stm32f4xx_hal_i2c.c ****     
 957:Drivers/STM32F4xx_HAL_Driver/Src/stm32f4xx_hal_i2c.c ****     /* Check if the I2C is already enabled */
 958:Drivers/STM32F4xx_HAL_Driver/Src/stm32f4xx_hal_i2c.c ****     if((hi2c->Instance->CR1 & I2C_CR1_PE) != I2C_CR1_PE)
 1550              		.loc 1 958 0 is_stmt 1 discriminator 2
 1551 004e FB68     		ldr	r3, [r7, #12]
 1552 0050 1B68     		ldr	r3, [r3]
 1553 0052 1B68     		ldr	r3, [r3]
 1554 0054 03F00103 		and	r3, r3, #1
 1555 0058 002B     		cmp	r3, #0
 1556 005a 07D1     		bne	.L75
 959:Drivers/STM32F4xx_HAL_Driver/Src/stm32f4xx_hal_i2c.c ****     {
 960:Drivers/STM32F4xx_HAL_Driver/Src/stm32f4xx_hal_i2c.c ****       /* Enable I2C peripheral */
 961:Drivers/STM32F4xx_HAL_Driver/Src/stm32f4xx_hal_i2c.c ****       __HAL_I2C_ENABLE(hi2c);
 1557              		.loc 1 961 0
 1558 005c FB68     		ldr	r3, [r7, #12]
ARM GAS  /tmp/cc3ELaEI.s 			page 45


 1559 005e 1B68     		ldr	r3, [r3]
 1560 0060 FA68     		ldr	r2, [r7, #12]
 1561 0062 1268     		ldr	r2, [r2]
 1562 0064 1268     		ldr	r2, [r2]
 1563 0066 42F00102 		orr	r2, r2, #1
 1564 006a 1A60     		str	r2, [r3]
 1565              	.L75:
 962:Drivers/STM32F4xx_HAL_Driver/Src/stm32f4xx_hal_i2c.c ****     }
 963:Drivers/STM32F4xx_HAL_Driver/Src/stm32f4xx_hal_i2c.c **** 
 964:Drivers/STM32F4xx_HAL_Driver/Src/stm32f4xx_hal_i2c.c ****     /* Disable Pos */
 965:Drivers/STM32F4xx_HAL_Driver/Src/stm32f4xx_hal_i2c.c ****     hi2c->Instance->CR1 &= ~I2C_CR1_POS;
 1566              		.loc 1 965 0
 1567 006c FB68     		ldr	r3, [r7, #12]
 1568 006e 1B68     		ldr	r3, [r3]
 1569 0070 FA68     		ldr	r2, [r7, #12]
 1570 0072 1268     		ldr	r2, [r2]
 1571 0074 1268     		ldr	r2, [r2]
 1572 0076 22F40062 		bic	r2, r2, #2048
 1573 007a 1A60     		str	r2, [r3]
 966:Drivers/STM32F4xx_HAL_Driver/Src/stm32f4xx_hal_i2c.c **** 
 967:Drivers/STM32F4xx_HAL_Driver/Src/stm32f4xx_hal_i2c.c ****     hi2c->State       = HAL_I2C_STATE_BUSY_TX;
 1574              		.loc 1 967 0
 1575 007c FB68     		ldr	r3, [r7, #12]
 1576 007e 2122     		movs	r2, #33
 1577 0080 83F83D20 		strb	r2, [r3, #61]
 968:Drivers/STM32F4xx_HAL_Driver/Src/stm32f4xx_hal_i2c.c ****     hi2c->Mode        = HAL_I2C_MODE_SLAVE;
 1578              		.loc 1 968 0
 1579 0084 FB68     		ldr	r3, [r7, #12]
 1580 0086 2022     		movs	r2, #32
 1581 0088 83F83E20 		strb	r2, [r3, #62]
 969:Drivers/STM32F4xx_HAL_Driver/Src/stm32f4xx_hal_i2c.c ****     hi2c->ErrorCode   = HAL_I2C_ERROR_NONE;
 1582              		.loc 1 969 0
 1583 008c FB68     		ldr	r3, [r7, #12]
 1584 008e 0022     		movs	r2, #0
 1585 0090 1A64     		str	r2, [r3, #64]
 970:Drivers/STM32F4xx_HAL_Driver/Src/stm32f4xx_hal_i2c.c **** 
 971:Drivers/STM32F4xx_HAL_Driver/Src/stm32f4xx_hal_i2c.c ****     /* Prepare transfer parameters */
 972:Drivers/STM32F4xx_HAL_Driver/Src/stm32f4xx_hal_i2c.c ****     hi2c->pBuffPtr    = pData;
 1586              		.loc 1 972 0
 1587 0092 FB68     		ldr	r3, [r7, #12]
 1588 0094 BA68     		ldr	r2, [r7, #8]
 1589 0096 5A62     		str	r2, [r3, #36]
 973:Drivers/STM32F4xx_HAL_Driver/Src/stm32f4xx_hal_i2c.c ****     hi2c->XferCount   = Size;
 1590              		.loc 1 973 0
 1591 0098 FB68     		ldr	r3, [r7, #12]
 1592 009a FA88     		ldrh	r2, [r7, #6]	@ movhi
 1593 009c 5A85     		strh	r2, [r3, #42]	@ movhi
 974:Drivers/STM32F4xx_HAL_Driver/Src/stm32f4xx_hal_i2c.c ****     hi2c->XferOptions = I2C_NO_OPTION_FRAME;
 1594              		.loc 1 974 0
 1595 009e FB68     		ldr	r3, [r7, #12]
 1596 00a0 624A     		ldr	r2, .L84
 1597 00a2 DA62     		str	r2, [r3, #44]
 975:Drivers/STM32F4xx_HAL_Driver/Src/stm32f4xx_hal_i2c.c ****     hi2c->XferSize    = hi2c->XferCount;
 1598              		.loc 1 975 0
 1599 00a4 FB68     		ldr	r3, [r7, #12]
 1600 00a6 5B8D     		ldrh	r3, [r3, #42]	@ movhi
 1601 00a8 9AB2     		uxth	r2, r3
ARM GAS  /tmp/cc3ELaEI.s 			page 46


 1602 00aa FB68     		ldr	r3, [r7, #12]
 1603 00ac 1A85     		strh	r2, [r3, #40]	@ movhi
 976:Drivers/STM32F4xx_HAL_Driver/Src/stm32f4xx_hal_i2c.c **** 
 977:Drivers/STM32F4xx_HAL_Driver/Src/stm32f4xx_hal_i2c.c ****     /* Enable Address Acknowledge */
 978:Drivers/STM32F4xx_HAL_Driver/Src/stm32f4xx_hal_i2c.c ****     hi2c->Instance->CR1 |= I2C_CR1_ACK;
 1604              		.loc 1 978 0
 1605 00ae FB68     		ldr	r3, [r7, #12]
 1606 00b0 1B68     		ldr	r3, [r3]
 1607 00b2 FA68     		ldr	r2, [r7, #12]
 1608 00b4 1268     		ldr	r2, [r2]
 1609 00b6 1268     		ldr	r2, [r2]
 1610 00b8 42F48062 		orr	r2, r2, #1024
 1611 00bc 1A60     		str	r2, [r3]
 979:Drivers/STM32F4xx_HAL_Driver/Src/stm32f4xx_hal_i2c.c **** 
 980:Drivers/STM32F4xx_HAL_Driver/Src/stm32f4xx_hal_i2c.c ****     /* Wait until ADDR flag is set */
 981:Drivers/STM32F4xx_HAL_Driver/Src/stm32f4xx_hal_i2c.c ****     if(I2C_WaitOnFlagUntilTimeout(hi2c, I2C_FLAG_ADDR, RESET, Timeout, tickstart) != HAL_OK)
 1612              		.loc 1 981 0
 1613 00be FB69     		ldr	r3, [r7, #28]
 1614 00c0 0093     		str	r3, [sp]
 1615 00c2 3B68     		ldr	r3, [r7]
 1616 00c4 0022     		movs	r2, #0
 1617 00c6 5A49     		ldr	r1, .L84+4
 1618 00c8 F868     		ldr	r0, [r7, #12]
 1619 00ca FFF7FEFF 		bl	I2C_WaitOnFlagUntilTimeout
 1620 00ce 0346     		mov	r3, r0
 1621 00d0 002B     		cmp	r3, #0
 1622 00d2 01D0     		beq	.L76
 982:Drivers/STM32F4xx_HAL_Driver/Src/stm32f4xx_hal_i2c.c ****     {
 983:Drivers/STM32F4xx_HAL_Driver/Src/stm32f4xx_hal_i2c.c ****       return HAL_TIMEOUT;
 1623              		.loc 1 983 0
 1624 00d4 0323     		movs	r3, #3
 1625 00d6 A4E0     		b	.L73
 1626              	.L76:
 1627              	.LBB7:
 984:Drivers/STM32F4xx_HAL_Driver/Src/stm32f4xx_hal_i2c.c ****     }
 985:Drivers/STM32F4xx_HAL_Driver/Src/stm32f4xx_hal_i2c.c **** 
 986:Drivers/STM32F4xx_HAL_Driver/Src/stm32f4xx_hal_i2c.c ****     /* Clear ADDR flag */
 987:Drivers/STM32F4xx_HAL_Driver/Src/stm32f4xx_hal_i2c.c ****     __HAL_I2C_CLEAR_ADDRFLAG(hi2c);
 1628              		.loc 1 987 0
 1629 00d8 0023     		movs	r3, #0
 1630 00da BB61     		str	r3, [r7, #24]
 1631 00dc FB68     		ldr	r3, [r7, #12]
 1632 00de 1B68     		ldr	r3, [r3]
 1633 00e0 5B69     		ldr	r3, [r3, #20]
 1634 00e2 BB61     		str	r3, [r7, #24]
 1635 00e4 FB68     		ldr	r3, [r7, #12]
 1636 00e6 1B68     		ldr	r3, [r3]
 1637 00e8 9B69     		ldr	r3, [r3, #24]
 1638 00ea BB61     		str	r3, [r7, #24]
 1639 00ec BB69     		ldr	r3, [r7, #24]
 1640              	.LBE7:
 988:Drivers/STM32F4xx_HAL_Driver/Src/stm32f4xx_hal_i2c.c **** 
 989:Drivers/STM32F4xx_HAL_Driver/Src/stm32f4xx_hal_i2c.c ****     /* If 10bit addressing mode is selected */
 990:Drivers/STM32F4xx_HAL_Driver/Src/stm32f4xx_hal_i2c.c ****     if(hi2c->Init.AddressingMode == I2C_ADDRESSINGMODE_10BIT)
 1641              		.loc 1 990 0
 1642 00ee FB68     		ldr	r3, [r7, #12]
 1643 00f0 1B69     		ldr	r3, [r3, #16]
ARM GAS  /tmp/cc3ELaEI.s 			page 47


 1644 00f2 B3F5404F 		cmp	r3, #49152
 1645 00f6 66D1     		bne	.L79
 991:Drivers/STM32F4xx_HAL_Driver/Src/stm32f4xx_hal_i2c.c ****     {
 992:Drivers/STM32F4xx_HAL_Driver/Src/stm32f4xx_hal_i2c.c ****       /* Wait until ADDR flag is set */
 993:Drivers/STM32F4xx_HAL_Driver/Src/stm32f4xx_hal_i2c.c ****       if(I2C_WaitOnFlagUntilTimeout(hi2c, I2C_FLAG_ADDR, RESET, Timeout, tickstart) != HAL_OK)
 1646              		.loc 1 993 0
 1647 00f8 FB69     		ldr	r3, [r7, #28]
 1648 00fa 0093     		str	r3, [sp]
 1649 00fc 3B68     		ldr	r3, [r7]
 1650 00fe 0022     		movs	r2, #0
 1651 0100 4B49     		ldr	r1, .L84+4
 1652 0102 F868     		ldr	r0, [r7, #12]
 1653 0104 FFF7FEFF 		bl	I2C_WaitOnFlagUntilTimeout
 1654 0108 0346     		mov	r3, r0
 1655 010a 002B     		cmp	r3, #0
 1656 010c 01D0     		beq	.L78
 994:Drivers/STM32F4xx_HAL_Driver/Src/stm32f4xx_hal_i2c.c ****       {
 995:Drivers/STM32F4xx_HAL_Driver/Src/stm32f4xx_hal_i2c.c ****         return HAL_TIMEOUT;
 1657              		.loc 1 995 0
 1658 010e 0323     		movs	r3, #3
 1659 0110 87E0     		b	.L73
 1660              	.L78:
 1661              	.LBB8:
 996:Drivers/STM32F4xx_HAL_Driver/Src/stm32f4xx_hal_i2c.c ****       }
 997:Drivers/STM32F4xx_HAL_Driver/Src/stm32f4xx_hal_i2c.c **** 
 998:Drivers/STM32F4xx_HAL_Driver/Src/stm32f4xx_hal_i2c.c ****       /* Clear ADDR flag */
 999:Drivers/STM32F4xx_HAL_Driver/Src/stm32f4xx_hal_i2c.c ****       __HAL_I2C_CLEAR_ADDRFLAG(hi2c);
 1662              		.loc 1 999 0
 1663 0112 0023     		movs	r3, #0
 1664 0114 7B61     		str	r3, [r7, #20]
 1665 0116 FB68     		ldr	r3, [r7, #12]
 1666 0118 1B68     		ldr	r3, [r3]
 1667 011a 5B69     		ldr	r3, [r3, #20]
 1668 011c 7B61     		str	r3, [r7, #20]
 1669 011e FB68     		ldr	r3, [r7, #12]
 1670 0120 1B68     		ldr	r3, [r3]
 1671 0122 9B69     		ldr	r3, [r3, #24]
 1672 0124 7B61     		str	r3, [r7, #20]
 1673 0126 7B69     		ldr	r3, [r7, #20]
 1674              	.LBE8:
1000:Drivers/STM32F4xx_HAL_Driver/Src/stm32f4xx_hal_i2c.c ****     }
1001:Drivers/STM32F4xx_HAL_Driver/Src/stm32f4xx_hal_i2c.c **** 
1002:Drivers/STM32F4xx_HAL_Driver/Src/stm32f4xx_hal_i2c.c ****     while(hi2c->XferSize > 0U)
 1675              		.loc 1 1002 0
 1676 0128 4DE0     		b	.L79
 1677              	.L82:
1003:Drivers/STM32F4xx_HAL_Driver/Src/stm32f4xx_hal_i2c.c ****     {
1004:Drivers/STM32F4xx_HAL_Driver/Src/stm32f4xx_hal_i2c.c ****       /* Wait until TXE flag is set */
1005:Drivers/STM32F4xx_HAL_Driver/Src/stm32f4xx_hal_i2c.c ****       if(I2C_WaitOnTXEFlagUntilTimeout(hi2c, Timeout, tickstart) != HAL_OK)
 1678              		.loc 1 1005 0
 1679 012a FA69     		ldr	r2, [r7, #28]
 1680 012c 3968     		ldr	r1, [r7]
 1681 012e F868     		ldr	r0, [r7, #12]
 1682 0130 FFF7FEFF 		bl	I2C_WaitOnTXEFlagUntilTimeout
 1683 0134 0346     		mov	r3, r0
 1684 0136 002B     		cmp	r3, #0
 1685 0138 0FD0     		beq	.L80
ARM GAS  /tmp/cc3ELaEI.s 			page 48


1006:Drivers/STM32F4xx_HAL_Driver/Src/stm32f4xx_hal_i2c.c ****       {
1007:Drivers/STM32F4xx_HAL_Driver/Src/stm32f4xx_hal_i2c.c ****         /* Disable Address Acknowledge */
1008:Drivers/STM32F4xx_HAL_Driver/Src/stm32f4xx_hal_i2c.c ****         hi2c->Instance->CR1 &= ~I2C_CR1_ACK;
 1686              		.loc 1 1008 0
 1687 013a FB68     		ldr	r3, [r7, #12]
 1688 013c 1B68     		ldr	r3, [r3]
 1689 013e FA68     		ldr	r2, [r7, #12]
 1690 0140 1268     		ldr	r2, [r2]
 1691 0142 1268     		ldr	r2, [r2]
 1692 0144 22F48062 		bic	r2, r2, #1024
 1693 0148 1A60     		str	r2, [r3]
1009:Drivers/STM32F4xx_HAL_Driver/Src/stm32f4xx_hal_i2c.c **** 
1010:Drivers/STM32F4xx_HAL_Driver/Src/stm32f4xx_hal_i2c.c ****         if(hi2c->ErrorCode == HAL_I2C_ERROR_AF)
 1694              		.loc 1 1010 0
 1695 014a FB68     		ldr	r3, [r7, #12]
 1696 014c 1B6C     		ldr	r3, [r3, #64]
 1697 014e 042B     		cmp	r3, #4
 1698 0150 01D1     		bne	.L81
1011:Drivers/STM32F4xx_HAL_Driver/Src/stm32f4xx_hal_i2c.c ****         {
1012:Drivers/STM32F4xx_HAL_Driver/Src/stm32f4xx_hal_i2c.c ****           return HAL_ERROR;
 1699              		.loc 1 1012 0
 1700 0152 0123     		movs	r3, #1
 1701 0154 65E0     		b	.L73
 1702              	.L81:
1013:Drivers/STM32F4xx_HAL_Driver/Src/stm32f4xx_hal_i2c.c ****         }
1014:Drivers/STM32F4xx_HAL_Driver/Src/stm32f4xx_hal_i2c.c ****         else
1015:Drivers/STM32F4xx_HAL_Driver/Src/stm32f4xx_hal_i2c.c ****         {
1016:Drivers/STM32F4xx_HAL_Driver/Src/stm32f4xx_hal_i2c.c ****           return HAL_TIMEOUT;
 1703              		.loc 1 1016 0
 1704 0156 0323     		movs	r3, #3
 1705 0158 63E0     		b	.L73
 1706              	.L80:
1017:Drivers/STM32F4xx_HAL_Driver/Src/stm32f4xx_hal_i2c.c ****         }
1018:Drivers/STM32F4xx_HAL_Driver/Src/stm32f4xx_hal_i2c.c ****       }
1019:Drivers/STM32F4xx_HAL_Driver/Src/stm32f4xx_hal_i2c.c **** 
1020:Drivers/STM32F4xx_HAL_Driver/Src/stm32f4xx_hal_i2c.c ****       /* Write data to DR */
1021:Drivers/STM32F4xx_HAL_Driver/Src/stm32f4xx_hal_i2c.c ****       hi2c->Instance->DR = (*hi2c->pBuffPtr++);
 1707              		.loc 1 1021 0
 1708 015a FB68     		ldr	r3, [r7, #12]
 1709 015c 1A68     		ldr	r2, [r3]
 1710 015e FB68     		ldr	r3, [r7, #12]
 1711 0160 5B6A     		ldr	r3, [r3, #36]
 1712 0162 581C     		adds	r0, r3, #1
 1713 0164 F968     		ldr	r1, [r7, #12]
 1714 0166 4862     		str	r0, [r1, #36]
 1715 0168 1B78     		ldrb	r3, [r3]	@ zero_extendqisi2
 1716 016a 1361     		str	r3, [r2, #16]
1022:Drivers/STM32F4xx_HAL_Driver/Src/stm32f4xx_hal_i2c.c ****       hi2c->XferCount--;
 1717              		.loc 1 1022 0
 1718 016c FB68     		ldr	r3, [r7, #12]
 1719 016e 5B8D     		ldrh	r3, [r3, #42]	@ movhi
 1720 0170 9BB2     		uxth	r3, r3
 1721 0172 013B     		subs	r3, r3, #1
 1722 0174 9AB2     		uxth	r2, r3
 1723 0176 FB68     		ldr	r3, [r7, #12]
 1724 0178 5A85     		strh	r2, [r3, #42]	@ movhi
1023:Drivers/STM32F4xx_HAL_Driver/Src/stm32f4xx_hal_i2c.c ****       hi2c->XferSize--;
ARM GAS  /tmp/cc3ELaEI.s 			page 49


 1725              		.loc 1 1023 0
 1726 017a FB68     		ldr	r3, [r7, #12]
 1727 017c 1B8D     		ldrh	r3, [r3, #40]
 1728 017e 013B     		subs	r3, r3, #1
 1729 0180 9AB2     		uxth	r2, r3
 1730 0182 FB68     		ldr	r3, [r7, #12]
 1731 0184 1A85     		strh	r2, [r3, #40]	@ movhi
1024:Drivers/STM32F4xx_HAL_Driver/Src/stm32f4xx_hal_i2c.c **** 
1025:Drivers/STM32F4xx_HAL_Driver/Src/stm32f4xx_hal_i2c.c ****       if((__HAL_I2C_GET_FLAG(hi2c, I2C_FLAG_BTF) == SET) && (Size != 0U))
 1732              		.loc 1 1025 0
 1733 0186 FB68     		ldr	r3, [r7, #12]
 1734 0188 1B68     		ldr	r3, [r3]
 1735 018a 5B69     		ldr	r3, [r3, #20]
 1736 018c 03F00403 		and	r3, r3, #4
 1737 0190 002B     		cmp	r3, #0
 1738 0192 18D0     		beq	.L79
 1739              		.loc 1 1025 0 is_stmt 0 discriminator 1
 1740 0194 FB88     		ldrh	r3, [r7, #6]
 1741 0196 002B     		cmp	r3, #0
 1742 0198 15D0     		beq	.L79
1026:Drivers/STM32F4xx_HAL_Driver/Src/stm32f4xx_hal_i2c.c ****       {
1027:Drivers/STM32F4xx_HAL_Driver/Src/stm32f4xx_hal_i2c.c ****         /* Write data to DR */
1028:Drivers/STM32F4xx_HAL_Driver/Src/stm32f4xx_hal_i2c.c ****         hi2c->Instance->DR = (*hi2c->pBuffPtr++);
 1743              		.loc 1 1028 0 is_stmt 1
 1744 019a FB68     		ldr	r3, [r7, #12]
 1745 019c 1A68     		ldr	r2, [r3]
 1746 019e FB68     		ldr	r3, [r7, #12]
 1747 01a0 5B6A     		ldr	r3, [r3, #36]
 1748 01a2 581C     		adds	r0, r3, #1
 1749 01a4 F968     		ldr	r1, [r7, #12]
 1750 01a6 4862     		str	r0, [r1, #36]
 1751 01a8 1B78     		ldrb	r3, [r3]	@ zero_extendqisi2
 1752 01aa 1361     		str	r3, [r2, #16]
1029:Drivers/STM32F4xx_HAL_Driver/Src/stm32f4xx_hal_i2c.c ****         hi2c->XferCount--;
 1753              		.loc 1 1029 0
 1754 01ac FB68     		ldr	r3, [r7, #12]
 1755 01ae 5B8D     		ldrh	r3, [r3, #42]	@ movhi
 1756 01b0 9BB2     		uxth	r3, r3
 1757 01b2 013B     		subs	r3, r3, #1
 1758 01b4 9AB2     		uxth	r2, r3
 1759 01b6 FB68     		ldr	r3, [r7, #12]
 1760 01b8 5A85     		strh	r2, [r3, #42]	@ movhi
1030:Drivers/STM32F4xx_HAL_Driver/Src/stm32f4xx_hal_i2c.c ****         hi2c->XferSize--;
 1761              		.loc 1 1030 0
 1762 01ba FB68     		ldr	r3, [r7, #12]
 1763 01bc 1B8D     		ldrh	r3, [r3, #40]
 1764 01be 013B     		subs	r3, r3, #1
 1765 01c0 9AB2     		uxth	r2, r3
 1766 01c2 FB68     		ldr	r3, [r7, #12]
 1767 01c4 1A85     		strh	r2, [r3, #40]	@ movhi
 1768              	.L79:
1002:Drivers/STM32F4xx_HAL_Driver/Src/stm32f4xx_hal_i2c.c ****     {
 1769              		.loc 1 1002 0
 1770 01c6 FB68     		ldr	r3, [r7, #12]
 1771 01c8 1B8D     		ldrh	r3, [r3, #40]
 1772 01ca 002B     		cmp	r3, #0
 1773 01cc ADD1     		bne	.L82
ARM GAS  /tmp/cc3ELaEI.s 			page 50


1031:Drivers/STM32F4xx_HAL_Driver/Src/stm32f4xx_hal_i2c.c ****       }
1032:Drivers/STM32F4xx_HAL_Driver/Src/stm32f4xx_hal_i2c.c ****     }
1033:Drivers/STM32F4xx_HAL_Driver/Src/stm32f4xx_hal_i2c.c **** 
1034:Drivers/STM32F4xx_HAL_Driver/Src/stm32f4xx_hal_i2c.c ****     /* Wait until AF flag is set */
1035:Drivers/STM32F4xx_HAL_Driver/Src/stm32f4xx_hal_i2c.c ****     if(I2C_WaitOnFlagUntilTimeout(hi2c, I2C_FLAG_AF, RESET, Timeout, tickstart) != HAL_OK)
 1774              		.loc 1 1035 0
 1775 01ce FB69     		ldr	r3, [r7, #28]
 1776 01d0 0093     		str	r3, [sp]
 1777 01d2 3B68     		ldr	r3, [r7]
 1778 01d4 0022     		movs	r2, #0
 1779 01d6 4FF48231 		mov	r1, #66560
 1780 01da F868     		ldr	r0, [r7, #12]
 1781 01dc FFF7FEFF 		bl	I2C_WaitOnFlagUntilTimeout
 1782 01e0 0346     		mov	r3, r0
 1783 01e2 002B     		cmp	r3, #0
 1784 01e4 01D0     		beq	.L83
1036:Drivers/STM32F4xx_HAL_Driver/Src/stm32f4xx_hal_i2c.c ****     {
1037:Drivers/STM32F4xx_HAL_Driver/Src/stm32f4xx_hal_i2c.c ****       return HAL_TIMEOUT;
 1785              		.loc 1 1037 0
 1786 01e6 0323     		movs	r3, #3
 1787 01e8 1BE0     		b	.L73
 1788              	.L83:
1038:Drivers/STM32F4xx_HAL_Driver/Src/stm32f4xx_hal_i2c.c ****     }
1039:Drivers/STM32F4xx_HAL_Driver/Src/stm32f4xx_hal_i2c.c **** 
1040:Drivers/STM32F4xx_HAL_Driver/Src/stm32f4xx_hal_i2c.c ****     /* Clear AF flag */
1041:Drivers/STM32F4xx_HAL_Driver/Src/stm32f4xx_hal_i2c.c ****     __HAL_I2C_CLEAR_FLAG(hi2c, I2C_FLAG_AF);
 1789              		.loc 1 1041 0
 1790 01ea FB68     		ldr	r3, [r7, #12]
 1791 01ec 1B68     		ldr	r3, [r3]
 1792 01ee 6FF48062 		mvn	r2, #1024
 1793 01f2 5A61     		str	r2, [r3, #20]
1042:Drivers/STM32F4xx_HAL_Driver/Src/stm32f4xx_hal_i2c.c **** 
1043:Drivers/STM32F4xx_HAL_Driver/Src/stm32f4xx_hal_i2c.c ****     /* Disable Address Acknowledge */
1044:Drivers/STM32F4xx_HAL_Driver/Src/stm32f4xx_hal_i2c.c ****     hi2c->Instance->CR1 &= ~I2C_CR1_ACK;
 1794              		.loc 1 1044 0
 1795 01f4 FB68     		ldr	r3, [r7, #12]
 1796 01f6 1B68     		ldr	r3, [r3]
 1797 01f8 FA68     		ldr	r2, [r7, #12]
 1798 01fa 1268     		ldr	r2, [r2]
 1799 01fc 1268     		ldr	r2, [r2]
 1800 01fe 22F48062 		bic	r2, r2, #1024
 1801 0202 1A60     		str	r2, [r3]
1045:Drivers/STM32F4xx_HAL_Driver/Src/stm32f4xx_hal_i2c.c **** 
1046:Drivers/STM32F4xx_HAL_Driver/Src/stm32f4xx_hal_i2c.c ****     hi2c->State = HAL_I2C_STATE_READY;
 1802              		.loc 1 1046 0
 1803 0204 FB68     		ldr	r3, [r7, #12]
 1804 0206 2022     		movs	r2, #32
 1805 0208 83F83D20 		strb	r2, [r3, #61]
1047:Drivers/STM32F4xx_HAL_Driver/Src/stm32f4xx_hal_i2c.c ****     hi2c->Mode = HAL_I2C_MODE_NONE;
 1806              		.loc 1 1047 0
 1807 020c FB68     		ldr	r3, [r7, #12]
 1808 020e 0022     		movs	r2, #0
 1809 0210 83F83E20 		strb	r2, [r3, #62]
1048:Drivers/STM32F4xx_HAL_Driver/Src/stm32f4xx_hal_i2c.c **** 
1049:Drivers/STM32F4xx_HAL_Driver/Src/stm32f4xx_hal_i2c.c ****     /* Process Unlocked */
1050:Drivers/STM32F4xx_HAL_Driver/Src/stm32f4xx_hal_i2c.c ****     __HAL_UNLOCK(hi2c);
 1810              		.loc 1 1050 0
ARM GAS  /tmp/cc3ELaEI.s 			page 51


 1811 0214 FB68     		ldr	r3, [r7, #12]
 1812 0216 0022     		movs	r2, #0
 1813 0218 83F83C20 		strb	r2, [r3, #60]
1051:Drivers/STM32F4xx_HAL_Driver/Src/stm32f4xx_hal_i2c.c **** 
1052:Drivers/STM32F4xx_HAL_Driver/Src/stm32f4xx_hal_i2c.c ****     return HAL_OK;
 1814              		.loc 1 1052 0
 1815 021c 0023     		movs	r3, #0
 1816 021e 00E0     		b	.L73
 1817              	.L70:
1053:Drivers/STM32F4xx_HAL_Driver/Src/stm32f4xx_hal_i2c.c ****   }
1054:Drivers/STM32F4xx_HAL_Driver/Src/stm32f4xx_hal_i2c.c ****   else
1055:Drivers/STM32F4xx_HAL_Driver/Src/stm32f4xx_hal_i2c.c ****   {
1056:Drivers/STM32F4xx_HAL_Driver/Src/stm32f4xx_hal_i2c.c ****     return HAL_BUSY;
 1818              		.loc 1 1056 0
 1819 0220 0223     		movs	r3, #2
 1820              	.L73:
1057:Drivers/STM32F4xx_HAL_Driver/Src/stm32f4xx_hal_i2c.c ****   }
1058:Drivers/STM32F4xx_HAL_Driver/Src/stm32f4xx_hal_i2c.c **** }
 1821              		.loc 1 1058 0
 1822 0222 1846     		mov	r0, r3
 1823 0224 2037     		adds	r7, r7, #32
 1824              	.LCFI35:
 1825              		.cfi_def_cfa_offset 8
 1826 0226 BD46     		mov	sp, r7
 1827              	.LCFI36:
 1828              		.cfi_def_cfa_register 13
 1829              		@ sp needed
 1830 0228 80BD     		pop	{r7, pc}
 1831              	.L85:
 1832 022a 00BF     		.align	2
 1833              	.L84:
 1834 022c 0000FFFF 		.word	-65536
 1835 0230 02000100 		.word	65538
 1836              		.cfi_endproc
 1837              	.LFE132:
 1839              		.section	.text.HAL_I2C_Slave_Receive,"ax",%progbits
 1840              		.align	2
 1841              		.global	HAL_I2C_Slave_Receive
 1842              		.thumb
 1843              		.thumb_func
 1845              	HAL_I2C_Slave_Receive:
 1846              	.LFB133:
1059:Drivers/STM32F4xx_HAL_Driver/Src/stm32f4xx_hal_i2c.c **** 
1060:Drivers/STM32F4xx_HAL_Driver/Src/stm32f4xx_hal_i2c.c **** /**
1061:Drivers/STM32F4xx_HAL_Driver/Src/stm32f4xx_hal_i2c.c ****   * @brief  Receive in slave mode an amount of data in blocking mode 
1062:Drivers/STM32F4xx_HAL_Driver/Src/stm32f4xx_hal_i2c.c ****   * @param  hi2c Pointer to a I2C_HandleTypeDef structure that contains
1063:Drivers/STM32F4xx_HAL_Driver/Src/stm32f4xx_hal_i2c.c ****   *         the configuration information for the specified I2C.
1064:Drivers/STM32F4xx_HAL_Driver/Src/stm32f4xx_hal_i2c.c ****   * @param  pData Pointer to data buffer
1065:Drivers/STM32F4xx_HAL_Driver/Src/stm32f4xx_hal_i2c.c ****   * @param  Size Amount of data to be sent
1066:Drivers/STM32F4xx_HAL_Driver/Src/stm32f4xx_hal_i2c.c ****   * @param  Timeout Timeout duration
1067:Drivers/STM32F4xx_HAL_Driver/Src/stm32f4xx_hal_i2c.c ****   * @retval HAL status
1068:Drivers/STM32F4xx_HAL_Driver/Src/stm32f4xx_hal_i2c.c ****   */
1069:Drivers/STM32F4xx_HAL_Driver/Src/stm32f4xx_hal_i2c.c **** HAL_StatusTypeDef HAL_I2C_Slave_Receive(I2C_HandleTypeDef *hi2c, uint8_t *pData, uint16_t Size, uin
1070:Drivers/STM32F4xx_HAL_Driver/Src/stm32f4xx_hal_i2c.c **** {
 1847              		.loc 1 1070 0
 1848              		.cfi_startproc
 1849              		@ args = 0, pretend = 0, frame = 32
ARM GAS  /tmp/cc3ELaEI.s 			page 52


 1850              		@ frame_needed = 1, uses_anonymous_args = 0
 1851 0000 80B5     		push	{r7, lr}
 1852              	.LCFI37:
 1853              		.cfi_def_cfa_offset 8
 1854              		.cfi_offset 7, -8
 1855              		.cfi_offset 14, -4
 1856 0002 8AB0     		sub	sp, sp, #40
 1857              	.LCFI38:
 1858              		.cfi_def_cfa_offset 48
 1859 0004 02AF     		add	r7, sp, #8
 1860              	.LCFI39:
 1861              		.cfi_def_cfa 7, 40
 1862 0006 F860     		str	r0, [r7, #12]
 1863 0008 B960     		str	r1, [r7, #8]
 1864 000a 3B60     		str	r3, [r7]
 1865 000c 1346     		mov	r3, r2	@ movhi
 1866 000e FB80     		strh	r3, [r7, #6]	@ movhi
1071:Drivers/STM32F4xx_HAL_Driver/Src/stm32f4xx_hal_i2c.c ****   uint32_t tickstart = 0x00U;
 1867              		.loc 1 1071 0
 1868 0010 0023     		movs	r3, #0
 1869 0012 FB61     		str	r3, [r7, #28]
1072:Drivers/STM32F4xx_HAL_Driver/Src/stm32f4xx_hal_i2c.c **** 
1073:Drivers/STM32F4xx_HAL_Driver/Src/stm32f4xx_hal_i2c.c ****   /* Init tickstart for timeout management*/
1074:Drivers/STM32F4xx_HAL_Driver/Src/stm32f4xx_hal_i2c.c ****   tickstart = HAL_GetTick();
 1870              		.loc 1 1074 0
 1871 0014 FFF7FEFF 		bl	HAL_GetTick
 1872 0018 F861     		str	r0, [r7, #28]
1075:Drivers/STM32F4xx_HAL_Driver/Src/stm32f4xx_hal_i2c.c **** 
1076:Drivers/STM32F4xx_HAL_Driver/Src/stm32f4xx_hal_i2c.c ****   if(hi2c->State == HAL_I2C_STATE_READY)
 1873              		.loc 1 1076 0
 1874 001a FB68     		ldr	r3, [r7, #12]
 1875 001c 93F83D30 		ldrb	r3, [r3, #61]
 1876 0020 DBB2     		uxtb	r3, r3
 1877 0022 202B     		cmp	r3, #32
 1878 0024 40F0F580 		bne	.L87
1077:Drivers/STM32F4xx_HAL_Driver/Src/stm32f4xx_hal_i2c.c ****   {
1078:Drivers/STM32F4xx_HAL_Driver/Src/stm32f4xx_hal_i2c.c ****     if((pData == NULL) || (Size == 0U))
 1879              		.loc 1 1078 0
 1880 0028 BB68     		ldr	r3, [r7, #8]
 1881 002a 002B     		cmp	r3, #0
 1882 002c 02D0     		beq	.L88
 1883              		.loc 1 1078 0 is_stmt 0 discriminator 1
 1884 002e FB88     		ldrh	r3, [r7, #6]
 1885 0030 002B     		cmp	r3, #0
 1886 0032 01D1     		bne	.L89
 1887              	.L88:
1079:Drivers/STM32F4xx_HAL_Driver/Src/stm32f4xx_hal_i2c.c ****     {
1080:Drivers/STM32F4xx_HAL_Driver/Src/stm32f4xx_hal_i2c.c ****       return  HAL_ERROR;
 1888              		.loc 1 1080 0 is_stmt 1
 1889 0034 0123     		movs	r3, #1
 1890 0036 EDE0     		b	.L90
 1891              	.L89:
1081:Drivers/STM32F4xx_HAL_Driver/Src/stm32f4xx_hal_i2c.c ****     }
1082:Drivers/STM32F4xx_HAL_Driver/Src/stm32f4xx_hal_i2c.c **** 
1083:Drivers/STM32F4xx_HAL_Driver/Src/stm32f4xx_hal_i2c.c ****     /* Process Locked */
1084:Drivers/STM32F4xx_HAL_Driver/Src/stm32f4xx_hal_i2c.c ****     __HAL_LOCK(hi2c);
 1892              		.loc 1 1084 0
ARM GAS  /tmp/cc3ELaEI.s 			page 53


 1893 0038 FB68     		ldr	r3, [r7, #12]
 1894 003a 93F83C30 		ldrb	r3, [r3, #60]	@ zero_extendqisi2
 1895 003e 012B     		cmp	r3, #1
 1896 0040 01D1     		bne	.L91
 1897              		.loc 1 1084 0 is_stmt 0 discriminator 1
 1898 0042 0223     		movs	r3, #2
 1899 0044 E6E0     		b	.L90
 1900              	.L91:
 1901              		.loc 1 1084 0 discriminator 2
 1902 0046 FB68     		ldr	r3, [r7, #12]
 1903 0048 0122     		movs	r2, #1
 1904 004a 83F83C20 		strb	r2, [r3, #60]
1085:Drivers/STM32F4xx_HAL_Driver/Src/stm32f4xx_hal_i2c.c **** 
1086:Drivers/STM32F4xx_HAL_Driver/Src/stm32f4xx_hal_i2c.c ****     /* Check if the I2C is already enabled */
1087:Drivers/STM32F4xx_HAL_Driver/Src/stm32f4xx_hal_i2c.c ****     if((hi2c->Instance->CR1 & I2C_CR1_PE) != I2C_CR1_PE)
 1905              		.loc 1 1087 0 is_stmt 1 discriminator 2
 1906 004e FB68     		ldr	r3, [r7, #12]
 1907 0050 1B68     		ldr	r3, [r3]
 1908 0052 1B68     		ldr	r3, [r3]
 1909 0054 03F00103 		and	r3, r3, #1
 1910 0058 002B     		cmp	r3, #0
 1911 005a 07D1     		bne	.L92
1088:Drivers/STM32F4xx_HAL_Driver/Src/stm32f4xx_hal_i2c.c ****     {
1089:Drivers/STM32F4xx_HAL_Driver/Src/stm32f4xx_hal_i2c.c ****       /* Enable I2C peripheral */
1090:Drivers/STM32F4xx_HAL_Driver/Src/stm32f4xx_hal_i2c.c ****       __HAL_I2C_ENABLE(hi2c);
 1912              		.loc 1 1090 0
 1913 005c FB68     		ldr	r3, [r7, #12]
 1914 005e 1B68     		ldr	r3, [r3]
 1915 0060 FA68     		ldr	r2, [r7, #12]
 1916 0062 1268     		ldr	r2, [r2]
 1917 0064 1268     		ldr	r2, [r2]
 1918 0066 42F00102 		orr	r2, r2, #1
 1919 006a 1A60     		str	r2, [r3]
 1920              	.L92:
1091:Drivers/STM32F4xx_HAL_Driver/Src/stm32f4xx_hal_i2c.c ****     }
1092:Drivers/STM32F4xx_HAL_Driver/Src/stm32f4xx_hal_i2c.c **** 
1093:Drivers/STM32F4xx_HAL_Driver/Src/stm32f4xx_hal_i2c.c ****     /* Disable Pos */
1094:Drivers/STM32F4xx_HAL_Driver/Src/stm32f4xx_hal_i2c.c ****     hi2c->Instance->CR1 &= ~I2C_CR1_POS;
 1921              		.loc 1 1094 0
 1922 006c FB68     		ldr	r3, [r7, #12]
 1923 006e 1B68     		ldr	r3, [r3]
 1924 0070 FA68     		ldr	r2, [r7, #12]
 1925 0072 1268     		ldr	r2, [r2]
 1926 0074 1268     		ldr	r2, [r2]
 1927 0076 22F40062 		bic	r2, r2, #2048
 1928 007a 1A60     		str	r2, [r3]
1095:Drivers/STM32F4xx_HAL_Driver/Src/stm32f4xx_hal_i2c.c **** 
1096:Drivers/STM32F4xx_HAL_Driver/Src/stm32f4xx_hal_i2c.c ****     hi2c->State       = HAL_I2C_STATE_BUSY_RX;
 1929              		.loc 1 1096 0
 1930 007c FB68     		ldr	r3, [r7, #12]
 1931 007e 2222     		movs	r2, #34
 1932 0080 83F83D20 		strb	r2, [r3, #61]
1097:Drivers/STM32F4xx_HAL_Driver/Src/stm32f4xx_hal_i2c.c ****     hi2c->Mode        = HAL_I2C_MODE_SLAVE;
 1933              		.loc 1 1097 0
 1934 0084 FB68     		ldr	r3, [r7, #12]
 1935 0086 2022     		movs	r2, #32
 1936 0088 83F83E20 		strb	r2, [r3, #62]
ARM GAS  /tmp/cc3ELaEI.s 			page 54


1098:Drivers/STM32F4xx_HAL_Driver/Src/stm32f4xx_hal_i2c.c ****     hi2c->ErrorCode   = HAL_I2C_ERROR_NONE;
 1937              		.loc 1 1098 0
 1938 008c FB68     		ldr	r3, [r7, #12]
 1939 008e 0022     		movs	r2, #0
 1940 0090 1A64     		str	r2, [r3, #64]
1099:Drivers/STM32F4xx_HAL_Driver/Src/stm32f4xx_hal_i2c.c **** 
1100:Drivers/STM32F4xx_HAL_Driver/Src/stm32f4xx_hal_i2c.c ****     /* Prepare transfer parameters */
1101:Drivers/STM32F4xx_HAL_Driver/Src/stm32f4xx_hal_i2c.c ****     hi2c->pBuffPtr    = pData;
 1941              		.loc 1 1101 0
 1942 0092 FB68     		ldr	r3, [r7, #12]
 1943 0094 BA68     		ldr	r2, [r7, #8]
 1944 0096 5A62     		str	r2, [r3, #36]
1102:Drivers/STM32F4xx_HAL_Driver/Src/stm32f4xx_hal_i2c.c ****     hi2c->XferCount   = Size;
 1945              		.loc 1 1102 0
 1946 0098 FB68     		ldr	r3, [r7, #12]
 1947 009a FA88     		ldrh	r2, [r7, #6]	@ movhi
 1948 009c 5A85     		strh	r2, [r3, #42]	@ movhi
1103:Drivers/STM32F4xx_HAL_Driver/Src/stm32f4xx_hal_i2c.c ****     hi2c->XferOptions = I2C_NO_OPTION_FRAME;
 1949              		.loc 1 1103 0
 1950 009e FB68     		ldr	r3, [r7, #12]
 1951 00a0 5E4A     		ldr	r2, .L100
 1952 00a2 DA62     		str	r2, [r3, #44]
1104:Drivers/STM32F4xx_HAL_Driver/Src/stm32f4xx_hal_i2c.c ****     hi2c->XferSize    = hi2c->XferCount;
 1953              		.loc 1 1104 0
 1954 00a4 FB68     		ldr	r3, [r7, #12]
 1955 00a6 5B8D     		ldrh	r3, [r3, #42]	@ movhi
 1956 00a8 9AB2     		uxth	r2, r3
 1957 00aa FB68     		ldr	r3, [r7, #12]
 1958 00ac 1A85     		strh	r2, [r3, #40]	@ movhi
1105:Drivers/STM32F4xx_HAL_Driver/Src/stm32f4xx_hal_i2c.c **** 
1106:Drivers/STM32F4xx_HAL_Driver/Src/stm32f4xx_hal_i2c.c ****     /* Enable Address Acknowledge */
1107:Drivers/STM32F4xx_HAL_Driver/Src/stm32f4xx_hal_i2c.c ****     hi2c->Instance->CR1 |= I2C_CR1_ACK;
 1959              		.loc 1 1107 0
 1960 00ae FB68     		ldr	r3, [r7, #12]
 1961 00b0 1B68     		ldr	r3, [r3]
 1962 00b2 FA68     		ldr	r2, [r7, #12]
 1963 00b4 1268     		ldr	r2, [r2]
 1964 00b6 1268     		ldr	r2, [r2]
 1965 00b8 42F48062 		orr	r2, r2, #1024
 1966 00bc 1A60     		str	r2, [r3]
1108:Drivers/STM32F4xx_HAL_Driver/Src/stm32f4xx_hal_i2c.c **** 
1109:Drivers/STM32F4xx_HAL_Driver/Src/stm32f4xx_hal_i2c.c ****     /* Wait until ADDR flag is set */
1110:Drivers/STM32F4xx_HAL_Driver/Src/stm32f4xx_hal_i2c.c ****     if(I2C_WaitOnFlagUntilTimeout(hi2c, I2C_FLAG_ADDR, RESET, Timeout, tickstart) != HAL_OK)
 1967              		.loc 1 1110 0
 1968 00be FB69     		ldr	r3, [r7, #28]
 1969 00c0 0093     		str	r3, [sp]
 1970 00c2 3B68     		ldr	r3, [r7]
 1971 00c4 0022     		movs	r2, #0
 1972 00c6 5649     		ldr	r1, .L100+4
 1973 00c8 F868     		ldr	r0, [r7, #12]
 1974 00ca FFF7FEFF 		bl	I2C_WaitOnFlagUntilTimeout
 1975 00ce 0346     		mov	r3, r0
 1976 00d0 002B     		cmp	r3, #0
 1977 00d2 01D0     		beq	.L93
1111:Drivers/STM32F4xx_HAL_Driver/Src/stm32f4xx_hal_i2c.c ****     {
1112:Drivers/STM32F4xx_HAL_Driver/Src/stm32f4xx_hal_i2c.c ****       return HAL_TIMEOUT;
 1978              		.loc 1 1112 0
ARM GAS  /tmp/cc3ELaEI.s 			page 55


 1979 00d4 0323     		movs	r3, #3
 1980 00d6 9DE0     		b	.L90
 1981              	.L93:
 1982              	.LBB9:
1113:Drivers/STM32F4xx_HAL_Driver/Src/stm32f4xx_hal_i2c.c ****     }
1114:Drivers/STM32F4xx_HAL_Driver/Src/stm32f4xx_hal_i2c.c **** 
1115:Drivers/STM32F4xx_HAL_Driver/Src/stm32f4xx_hal_i2c.c ****     /* Clear ADDR flag */
1116:Drivers/STM32F4xx_HAL_Driver/Src/stm32f4xx_hal_i2c.c ****     __HAL_I2C_CLEAR_ADDRFLAG(hi2c);
 1983              		.loc 1 1116 0
 1984 00d8 0023     		movs	r3, #0
 1985 00da BB61     		str	r3, [r7, #24]
 1986 00dc FB68     		ldr	r3, [r7, #12]
 1987 00de 1B68     		ldr	r3, [r3]
 1988 00e0 5B69     		ldr	r3, [r3, #20]
 1989 00e2 BB61     		str	r3, [r7, #24]
 1990 00e4 FB68     		ldr	r3, [r7, #12]
 1991 00e6 1B68     		ldr	r3, [r3]
 1992 00e8 9B69     		ldr	r3, [r3, #24]
 1993 00ea BB61     		str	r3, [r7, #24]
 1994 00ec BB69     		ldr	r3, [r7, #24]
 1995              	.LBE9:
1117:Drivers/STM32F4xx_HAL_Driver/Src/stm32f4xx_hal_i2c.c **** 
1118:Drivers/STM32F4xx_HAL_Driver/Src/stm32f4xx_hal_i2c.c ****     while(hi2c->XferSize > 0U)
 1996              		.loc 1 1118 0
 1997 00ee 4FE0     		b	.L94
 1998              	.L97:
1119:Drivers/STM32F4xx_HAL_Driver/Src/stm32f4xx_hal_i2c.c ****     {
1120:Drivers/STM32F4xx_HAL_Driver/Src/stm32f4xx_hal_i2c.c ****       /* Wait until RXNE flag is set */
1121:Drivers/STM32F4xx_HAL_Driver/Src/stm32f4xx_hal_i2c.c ****       if(I2C_WaitOnRXNEFlagUntilTimeout(hi2c, Timeout, tickstart) != HAL_OK)      
 1999              		.loc 1 1121 0
 2000 00f0 FA69     		ldr	r2, [r7, #28]
 2001 00f2 3968     		ldr	r1, [r7]
 2002 00f4 F868     		ldr	r0, [r7, #12]
 2003 00f6 FFF7FEFF 		bl	I2C_WaitOnRXNEFlagUntilTimeout
 2004 00fa 0346     		mov	r3, r0
 2005 00fc 002B     		cmp	r3, #0
 2006 00fe 0FD0     		beq	.L95
1122:Drivers/STM32F4xx_HAL_Driver/Src/stm32f4xx_hal_i2c.c ****       {
1123:Drivers/STM32F4xx_HAL_Driver/Src/stm32f4xx_hal_i2c.c ****         /* Disable Address Acknowledge */
1124:Drivers/STM32F4xx_HAL_Driver/Src/stm32f4xx_hal_i2c.c ****         hi2c->Instance->CR1 &= ~I2C_CR1_ACK;
 2007              		.loc 1 1124 0
 2008 0100 FB68     		ldr	r3, [r7, #12]
 2009 0102 1B68     		ldr	r3, [r3]
 2010 0104 FA68     		ldr	r2, [r7, #12]
 2011 0106 1268     		ldr	r2, [r2]
 2012 0108 1268     		ldr	r2, [r2]
 2013 010a 22F48062 		bic	r2, r2, #1024
 2014 010e 1A60     		str	r2, [r3]
1125:Drivers/STM32F4xx_HAL_Driver/Src/stm32f4xx_hal_i2c.c **** 
1126:Drivers/STM32F4xx_HAL_Driver/Src/stm32f4xx_hal_i2c.c ****         if(hi2c->ErrorCode == HAL_I2C_ERROR_TIMEOUT)
 2015              		.loc 1 1126 0
 2016 0110 FB68     		ldr	r3, [r7, #12]
 2017 0112 1B6C     		ldr	r3, [r3, #64]
 2018 0114 202B     		cmp	r3, #32
 2019 0116 01D1     		bne	.L96
1127:Drivers/STM32F4xx_HAL_Driver/Src/stm32f4xx_hal_i2c.c ****         {
1128:Drivers/STM32F4xx_HAL_Driver/Src/stm32f4xx_hal_i2c.c ****           return HAL_TIMEOUT;
ARM GAS  /tmp/cc3ELaEI.s 			page 56


 2020              		.loc 1 1128 0
 2021 0118 0323     		movs	r3, #3
 2022 011a 7BE0     		b	.L90
 2023              	.L96:
1129:Drivers/STM32F4xx_HAL_Driver/Src/stm32f4xx_hal_i2c.c ****         }
1130:Drivers/STM32F4xx_HAL_Driver/Src/stm32f4xx_hal_i2c.c ****         else
1131:Drivers/STM32F4xx_HAL_Driver/Src/stm32f4xx_hal_i2c.c ****         {
1132:Drivers/STM32F4xx_HAL_Driver/Src/stm32f4xx_hal_i2c.c ****           return HAL_ERROR;
 2024              		.loc 1 1132 0
 2025 011c 0123     		movs	r3, #1
 2026 011e 79E0     		b	.L90
 2027              	.L95:
1133:Drivers/STM32F4xx_HAL_Driver/Src/stm32f4xx_hal_i2c.c ****         }
1134:Drivers/STM32F4xx_HAL_Driver/Src/stm32f4xx_hal_i2c.c ****       }
1135:Drivers/STM32F4xx_HAL_Driver/Src/stm32f4xx_hal_i2c.c **** 
1136:Drivers/STM32F4xx_HAL_Driver/Src/stm32f4xx_hal_i2c.c ****       /* Read data from DR */
1137:Drivers/STM32F4xx_HAL_Driver/Src/stm32f4xx_hal_i2c.c ****       (*hi2c->pBuffPtr++) = hi2c->Instance->DR;
 2028              		.loc 1 1137 0
 2029 0120 FB68     		ldr	r3, [r7, #12]
 2030 0122 5B6A     		ldr	r3, [r3, #36]
 2031 0124 591C     		adds	r1, r3, #1
 2032 0126 FA68     		ldr	r2, [r7, #12]
 2033 0128 5162     		str	r1, [r2, #36]
 2034 012a FA68     		ldr	r2, [r7, #12]
 2035 012c 1268     		ldr	r2, [r2]
 2036 012e 1269     		ldr	r2, [r2, #16]
 2037 0130 D2B2     		uxtb	r2, r2
 2038 0132 1A70     		strb	r2, [r3]
1138:Drivers/STM32F4xx_HAL_Driver/Src/stm32f4xx_hal_i2c.c ****       hi2c->XferSize--;
 2039              		.loc 1 1138 0
 2040 0134 FB68     		ldr	r3, [r7, #12]
 2041 0136 1B8D     		ldrh	r3, [r3, #40]
 2042 0138 013B     		subs	r3, r3, #1
 2043 013a 9AB2     		uxth	r2, r3
 2044 013c FB68     		ldr	r3, [r7, #12]
 2045 013e 1A85     		strh	r2, [r3, #40]	@ movhi
1139:Drivers/STM32F4xx_HAL_Driver/Src/stm32f4xx_hal_i2c.c ****       hi2c->XferCount--;
 2046              		.loc 1 1139 0
 2047 0140 FB68     		ldr	r3, [r7, #12]
 2048 0142 5B8D     		ldrh	r3, [r3, #42]	@ movhi
 2049 0144 9BB2     		uxth	r3, r3
 2050 0146 013B     		subs	r3, r3, #1
 2051 0148 9AB2     		uxth	r2, r3
 2052 014a FB68     		ldr	r3, [r7, #12]
 2053 014c 5A85     		strh	r2, [r3, #42]	@ movhi
1140:Drivers/STM32F4xx_HAL_Driver/Src/stm32f4xx_hal_i2c.c **** 
1141:Drivers/STM32F4xx_HAL_Driver/Src/stm32f4xx_hal_i2c.c ****       if((__HAL_I2C_GET_FLAG(hi2c, I2C_FLAG_BTF) == SET) && (Size != 0U))
 2054              		.loc 1 1141 0
 2055 014e FB68     		ldr	r3, [r7, #12]
 2056 0150 1B68     		ldr	r3, [r3]
 2057 0152 5B69     		ldr	r3, [r3, #20]
 2058 0154 03F00403 		and	r3, r3, #4
 2059 0158 002B     		cmp	r3, #0
 2060 015a 19D0     		beq	.L94
 2061              		.loc 1 1141 0 is_stmt 0 discriminator 1
 2062 015c FB88     		ldrh	r3, [r7, #6]
 2063 015e 002B     		cmp	r3, #0
ARM GAS  /tmp/cc3ELaEI.s 			page 57


 2064 0160 16D0     		beq	.L94
1142:Drivers/STM32F4xx_HAL_Driver/Src/stm32f4xx_hal_i2c.c ****       {
1143:Drivers/STM32F4xx_HAL_Driver/Src/stm32f4xx_hal_i2c.c ****         /* Read data from DR */
1144:Drivers/STM32F4xx_HAL_Driver/Src/stm32f4xx_hal_i2c.c ****       (*hi2c->pBuffPtr++) = hi2c->Instance->DR;
 2065              		.loc 1 1144 0 is_stmt 1
 2066 0162 FB68     		ldr	r3, [r7, #12]
 2067 0164 5B6A     		ldr	r3, [r3, #36]
 2068 0166 591C     		adds	r1, r3, #1
 2069 0168 FA68     		ldr	r2, [r7, #12]
 2070 016a 5162     		str	r1, [r2, #36]
 2071 016c FA68     		ldr	r2, [r7, #12]
 2072 016e 1268     		ldr	r2, [r2]
 2073 0170 1269     		ldr	r2, [r2, #16]
 2074 0172 D2B2     		uxtb	r2, r2
 2075 0174 1A70     		strb	r2, [r3]
1145:Drivers/STM32F4xx_HAL_Driver/Src/stm32f4xx_hal_i2c.c ****       hi2c->XferSize--;
 2076              		.loc 1 1145 0
 2077 0176 FB68     		ldr	r3, [r7, #12]
 2078 0178 1B8D     		ldrh	r3, [r3, #40]
 2079 017a 013B     		subs	r3, r3, #1
 2080 017c 9AB2     		uxth	r2, r3
 2081 017e FB68     		ldr	r3, [r7, #12]
 2082 0180 1A85     		strh	r2, [r3, #40]	@ movhi
1146:Drivers/STM32F4xx_HAL_Driver/Src/stm32f4xx_hal_i2c.c ****       hi2c->XferCount--;
 2083              		.loc 1 1146 0
 2084 0182 FB68     		ldr	r3, [r7, #12]
 2085 0184 5B8D     		ldrh	r3, [r3, #42]	@ movhi
 2086 0186 9BB2     		uxth	r3, r3
 2087 0188 013B     		subs	r3, r3, #1
 2088 018a 9AB2     		uxth	r2, r3
 2089 018c FB68     		ldr	r3, [r7, #12]
 2090 018e 5A85     		strh	r2, [r3, #42]	@ movhi
 2091              	.L94:
1118:Drivers/STM32F4xx_HAL_Driver/Src/stm32f4xx_hal_i2c.c ****     {
 2092              		.loc 1 1118 0
 2093 0190 FB68     		ldr	r3, [r7, #12]
 2094 0192 1B8D     		ldrh	r3, [r3, #40]
 2095 0194 002B     		cmp	r3, #0
 2096 0196 ABD1     		bne	.L97
1147:Drivers/STM32F4xx_HAL_Driver/Src/stm32f4xx_hal_i2c.c ****       }
1148:Drivers/STM32F4xx_HAL_Driver/Src/stm32f4xx_hal_i2c.c ****     }
1149:Drivers/STM32F4xx_HAL_Driver/Src/stm32f4xx_hal_i2c.c **** 
1150:Drivers/STM32F4xx_HAL_Driver/Src/stm32f4xx_hal_i2c.c ****     /* Wait until STOP flag is set */
1151:Drivers/STM32F4xx_HAL_Driver/Src/stm32f4xx_hal_i2c.c ****     if(I2C_WaitOnSTOPFlagUntilTimeout(hi2c, Timeout, tickstart) != HAL_OK)
 2097              		.loc 1 1151 0
 2098 0198 FA69     		ldr	r2, [r7, #28]
 2099 019a 3968     		ldr	r1, [r7]
 2100 019c F868     		ldr	r0, [r7, #12]
 2101 019e FFF7FEFF 		bl	I2C_WaitOnSTOPFlagUntilTimeout
 2102 01a2 0346     		mov	r3, r0
 2103 01a4 002B     		cmp	r3, #0
 2104 01a6 0FD0     		beq	.L98
1152:Drivers/STM32F4xx_HAL_Driver/Src/stm32f4xx_hal_i2c.c ****     {
1153:Drivers/STM32F4xx_HAL_Driver/Src/stm32f4xx_hal_i2c.c ****       /* Disable Address Acknowledge */
1154:Drivers/STM32F4xx_HAL_Driver/Src/stm32f4xx_hal_i2c.c ****       hi2c->Instance->CR1 &= ~I2C_CR1_ACK;
 2105              		.loc 1 1154 0
 2106 01a8 FB68     		ldr	r3, [r7, #12]
ARM GAS  /tmp/cc3ELaEI.s 			page 58


 2107 01aa 1B68     		ldr	r3, [r3]
 2108 01ac FA68     		ldr	r2, [r7, #12]
 2109 01ae 1268     		ldr	r2, [r2]
 2110 01b0 1268     		ldr	r2, [r2]
 2111 01b2 22F48062 		bic	r2, r2, #1024
 2112 01b6 1A60     		str	r2, [r3]
1155:Drivers/STM32F4xx_HAL_Driver/Src/stm32f4xx_hal_i2c.c **** 
1156:Drivers/STM32F4xx_HAL_Driver/Src/stm32f4xx_hal_i2c.c ****       if(hi2c->ErrorCode == HAL_I2C_ERROR_AF)
 2113              		.loc 1 1156 0
 2114 01b8 FB68     		ldr	r3, [r7, #12]
 2115 01ba 1B6C     		ldr	r3, [r3, #64]
 2116 01bc 042B     		cmp	r3, #4
 2117 01be 01D1     		bne	.L99
1157:Drivers/STM32F4xx_HAL_Driver/Src/stm32f4xx_hal_i2c.c ****       {
1158:Drivers/STM32F4xx_HAL_Driver/Src/stm32f4xx_hal_i2c.c ****         return HAL_ERROR;
 2118              		.loc 1 1158 0
 2119 01c0 0123     		movs	r3, #1
 2120 01c2 27E0     		b	.L90
 2121              	.L99:
1159:Drivers/STM32F4xx_HAL_Driver/Src/stm32f4xx_hal_i2c.c ****       }
1160:Drivers/STM32F4xx_HAL_Driver/Src/stm32f4xx_hal_i2c.c ****       else
1161:Drivers/STM32F4xx_HAL_Driver/Src/stm32f4xx_hal_i2c.c ****       {
1162:Drivers/STM32F4xx_HAL_Driver/Src/stm32f4xx_hal_i2c.c ****         return HAL_TIMEOUT;
 2122              		.loc 1 1162 0
 2123 01c4 0323     		movs	r3, #3
 2124 01c6 25E0     		b	.L90
 2125              	.L98:
 2126              	.LBB10:
1163:Drivers/STM32F4xx_HAL_Driver/Src/stm32f4xx_hal_i2c.c ****       }
1164:Drivers/STM32F4xx_HAL_Driver/Src/stm32f4xx_hal_i2c.c ****     }
1165:Drivers/STM32F4xx_HAL_Driver/Src/stm32f4xx_hal_i2c.c **** 
1166:Drivers/STM32F4xx_HAL_Driver/Src/stm32f4xx_hal_i2c.c ****     /* Clear STOP flag */
1167:Drivers/STM32F4xx_HAL_Driver/Src/stm32f4xx_hal_i2c.c ****     __HAL_I2C_CLEAR_STOPFLAG(hi2c);
 2127              		.loc 1 1167 0
 2128 01c8 0023     		movs	r3, #0
 2129 01ca 7B61     		str	r3, [r7, #20]
 2130 01cc FB68     		ldr	r3, [r7, #12]
 2131 01ce 1B68     		ldr	r3, [r3]
 2132 01d0 5B69     		ldr	r3, [r3, #20]
 2133 01d2 7B61     		str	r3, [r7, #20]
 2134 01d4 FB68     		ldr	r3, [r7, #12]
 2135 01d6 1B68     		ldr	r3, [r3]
 2136 01d8 FA68     		ldr	r2, [r7, #12]
 2137 01da 1268     		ldr	r2, [r2]
 2138 01dc 1268     		ldr	r2, [r2]
 2139 01de 42F00102 		orr	r2, r2, #1
 2140 01e2 1A60     		str	r2, [r3]
 2141 01e4 7B69     		ldr	r3, [r7, #20]
 2142              	.LBE10:
1168:Drivers/STM32F4xx_HAL_Driver/Src/stm32f4xx_hal_i2c.c **** 
1169:Drivers/STM32F4xx_HAL_Driver/Src/stm32f4xx_hal_i2c.c ****     /* Disable Address Acknowledge */
1170:Drivers/STM32F4xx_HAL_Driver/Src/stm32f4xx_hal_i2c.c ****     hi2c->Instance->CR1 &= ~I2C_CR1_ACK;
 2143              		.loc 1 1170 0
 2144 01e6 FB68     		ldr	r3, [r7, #12]
 2145 01e8 1B68     		ldr	r3, [r3]
 2146 01ea FA68     		ldr	r2, [r7, #12]
 2147 01ec 1268     		ldr	r2, [r2]
ARM GAS  /tmp/cc3ELaEI.s 			page 59


 2148 01ee 1268     		ldr	r2, [r2]
 2149 01f0 22F48062 		bic	r2, r2, #1024
 2150 01f4 1A60     		str	r2, [r3]
1171:Drivers/STM32F4xx_HAL_Driver/Src/stm32f4xx_hal_i2c.c **** 
1172:Drivers/STM32F4xx_HAL_Driver/Src/stm32f4xx_hal_i2c.c ****     hi2c->State = HAL_I2C_STATE_READY;
 2151              		.loc 1 1172 0
 2152 01f6 FB68     		ldr	r3, [r7, #12]
 2153 01f8 2022     		movs	r2, #32
 2154 01fa 83F83D20 		strb	r2, [r3, #61]
1173:Drivers/STM32F4xx_HAL_Driver/Src/stm32f4xx_hal_i2c.c ****     hi2c->Mode = HAL_I2C_MODE_NONE;
 2155              		.loc 1 1173 0
 2156 01fe FB68     		ldr	r3, [r7, #12]
 2157 0200 0022     		movs	r2, #0
 2158 0202 83F83E20 		strb	r2, [r3, #62]
1174:Drivers/STM32F4xx_HAL_Driver/Src/stm32f4xx_hal_i2c.c **** 
1175:Drivers/STM32F4xx_HAL_Driver/Src/stm32f4xx_hal_i2c.c ****     /* Process Unlocked */
1176:Drivers/STM32F4xx_HAL_Driver/Src/stm32f4xx_hal_i2c.c ****     __HAL_UNLOCK(hi2c);
 2159              		.loc 1 1176 0
 2160 0206 FB68     		ldr	r3, [r7, #12]
 2161 0208 0022     		movs	r2, #0
 2162 020a 83F83C20 		strb	r2, [r3, #60]
1177:Drivers/STM32F4xx_HAL_Driver/Src/stm32f4xx_hal_i2c.c **** 
1178:Drivers/STM32F4xx_HAL_Driver/Src/stm32f4xx_hal_i2c.c ****     return HAL_OK;
 2163              		.loc 1 1178 0
 2164 020e 0023     		movs	r3, #0
 2165 0210 00E0     		b	.L90
 2166              	.L87:
1179:Drivers/STM32F4xx_HAL_Driver/Src/stm32f4xx_hal_i2c.c ****   }
1180:Drivers/STM32F4xx_HAL_Driver/Src/stm32f4xx_hal_i2c.c ****   else
1181:Drivers/STM32F4xx_HAL_Driver/Src/stm32f4xx_hal_i2c.c ****   {
1182:Drivers/STM32F4xx_HAL_Driver/Src/stm32f4xx_hal_i2c.c ****     return HAL_BUSY;
 2167              		.loc 1 1182 0
 2168 0212 0223     		movs	r3, #2
 2169              	.L90:
1183:Drivers/STM32F4xx_HAL_Driver/Src/stm32f4xx_hal_i2c.c ****   }
1184:Drivers/STM32F4xx_HAL_Driver/Src/stm32f4xx_hal_i2c.c **** }
 2170              		.loc 1 1184 0
 2171 0214 1846     		mov	r0, r3
 2172 0216 2037     		adds	r7, r7, #32
 2173              	.LCFI40:
 2174              		.cfi_def_cfa_offset 8
 2175 0218 BD46     		mov	sp, r7
 2176              	.LCFI41:
 2177              		.cfi_def_cfa_register 13
 2178              		@ sp needed
 2179 021a 80BD     		pop	{r7, pc}
 2180              	.L101:
 2181              		.align	2
 2182              	.L100:
 2183 021c 0000FFFF 		.word	-65536
 2184 0220 02000100 		.word	65538
 2185              		.cfi_endproc
 2186              	.LFE133:
 2188              		.section	.text.HAL_I2C_Master_Transmit_IT,"ax",%progbits
 2189              		.align	2
 2190              		.global	HAL_I2C_Master_Transmit_IT
 2191              		.thumb
ARM GAS  /tmp/cc3ELaEI.s 			page 60


 2192              		.thumb_func
 2194              	HAL_I2C_Master_Transmit_IT:
 2195              	.LFB134:
1185:Drivers/STM32F4xx_HAL_Driver/Src/stm32f4xx_hal_i2c.c **** 
1186:Drivers/STM32F4xx_HAL_Driver/Src/stm32f4xx_hal_i2c.c **** /**
1187:Drivers/STM32F4xx_HAL_Driver/Src/stm32f4xx_hal_i2c.c ****   * @brief  Transmit in master mode an amount of data in non-blocking mode with Interrupt
1188:Drivers/STM32F4xx_HAL_Driver/Src/stm32f4xx_hal_i2c.c ****   * @param  hi2c Pointer to a I2C_HandleTypeDef structure that contains
1189:Drivers/STM32F4xx_HAL_Driver/Src/stm32f4xx_hal_i2c.c ****   *                the configuration information for the specified I2C.
1190:Drivers/STM32F4xx_HAL_Driver/Src/stm32f4xx_hal_i2c.c ****   * @param  DevAddress Target device address: The device 7 bits address value
1191:Drivers/STM32F4xx_HAL_Driver/Src/stm32f4xx_hal_i2c.c ****   *         in datasheet must be shift at right before call interface
1192:Drivers/STM32F4xx_HAL_Driver/Src/stm32f4xx_hal_i2c.c ****   * @param  pData Pointer to data buffer
1193:Drivers/STM32F4xx_HAL_Driver/Src/stm32f4xx_hal_i2c.c ****   * @param  Size Amount of data to be sent
1194:Drivers/STM32F4xx_HAL_Driver/Src/stm32f4xx_hal_i2c.c ****   * @retval HAL status
1195:Drivers/STM32F4xx_HAL_Driver/Src/stm32f4xx_hal_i2c.c ****   */
1196:Drivers/STM32F4xx_HAL_Driver/Src/stm32f4xx_hal_i2c.c **** HAL_StatusTypeDef HAL_I2C_Master_Transmit_IT(I2C_HandleTypeDef *hi2c, uint16_t DevAddress, uint8_t 
1197:Drivers/STM32F4xx_HAL_Driver/Src/stm32f4xx_hal_i2c.c **** {
 2196              		.loc 1 1197 0
 2197              		.cfi_startproc
 2198              		@ args = 0, pretend = 0, frame = 24
 2199              		@ frame_needed = 1, uses_anonymous_args = 0
 2200              		@ link register save eliminated.
 2201 0000 80B4     		push	{r7}
 2202              	.LCFI42:
 2203              		.cfi_def_cfa_offset 4
 2204              		.cfi_offset 7, -4
 2205 0002 87B0     		sub	sp, sp, #28
 2206              	.LCFI43:
 2207              		.cfi_def_cfa_offset 32
 2208 0004 00AF     		add	r7, sp, #0
 2209              	.LCFI44:
 2210              		.cfi_def_cfa_register 7
 2211 0006 F860     		str	r0, [r7, #12]
 2212 0008 7A60     		str	r2, [r7, #4]
 2213 000a 1A46     		mov	r2, r3
 2214 000c 0B46     		mov	r3, r1	@ movhi
 2215 000e 7B81     		strh	r3, [r7, #10]	@ movhi
 2216 0010 1346     		mov	r3, r2	@ movhi
 2217 0012 3B81     		strh	r3, [r7, #8]	@ movhi
1198:Drivers/STM32F4xx_HAL_Driver/Src/stm32f4xx_hal_i2c.c ****   __IO uint32_t count = 0U;
 2218              		.loc 1 1198 0
 2219 0014 0023     		movs	r3, #0
 2220 0016 7B61     		str	r3, [r7, #20]
1199:Drivers/STM32F4xx_HAL_Driver/Src/stm32f4xx_hal_i2c.c **** 
1200:Drivers/STM32F4xx_HAL_Driver/Src/stm32f4xx_hal_i2c.c ****   if(hi2c->State == HAL_I2C_STATE_READY)
 2221              		.loc 1 1200 0
 2222 0018 FB68     		ldr	r3, [r7, #12]
 2223 001a 93F83D30 		ldrb	r3, [r3, #61]
 2224 001e DBB2     		uxtb	r3, r3
 2225 0020 202B     		cmp	r3, #32
 2226 0022 79D1     		bne	.L103
1201:Drivers/STM32F4xx_HAL_Driver/Src/stm32f4xx_hal_i2c.c ****   {
1202:Drivers/STM32F4xx_HAL_Driver/Src/stm32f4xx_hal_i2c.c ****     /* Wait until BUSY flag is reset */
1203:Drivers/STM32F4xx_HAL_Driver/Src/stm32f4xx_hal_i2c.c ****     count = I2C_TIMEOUT_BUSY_FLAG * (SystemCoreClock /25U /1000U);
 2227              		.loc 1 1203 0
 2228 0024 404B     		ldr	r3, .L109
 2229 0026 1B68     		ldr	r3, [r3]
 2230 0028 DB08     		lsrs	r3, r3, #3
ARM GAS  /tmp/cc3ELaEI.s 			page 61


 2231 002a 404A     		ldr	r2, .L109+4
 2232 002c A2FB0323 		umull	r2, r3, r2, r3
 2233 0030 1A0A     		lsrs	r2, r3, #8
 2234 0032 1346     		mov	r3, r2
 2235 0034 9B00     		lsls	r3, r3, #2
 2236 0036 1344     		add	r3, r3, r2
 2237 0038 9A00     		lsls	r2, r3, #2
 2238 003a 1344     		add	r3, r3, r2
 2239 003c 7B61     		str	r3, [r7, #20]
 2240              	.L106:
1204:Drivers/STM32F4xx_HAL_Driver/Src/stm32f4xx_hal_i2c.c ****     do
1205:Drivers/STM32F4xx_HAL_Driver/Src/stm32f4xx_hal_i2c.c ****     {
1206:Drivers/STM32F4xx_HAL_Driver/Src/stm32f4xx_hal_i2c.c ****       if(count-- == 0U)
 2241              		.loc 1 1206 0
 2242 003e 7B69     		ldr	r3, [r7, #20]
 2243 0040 5A1E     		subs	r2, r3, #1
 2244 0042 7A61     		str	r2, [r7, #20]
 2245 0044 002B     		cmp	r3, #0
 2246 0046 0CD1     		bne	.L104
1207:Drivers/STM32F4xx_HAL_Driver/Src/stm32f4xx_hal_i2c.c ****       {
1208:Drivers/STM32F4xx_HAL_Driver/Src/stm32f4xx_hal_i2c.c ****         hi2c->PreviousState = I2C_STATE_NONE;
 2247              		.loc 1 1208 0
 2248 0048 FB68     		ldr	r3, [r7, #12]
 2249 004a 0022     		movs	r2, #0
 2250 004c 1A63     		str	r2, [r3, #48]
1209:Drivers/STM32F4xx_HAL_Driver/Src/stm32f4xx_hal_i2c.c ****         hi2c->State= HAL_I2C_STATE_READY;
 2251              		.loc 1 1209 0
 2252 004e FB68     		ldr	r3, [r7, #12]
 2253 0050 2022     		movs	r2, #32
 2254 0052 83F83D20 		strb	r2, [r3, #61]
1210:Drivers/STM32F4xx_HAL_Driver/Src/stm32f4xx_hal_i2c.c **** 
1211:Drivers/STM32F4xx_HAL_Driver/Src/stm32f4xx_hal_i2c.c ****         /* Process Unlocked */
1212:Drivers/STM32F4xx_HAL_Driver/Src/stm32f4xx_hal_i2c.c ****         __HAL_UNLOCK(hi2c);
 2255              		.loc 1 1212 0
 2256 0056 FB68     		ldr	r3, [r7, #12]
 2257 0058 0022     		movs	r2, #0
 2258 005a 83F83C20 		strb	r2, [r3, #60]
1213:Drivers/STM32F4xx_HAL_Driver/Src/stm32f4xx_hal_i2c.c **** 
1214:Drivers/STM32F4xx_HAL_Driver/Src/stm32f4xx_hal_i2c.c ****         return HAL_TIMEOUT;
 2259              		.loc 1 1214 0
 2260 005e 0323     		movs	r3, #3
 2261 0060 5BE0     		b	.L105
 2262              	.L104:
1215:Drivers/STM32F4xx_HAL_Driver/Src/stm32f4xx_hal_i2c.c ****       }
1216:Drivers/STM32F4xx_HAL_Driver/Src/stm32f4xx_hal_i2c.c ****     }
1217:Drivers/STM32F4xx_HAL_Driver/Src/stm32f4xx_hal_i2c.c ****     while(__HAL_I2C_GET_FLAG(hi2c, I2C_FLAG_BUSY) != RESET);
 2263              		.loc 1 1217 0
 2264 0062 FB68     		ldr	r3, [r7, #12]
 2265 0064 1B68     		ldr	r3, [r3]
 2266 0066 9B69     		ldr	r3, [r3, #24]
 2267 0068 03F00203 		and	r3, r3, #2
 2268 006c 002B     		cmp	r3, #0
 2269 006e E6D1     		bne	.L106
1218:Drivers/STM32F4xx_HAL_Driver/Src/stm32f4xx_hal_i2c.c **** 
1219:Drivers/STM32F4xx_HAL_Driver/Src/stm32f4xx_hal_i2c.c ****     /* Process Locked */
1220:Drivers/STM32F4xx_HAL_Driver/Src/stm32f4xx_hal_i2c.c ****     __HAL_LOCK(hi2c);
 2270              		.loc 1 1220 0
ARM GAS  /tmp/cc3ELaEI.s 			page 62


 2271 0070 FB68     		ldr	r3, [r7, #12]
 2272 0072 93F83C30 		ldrb	r3, [r3, #60]	@ zero_extendqisi2
 2273 0076 012B     		cmp	r3, #1
 2274 0078 01D1     		bne	.L107
 2275              		.loc 1 1220 0 is_stmt 0 discriminator 1
 2276 007a 0223     		movs	r3, #2
 2277 007c 4DE0     		b	.L105
 2278              	.L107:
 2279              		.loc 1 1220 0 discriminator 2
 2280 007e FB68     		ldr	r3, [r7, #12]
 2281 0080 0122     		movs	r2, #1
 2282 0082 83F83C20 		strb	r2, [r3, #60]
1221:Drivers/STM32F4xx_HAL_Driver/Src/stm32f4xx_hal_i2c.c ****     
1222:Drivers/STM32F4xx_HAL_Driver/Src/stm32f4xx_hal_i2c.c ****     /* Check if the I2C is already enabled */
1223:Drivers/STM32F4xx_HAL_Driver/Src/stm32f4xx_hal_i2c.c ****     if((hi2c->Instance->CR1 & I2C_CR1_PE) != I2C_CR1_PE)
 2283              		.loc 1 1223 0 is_stmt 1 discriminator 2
 2284 0086 FB68     		ldr	r3, [r7, #12]
 2285 0088 1B68     		ldr	r3, [r3]
 2286 008a 1B68     		ldr	r3, [r3]
 2287 008c 03F00103 		and	r3, r3, #1
 2288 0090 002B     		cmp	r3, #0
 2289 0092 07D1     		bne	.L108
1224:Drivers/STM32F4xx_HAL_Driver/Src/stm32f4xx_hal_i2c.c ****     {
1225:Drivers/STM32F4xx_HAL_Driver/Src/stm32f4xx_hal_i2c.c ****       /* Enable I2C peripheral */
1226:Drivers/STM32F4xx_HAL_Driver/Src/stm32f4xx_hal_i2c.c ****       __HAL_I2C_ENABLE(hi2c);
 2290              		.loc 1 1226 0
 2291 0094 FB68     		ldr	r3, [r7, #12]
 2292 0096 1B68     		ldr	r3, [r3]
 2293 0098 FA68     		ldr	r2, [r7, #12]
 2294 009a 1268     		ldr	r2, [r2]
 2295 009c 1268     		ldr	r2, [r2]
 2296 009e 42F00102 		orr	r2, r2, #1
 2297 00a2 1A60     		str	r2, [r3]
 2298              	.L108:
1227:Drivers/STM32F4xx_HAL_Driver/Src/stm32f4xx_hal_i2c.c ****     }
1228:Drivers/STM32F4xx_HAL_Driver/Src/stm32f4xx_hal_i2c.c **** 
1229:Drivers/STM32F4xx_HAL_Driver/Src/stm32f4xx_hal_i2c.c ****     /* Disable Pos */
1230:Drivers/STM32F4xx_HAL_Driver/Src/stm32f4xx_hal_i2c.c ****     hi2c->Instance->CR1 &= ~I2C_CR1_POS;
 2299              		.loc 1 1230 0
 2300 00a4 FB68     		ldr	r3, [r7, #12]
 2301 00a6 1B68     		ldr	r3, [r3]
 2302 00a8 FA68     		ldr	r2, [r7, #12]
 2303 00aa 1268     		ldr	r2, [r2]
 2304 00ac 1268     		ldr	r2, [r2]
 2305 00ae 22F40062 		bic	r2, r2, #2048
 2306 00b2 1A60     		str	r2, [r3]
1231:Drivers/STM32F4xx_HAL_Driver/Src/stm32f4xx_hal_i2c.c **** 
1232:Drivers/STM32F4xx_HAL_Driver/Src/stm32f4xx_hal_i2c.c ****     hi2c->State     = HAL_I2C_STATE_BUSY_TX;
 2307              		.loc 1 1232 0
 2308 00b4 FB68     		ldr	r3, [r7, #12]
 2309 00b6 2122     		movs	r2, #33
 2310 00b8 83F83D20 		strb	r2, [r3, #61]
1233:Drivers/STM32F4xx_HAL_Driver/Src/stm32f4xx_hal_i2c.c ****     hi2c->Mode      = HAL_I2C_MODE_MASTER;
 2311              		.loc 1 1233 0
 2312 00bc FB68     		ldr	r3, [r7, #12]
 2313 00be 1022     		movs	r2, #16
 2314 00c0 83F83E20 		strb	r2, [r3, #62]
ARM GAS  /tmp/cc3ELaEI.s 			page 63


1234:Drivers/STM32F4xx_HAL_Driver/Src/stm32f4xx_hal_i2c.c ****     hi2c->ErrorCode = HAL_I2C_ERROR_NONE;
 2315              		.loc 1 1234 0
 2316 00c4 FB68     		ldr	r3, [r7, #12]
 2317 00c6 0022     		movs	r2, #0
 2318 00c8 1A64     		str	r2, [r3, #64]
1235:Drivers/STM32F4xx_HAL_Driver/Src/stm32f4xx_hal_i2c.c **** 
1236:Drivers/STM32F4xx_HAL_Driver/Src/stm32f4xx_hal_i2c.c ****     /* Prepare transfer parameters */
1237:Drivers/STM32F4xx_HAL_Driver/Src/stm32f4xx_hal_i2c.c ****     hi2c->pBuffPtr    = pData;
 2319              		.loc 1 1237 0
 2320 00ca FB68     		ldr	r3, [r7, #12]
 2321 00cc 7A68     		ldr	r2, [r7, #4]
 2322 00ce 5A62     		str	r2, [r3, #36]
1238:Drivers/STM32F4xx_HAL_Driver/Src/stm32f4xx_hal_i2c.c ****     hi2c->XferCount   = Size;
 2323              		.loc 1 1238 0
 2324 00d0 FB68     		ldr	r3, [r7, #12]
 2325 00d2 3A89     		ldrh	r2, [r7, #8]	@ movhi
 2326 00d4 5A85     		strh	r2, [r3, #42]	@ movhi
1239:Drivers/STM32F4xx_HAL_Driver/Src/stm32f4xx_hal_i2c.c ****     hi2c->XferOptions = I2C_NO_OPTION_FRAME;
 2327              		.loc 1 1239 0
 2328 00d6 FB68     		ldr	r3, [r7, #12]
 2329 00d8 154A     		ldr	r2, .L109+8
 2330 00da DA62     		str	r2, [r3, #44]
1240:Drivers/STM32F4xx_HAL_Driver/Src/stm32f4xx_hal_i2c.c ****     hi2c->XferSize    = hi2c->XferCount;
 2331              		.loc 1 1240 0
 2332 00dc FB68     		ldr	r3, [r7, #12]
 2333 00de 5B8D     		ldrh	r3, [r3, #42]	@ movhi
 2334 00e0 9AB2     		uxth	r2, r3
 2335 00e2 FB68     		ldr	r3, [r7, #12]
 2336 00e4 1A85     		strh	r2, [r3, #40]	@ movhi
1241:Drivers/STM32F4xx_HAL_Driver/Src/stm32f4xx_hal_i2c.c ****     hi2c->Devaddress  = DevAddress;
 2337              		.loc 1 1241 0
 2338 00e6 7A89     		ldrh	r2, [r7, #10]
 2339 00e8 FB68     		ldr	r3, [r7, #12]
 2340 00ea 5A64     		str	r2, [r3, #68]
1242:Drivers/STM32F4xx_HAL_Driver/Src/stm32f4xx_hal_i2c.c **** 
1243:Drivers/STM32F4xx_HAL_Driver/Src/stm32f4xx_hal_i2c.c ****     /* Generate Start */
1244:Drivers/STM32F4xx_HAL_Driver/Src/stm32f4xx_hal_i2c.c ****     hi2c->Instance->CR1 |= I2C_CR1_START;
 2341              		.loc 1 1244 0
 2342 00ec FB68     		ldr	r3, [r7, #12]
 2343 00ee 1B68     		ldr	r3, [r3]
 2344 00f0 FA68     		ldr	r2, [r7, #12]
 2345 00f2 1268     		ldr	r2, [r2]
 2346 00f4 1268     		ldr	r2, [r2]
 2347 00f6 42F48072 		orr	r2, r2, #256
 2348 00fa 1A60     		str	r2, [r3]
1245:Drivers/STM32F4xx_HAL_Driver/Src/stm32f4xx_hal_i2c.c **** 
1246:Drivers/STM32F4xx_HAL_Driver/Src/stm32f4xx_hal_i2c.c ****     /* Process Unlocked */
1247:Drivers/STM32F4xx_HAL_Driver/Src/stm32f4xx_hal_i2c.c ****     __HAL_UNLOCK(hi2c);
 2349              		.loc 1 1247 0
 2350 00fc FB68     		ldr	r3, [r7, #12]
 2351 00fe 0022     		movs	r2, #0
 2352 0100 83F83C20 		strb	r2, [r3, #60]
1248:Drivers/STM32F4xx_HAL_Driver/Src/stm32f4xx_hal_i2c.c **** 
1249:Drivers/STM32F4xx_HAL_Driver/Src/stm32f4xx_hal_i2c.c ****     /* Note : The I2C interrupts must be enabled after unlocking current process
1250:Drivers/STM32F4xx_HAL_Driver/Src/stm32f4xx_hal_i2c.c ****               to avoid the risk of I2C interrupt handle execution before current
1251:Drivers/STM32F4xx_HAL_Driver/Src/stm32f4xx_hal_i2c.c ****               process unlock */
1252:Drivers/STM32F4xx_HAL_Driver/Src/stm32f4xx_hal_i2c.c ****     /* Enable EVT, BUF and ERR interrupt */
ARM GAS  /tmp/cc3ELaEI.s 			page 64


1253:Drivers/STM32F4xx_HAL_Driver/Src/stm32f4xx_hal_i2c.c ****     __HAL_I2C_ENABLE_IT(hi2c, I2C_IT_EVT | I2C_IT_BUF | I2C_IT_ERR);
 2353              		.loc 1 1253 0
 2354 0104 FB68     		ldr	r3, [r7, #12]
 2355 0106 1B68     		ldr	r3, [r3]
 2356 0108 FA68     		ldr	r2, [r7, #12]
 2357 010a 1268     		ldr	r2, [r2]
 2358 010c 5268     		ldr	r2, [r2, #4]
 2359 010e 42F4E062 		orr	r2, r2, #1792
 2360 0112 5A60     		str	r2, [r3, #4]
1254:Drivers/STM32F4xx_HAL_Driver/Src/stm32f4xx_hal_i2c.c **** 
1255:Drivers/STM32F4xx_HAL_Driver/Src/stm32f4xx_hal_i2c.c ****     return HAL_OK;
 2361              		.loc 1 1255 0
 2362 0114 0023     		movs	r3, #0
 2363 0116 00E0     		b	.L105
 2364              	.L103:
1256:Drivers/STM32F4xx_HAL_Driver/Src/stm32f4xx_hal_i2c.c ****   }
1257:Drivers/STM32F4xx_HAL_Driver/Src/stm32f4xx_hal_i2c.c ****   else
1258:Drivers/STM32F4xx_HAL_Driver/Src/stm32f4xx_hal_i2c.c ****   {
1259:Drivers/STM32F4xx_HAL_Driver/Src/stm32f4xx_hal_i2c.c ****     return HAL_BUSY;
 2365              		.loc 1 1259 0
 2366 0118 0223     		movs	r3, #2
 2367              	.L105:
1260:Drivers/STM32F4xx_HAL_Driver/Src/stm32f4xx_hal_i2c.c ****   }
1261:Drivers/STM32F4xx_HAL_Driver/Src/stm32f4xx_hal_i2c.c **** }
 2368              		.loc 1 1261 0
 2369 011a 1846     		mov	r0, r3
 2370 011c 1C37     		adds	r7, r7, #28
 2371              	.LCFI45:
 2372              		.cfi_def_cfa_offset 4
 2373 011e BD46     		mov	sp, r7
 2374              	.LCFI46:
 2375              		.cfi_def_cfa_register 13
 2376              		@ sp needed
 2377 0120 5DF8047B 		ldr	r7, [sp], #4
 2378              	.LCFI47:
 2379              		.cfi_restore 7
 2380              		.cfi_def_cfa_offset 0
 2381 0124 7047     		bx	lr
 2382              	.L110:
 2383 0126 00BF     		.align	2
 2384              	.L109:
 2385 0128 00000000 		.word	SystemCoreClock
 2386 012c 89B5F814 		.word	351843721
 2387 0130 0000FFFF 		.word	-65536
 2388              		.cfi_endproc
 2389              	.LFE134:
 2391              		.section	.text.HAL_I2C_Master_Receive_IT,"ax",%progbits
 2392              		.align	2
 2393              		.global	HAL_I2C_Master_Receive_IT
 2394              		.thumb
 2395              		.thumb_func
 2397              	HAL_I2C_Master_Receive_IT:
 2398              	.LFB135:
1262:Drivers/STM32F4xx_HAL_Driver/Src/stm32f4xx_hal_i2c.c **** 
1263:Drivers/STM32F4xx_HAL_Driver/Src/stm32f4xx_hal_i2c.c **** /**
1264:Drivers/STM32F4xx_HAL_Driver/Src/stm32f4xx_hal_i2c.c ****   * @brief  Receive in master mode an amount of data in non-blocking mode with Interrupt
1265:Drivers/STM32F4xx_HAL_Driver/Src/stm32f4xx_hal_i2c.c ****   * @param  hi2c Pointer to a I2C_HandleTypeDef structure that contains
ARM GAS  /tmp/cc3ELaEI.s 			page 65


1266:Drivers/STM32F4xx_HAL_Driver/Src/stm32f4xx_hal_i2c.c ****   *                the configuration information for the specified I2C.
1267:Drivers/STM32F4xx_HAL_Driver/Src/stm32f4xx_hal_i2c.c ****   * @param  DevAddress Target device address: The device 7 bits address value
1268:Drivers/STM32F4xx_HAL_Driver/Src/stm32f4xx_hal_i2c.c ****   *         in datasheet must be shift at right before call interface
1269:Drivers/STM32F4xx_HAL_Driver/Src/stm32f4xx_hal_i2c.c ****   * @param  pData Pointer to data buffer
1270:Drivers/STM32F4xx_HAL_Driver/Src/stm32f4xx_hal_i2c.c ****   * @param  Size Amount of data to be sent
1271:Drivers/STM32F4xx_HAL_Driver/Src/stm32f4xx_hal_i2c.c ****   * @retval HAL status
1272:Drivers/STM32F4xx_HAL_Driver/Src/stm32f4xx_hal_i2c.c ****   */
1273:Drivers/STM32F4xx_HAL_Driver/Src/stm32f4xx_hal_i2c.c **** HAL_StatusTypeDef HAL_I2C_Master_Receive_IT(I2C_HandleTypeDef *hi2c, uint16_t DevAddress, uint8_t *
1274:Drivers/STM32F4xx_HAL_Driver/Src/stm32f4xx_hal_i2c.c **** {
 2399              		.loc 1 1274 0
 2400              		.cfi_startproc
 2401              		@ args = 0, pretend = 0, frame = 24
 2402              		@ frame_needed = 1, uses_anonymous_args = 0
 2403              		@ link register save eliminated.
 2404 0000 80B4     		push	{r7}
 2405              	.LCFI48:
 2406              		.cfi_def_cfa_offset 4
 2407              		.cfi_offset 7, -4
 2408 0002 87B0     		sub	sp, sp, #28
 2409              	.LCFI49:
 2410              		.cfi_def_cfa_offset 32
 2411 0004 00AF     		add	r7, sp, #0
 2412              	.LCFI50:
 2413              		.cfi_def_cfa_register 7
 2414 0006 F860     		str	r0, [r7, #12]
 2415 0008 7A60     		str	r2, [r7, #4]
 2416 000a 1A46     		mov	r2, r3
 2417 000c 0B46     		mov	r3, r1	@ movhi
 2418 000e 7B81     		strh	r3, [r7, #10]	@ movhi
 2419 0010 1346     		mov	r3, r2	@ movhi
 2420 0012 3B81     		strh	r3, [r7, #8]	@ movhi
1275:Drivers/STM32F4xx_HAL_Driver/Src/stm32f4xx_hal_i2c.c ****   __IO uint32_t count = 0U;
 2421              		.loc 1 1275 0
 2422 0014 0023     		movs	r3, #0
 2423 0016 7B61     		str	r3, [r7, #20]
1276:Drivers/STM32F4xx_HAL_Driver/Src/stm32f4xx_hal_i2c.c **** 
1277:Drivers/STM32F4xx_HAL_Driver/Src/stm32f4xx_hal_i2c.c ****   if(hi2c->State == HAL_I2C_STATE_READY)
 2424              		.loc 1 1277 0
 2425 0018 FB68     		ldr	r3, [r7, #12]
 2426 001a 93F83D30 		ldrb	r3, [r3, #61]
 2427 001e DBB2     		uxtb	r3, r3
 2428 0020 202B     		cmp	r3, #32
 2429 0022 40F08280 		bne	.L112
1278:Drivers/STM32F4xx_HAL_Driver/Src/stm32f4xx_hal_i2c.c ****   {
1279:Drivers/STM32F4xx_HAL_Driver/Src/stm32f4xx_hal_i2c.c ****     /* Wait until BUSY flag is reset */
1280:Drivers/STM32F4xx_HAL_Driver/Src/stm32f4xx_hal_i2c.c ****     count = I2C_TIMEOUT_BUSY_FLAG * (SystemCoreClock /25U /1000U);
 2430              		.loc 1 1280 0
 2431 0026 444B     		ldr	r3, .L118
 2432 0028 1B68     		ldr	r3, [r3]
 2433 002a DB08     		lsrs	r3, r3, #3
 2434 002c 434A     		ldr	r2, .L118+4
 2435 002e A2FB0323 		umull	r2, r3, r2, r3
 2436 0032 1A0A     		lsrs	r2, r3, #8
 2437 0034 1346     		mov	r3, r2
 2438 0036 9B00     		lsls	r3, r3, #2
 2439 0038 1344     		add	r3, r3, r2
 2440 003a 9A00     		lsls	r2, r3, #2
ARM GAS  /tmp/cc3ELaEI.s 			page 66


 2441 003c 1344     		add	r3, r3, r2
 2442 003e 7B61     		str	r3, [r7, #20]
 2443              	.L115:
1281:Drivers/STM32F4xx_HAL_Driver/Src/stm32f4xx_hal_i2c.c ****     do
1282:Drivers/STM32F4xx_HAL_Driver/Src/stm32f4xx_hal_i2c.c ****     {
1283:Drivers/STM32F4xx_HAL_Driver/Src/stm32f4xx_hal_i2c.c ****       if(count-- == 0U)
 2444              		.loc 1 1283 0
 2445 0040 7B69     		ldr	r3, [r7, #20]
 2446 0042 5A1E     		subs	r2, r3, #1
 2447 0044 7A61     		str	r2, [r7, #20]
 2448 0046 002B     		cmp	r3, #0
 2449 0048 0CD1     		bne	.L113
1284:Drivers/STM32F4xx_HAL_Driver/Src/stm32f4xx_hal_i2c.c ****       {
1285:Drivers/STM32F4xx_HAL_Driver/Src/stm32f4xx_hal_i2c.c ****         hi2c->PreviousState = I2C_STATE_NONE;
 2450              		.loc 1 1285 0
 2451 004a FB68     		ldr	r3, [r7, #12]
 2452 004c 0022     		movs	r2, #0
 2453 004e 1A63     		str	r2, [r3, #48]
1286:Drivers/STM32F4xx_HAL_Driver/Src/stm32f4xx_hal_i2c.c ****         hi2c->State= HAL_I2C_STATE_READY;
 2454              		.loc 1 1286 0
 2455 0050 FB68     		ldr	r3, [r7, #12]
 2456 0052 2022     		movs	r2, #32
 2457 0054 83F83D20 		strb	r2, [r3, #61]
1287:Drivers/STM32F4xx_HAL_Driver/Src/stm32f4xx_hal_i2c.c **** 
1288:Drivers/STM32F4xx_HAL_Driver/Src/stm32f4xx_hal_i2c.c ****         /* Process Unlocked */
1289:Drivers/STM32F4xx_HAL_Driver/Src/stm32f4xx_hal_i2c.c ****         __HAL_UNLOCK(hi2c);
 2458              		.loc 1 1289 0
 2459 0058 FB68     		ldr	r3, [r7, #12]
 2460 005a 0022     		movs	r2, #0
 2461 005c 83F83C20 		strb	r2, [r3, #60]
1290:Drivers/STM32F4xx_HAL_Driver/Src/stm32f4xx_hal_i2c.c **** 
1291:Drivers/STM32F4xx_HAL_Driver/Src/stm32f4xx_hal_i2c.c ****         return HAL_TIMEOUT; 
 2462              		.loc 1 1291 0
 2463 0060 0323     		movs	r3, #3
 2464 0062 63E0     		b	.L114
 2465              	.L113:
1292:Drivers/STM32F4xx_HAL_Driver/Src/stm32f4xx_hal_i2c.c ****       }
1293:Drivers/STM32F4xx_HAL_Driver/Src/stm32f4xx_hal_i2c.c ****     }
1294:Drivers/STM32F4xx_HAL_Driver/Src/stm32f4xx_hal_i2c.c ****     while(__HAL_I2C_GET_FLAG(hi2c, I2C_FLAG_BUSY) != RESET);
 2466              		.loc 1 1294 0
 2467 0064 FB68     		ldr	r3, [r7, #12]
 2468 0066 1B68     		ldr	r3, [r3]
 2469 0068 9B69     		ldr	r3, [r3, #24]
 2470 006a 03F00203 		and	r3, r3, #2
 2471 006e 002B     		cmp	r3, #0
 2472 0070 E6D1     		bne	.L115
1295:Drivers/STM32F4xx_HAL_Driver/Src/stm32f4xx_hal_i2c.c **** 
1296:Drivers/STM32F4xx_HAL_Driver/Src/stm32f4xx_hal_i2c.c ****     /* Process Locked */
1297:Drivers/STM32F4xx_HAL_Driver/Src/stm32f4xx_hal_i2c.c ****     __HAL_LOCK(hi2c);
 2473              		.loc 1 1297 0
 2474 0072 FB68     		ldr	r3, [r7, #12]
 2475 0074 93F83C30 		ldrb	r3, [r3, #60]	@ zero_extendqisi2
 2476 0078 012B     		cmp	r3, #1
 2477 007a 01D1     		bne	.L116
 2478              		.loc 1 1297 0 is_stmt 0 discriminator 1
 2479 007c 0223     		movs	r3, #2
 2480 007e 55E0     		b	.L114
ARM GAS  /tmp/cc3ELaEI.s 			page 67


 2481              	.L116:
 2482              		.loc 1 1297 0 discriminator 2
 2483 0080 FB68     		ldr	r3, [r7, #12]
 2484 0082 0122     		movs	r2, #1
 2485 0084 83F83C20 		strb	r2, [r3, #60]
1298:Drivers/STM32F4xx_HAL_Driver/Src/stm32f4xx_hal_i2c.c ****     
1299:Drivers/STM32F4xx_HAL_Driver/Src/stm32f4xx_hal_i2c.c ****     /* Check if the I2C is already enabled */
1300:Drivers/STM32F4xx_HAL_Driver/Src/stm32f4xx_hal_i2c.c ****     if((hi2c->Instance->CR1 & I2C_CR1_PE) != I2C_CR1_PE)
 2486              		.loc 1 1300 0 is_stmt 1 discriminator 2
 2487 0088 FB68     		ldr	r3, [r7, #12]
 2488 008a 1B68     		ldr	r3, [r3]
 2489 008c 1B68     		ldr	r3, [r3]
 2490 008e 03F00103 		and	r3, r3, #1
 2491 0092 002B     		cmp	r3, #0
 2492 0094 07D1     		bne	.L117
1301:Drivers/STM32F4xx_HAL_Driver/Src/stm32f4xx_hal_i2c.c ****     {
1302:Drivers/STM32F4xx_HAL_Driver/Src/stm32f4xx_hal_i2c.c ****       /* Enable I2C peripheral */
1303:Drivers/STM32F4xx_HAL_Driver/Src/stm32f4xx_hal_i2c.c ****       __HAL_I2C_ENABLE(hi2c);
 2493              		.loc 1 1303 0
 2494 0096 FB68     		ldr	r3, [r7, #12]
 2495 0098 1B68     		ldr	r3, [r3]
 2496 009a FA68     		ldr	r2, [r7, #12]
 2497 009c 1268     		ldr	r2, [r2]
 2498 009e 1268     		ldr	r2, [r2]
 2499 00a0 42F00102 		orr	r2, r2, #1
 2500 00a4 1A60     		str	r2, [r3]
 2501              	.L117:
1304:Drivers/STM32F4xx_HAL_Driver/Src/stm32f4xx_hal_i2c.c ****     }
1305:Drivers/STM32F4xx_HAL_Driver/Src/stm32f4xx_hal_i2c.c **** 
1306:Drivers/STM32F4xx_HAL_Driver/Src/stm32f4xx_hal_i2c.c ****     /* Disable Pos */
1307:Drivers/STM32F4xx_HAL_Driver/Src/stm32f4xx_hal_i2c.c ****     hi2c->Instance->CR1 &= ~I2C_CR1_POS;
 2502              		.loc 1 1307 0
 2503 00a6 FB68     		ldr	r3, [r7, #12]
 2504 00a8 1B68     		ldr	r3, [r3]
 2505 00aa FA68     		ldr	r2, [r7, #12]
 2506 00ac 1268     		ldr	r2, [r2]
 2507 00ae 1268     		ldr	r2, [r2]
 2508 00b0 22F40062 		bic	r2, r2, #2048
 2509 00b4 1A60     		str	r2, [r3]
1308:Drivers/STM32F4xx_HAL_Driver/Src/stm32f4xx_hal_i2c.c **** 
1309:Drivers/STM32F4xx_HAL_Driver/Src/stm32f4xx_hal_i2c.c ****     hi2c->State     = HAL_I2C_STATE_BUSY_RX;
 2510              		.loc 1 1309 0
 2511 00b6 FB68     		ldr	r3, [r7, #12]
 2512 00b8 2222     		movs	r2, #34
 2513 00ba 83F83D20 		strb	r2, [r3, #61]
1310:Drivers/STM32F4xx_HAL_Driver/Src/stm32f4xx_hal_i2c.c ****     hi2c->Mode      = HAL_I2C_MODE_MASTER;
 2514              		.loc 1 1310 0
 2515 00be FB68     		ldr	r3, [r7, #12]
 2516 00c0 1022     		movs	r2, #16
 2517 00c2 83F83E20 		strb	r2, [r3, #62]
1311:Drivers/STM32F4xx_HAL_Driver/Src/stm32f4xx_hal_i2c.c ****     hi2c->ErrorCode = HAL_I2C_ERROR_NONE;
 2518              		.loc 1 1311 0
 2519 00c6 FB68     		ldr	r3, [r7, #12]
 2520 00c8 0022     		movs	r2, #0
 2521 00ca 1A64     		str	r2, [r3, #64]
1312:Drivers/STM32F4xx_HAL_Driver/Src/stm32f4xx_hal_i2c.c **** 
1313:Drivers/STM32F4xx_HAL_Driver/Src/stm32f4xx_hal_i2c.c ****     /* Prepare transfer parameters */
ARM GAS  /tmp/cc3ELaEI.s 			page 68


1314:Drivers/STM32F4xx_HAL_Driver/Src/stm32f4xx_hal_i2c.c ****     hi2c->pBuffPtr    = pData;
 2522              		.loc 1 1314 0
 2523 00cc FB68     		ldr	r3, [r7, #12]
 2524 00ce 7A68     		ldr	r2, [r7, #4]
 2525 00d0 5A62     		str	r2, [r3, #36]
1315:Drivers/STM32F4xx_HAL_Driver/Src/stm32f4xx_hal_i2c.c ****     hi2c->XferCount   = Size;
 2526              		.loc 1 1315 0
 2527 00d2 FB68     		ldr	r3, [r7, #12]
 2528 00d4 3A89     		ldrh	r2, [r7, #8]	@ movhi
 2529 00d6 5A85     		strh	r2, [r3, #42]	@ movhi
1316:Drivers/STM32F4xx_HAL_Driver/Src/stm32f4xx_hal_i2c.c ****     hi2c->XferOptions = I2C_NO_OPTION_FRAME;
 2530              		.loc 1 1316 0
 2531 00d8 FB68     		ldr	r3, [r7, #12]
 2532 00da 194A     		ldr	r2, .L118+8
 2533 00dc DA62     		str	r2, [r3, #44]
1317:Drivers/STM32F4xx_HAL_Driver/Src/stm32f4xx_hal_i2c.c ****     hi2c->XferSize    = hi2c->XferCount;
 2534              		.loc 1 1317 0
 2535 00de FB68     		ldr	r3, [r7, #12]
 2536 00e0 5B8D     		ldrh	r3, [r3, #42]	@ movhi
 2537 00e2 9AB2     		uxth	r2, r3
 2538 00e4 FB68     		ldr	r3, [r7, #12]
 2539 00e6 1A85     		strh	r2, [r3, #40]	@ movhi
1318:Drivers/STM32F4xx_HAL_Driver/Src/stm32f4xx_hal_i2c.c ****     hi2c->Devaddress  = DevAddress;
 2540              		.loc 1 1318 0
 2541 00e8 7A89     		ldrh	r2, [r7, #10]
 2542 00ea FB68     		ldr	r3, [r7, #12]
 2543 00ec 5A64     		str	r2, [r3, #68]
1319:Drivers/STM32F4xx_HAL_Driver/Src/stm32f4xx_hal_i2c.c **** 
1320:Drivers/STM32F4xx_HAL_Driver/Src/stm32f4xx_hal_i2c.c ****     /* Enable Acknowledge */
1321:Drivers/STM32F4xx_HAL_Driver/Src/stm32f4xx_hal_i2c.c ****     hi2c->Instance->CR1 |= I2C_CR1_ACK;
 2544              		.loc 1 1321 0
 2545 00ee FB68     		ldr	r3, [r7, #12]
 2546 00f0 1B68     		ldr	r3, [r3]
 2547 00f2 FA68     		ldr	r2, [r7, #12]
 2548 00f4 1268     		ldr	r2, [r2]
 2549 00f6 1268     		ldr	r2, [r2]
 2550 00f8 42F48062 		orr	r2, r2, #1024
 2551 00fc 1A60     		str	r2, [r3]
1322:Drivers/STM32F4xx_HAL_Driver/Src/stm32f4xx_hal_i2c.c **** 
1323:Drivers/STM32F4xx_HAL_Driver/Src/stm32f4xx_hal_i2c.c ****     /* Generate Start */
1324:Drivers/STM32F4xx_HAL_Driver/Src/stm32f4xx_hal_i2c.c ****     hi2c->Instance->CR1 |= I2C_CR1_START;
 2552              		.loc 1 1324 0
 2553 00fe FB68     		ldr	r3, [r7, #12]
 2554 0100 1B68     		ldr	r3, [r3]
 2555 0102 FA68     		ldr	r2, [r7, #12]
 2556 0104 1268     		ldr	r2, [r2]
 2557 0106 1268     		ldr	r2, [r2]
 2558 0108 42F48072 		orr	r2, r2, #256
 2559 010c 1A60     		str	r2, [r3]
1325:Drivers/STM32F4xx_HAL_Driver/Src/stm32f4xx_hal_i2c.c **** 
1326:Drivers/STM32F4xx_HAL_Driver/Src/stm32f4xx_hal_i2c.c ****     /* Process Unlocked */
1327:Drivers/STM32F4xx_HAL_Driver/Src/stm32f4xx_hal_i2c.c ****     __HAL_UNLOCK(hi2c);
 2560              		.loc 1 1327 0
 2561 010e FB68     		ldr	r3, [r7, #12]
 2562 0110 0022     		movs	r2, #0
 2563 0112 83F83C20 		strb	r2, [r3, #60]
1328:Drivers/STM32F4xx_HAL_Driver/Src/stm32f4xx_hal_i2c.c **** 
ARM GAS  /tmp/cc3ELaEI.s 			page 69


1329:Drivers/STM32F4xx_HAL_Driver/Src/stm32f4xx_hal_i2c.c ****     /* Note : The I2C interrupts must be enabled after unlocking current process
1330:Drivers/STM32F4xx_HAL_Driver/Src/stm32f4xx_hal_i2c.c ****     to avoid the risk of I2C interrupt handle execution before current
1331:Drivers/STM32F4xx_HAL_Driver/Src/stm32f4xx_hal_i2c.c ****     process unlock */
1332:Drivers/STM32F4xx_HAL_Driver/Src/stm32f4xx_hal_i2c.c **** 
1333:Drivers/STM32F4xx_HAL_Driver/Src/stm32f4xx_hal_i2c.c ****     /* Enable EVT, BUF and ERR interrupt */
1334:Drivers/STM32F4xx_HAL_Driver/Src/stm32f4xx_hal_i2c.c ****     __HAL_I2C_ENABLE_IT(hi2c, I2C_IT_EVT | I2C_IT_BUF | I2C_IT_ERR);
 2564              		.loc 1 1334 0
 2565 0116 FB68     		ldr	r3, [r7, #12]
 2566 0118 1B68     		ldr	r3, [r3]
 2567 011a FA68     		ldr	r2, [r7, #12]
 2568 011c 1268     		ldr	r2, [r2]
 2569 011e 5268     		ldr	r2, [r2, #4]
 2570 0120 42F4E062 		orr	r2, r2, #1792
 2571 0124 5A60     		str	r2, [r3, #4]
1335:Drivers/STM32F4xx_HAL_Driver/Src/stm32f4xx_hal_i2c.c **** 
1336:Drivers/STM32F4xx_HAL_Driver/Src/stm32f4xx_hal_i2c.c ****     return HAL_OK;
 2572              		.loc 1 1336 0
 2573 0126 0023     		movs	r3, #0
 2574 0128 00E0     		b	.L114
 2575              	.L112:
1337:Drivers/STM32F4xx_HAL_Driver/Src/stm32f4xx_hal_i2c.c ****   }
1338:Drivers/STM32F4xx_HAL_Driver/Src/stm32f4xx_hal_i2c.c ****   else
1339:Drivers/STM32F4xx_HAL_Driver/Src/stm32f4xx_hal_i2c.c ****   {
1340:Drivers/STM32F4xx_HAL_Driver/Src/stm32f4xx_hal_i2c.c ****     return HAL_BUSY;
 2576              		.loc 1 1340 0
 2577 012a 0223     		movs	r3, #2
 2578              	.L114:
1341:Drivers/STM32F4xx_HAL_Driver/Src/stm32f4xx_hal_i2c.c ****   }
1342:Drivers/STM32F4xx_HAL_Driver/Src/stm32f4xx_hal_i2c.c **** }
 2579              		.loc 1 1342 0
 2580 012c 1846     		mov	r0, r3
 2581 012e 1C37     		adds	r7, r7, #28
 2582              	.LCFI51:
 2583              		.cfi_def_cfa_offset 4
 2584 0130 BD46     		mov	sp, r7
 2585              	.LCFI52:
 2586              		.cfi_def_cfa_register 13
 2587              		@ sp needed
 2588 0132 5DF8047B 		ldr	r7, [sp], #4
 2589              	.LCFI53:
 2590              		.cfi_restore 7
 2591              		.cfi_def_cfa_offset 0
 2592 0136 7047     		bx	lr
 2593              	.L119:
 2594              		.align	2
 2595              	.L118:
 2596 0138 00000000 		.word	SystemCoreClock
 2597 013c 89B5F814 		.word	351843721
 2598 0140 0000FFFF 		.word	-65536
 2599              		.cfi_endproc
 2600              	.LFE135:
 2602              		.section	.text.HAL_I2C_Master_Sequential_Transmit_IT,"ax",%progbits
 2603              		.align	2
 2604              		.global	HAL_I2C_Master_Sequential_Transmit_IT
 2605              		.thumb
 2606              		.thumb_func
 2608              	HAL_I2C_Master_Sequential_Transmit_IT:
ARM GAS  /tmp/cc3ELaEI.s 			page 70


 2609              	.LFB136:
1343:Drivers/STM32F4xx_HAL_Driver/Src/stm32f4xx_hal_i2c.c **** 
1344:Drivers/STM32F4xx_HAL_Driver/Src/stm32f4xx_hal_i2c.c **** /**
1345:Drivers/STM32F4xx_HAL_Driver/Src/stm32f4xx_hal_i2c.c ****   * @brief  Sequential transmit in master mode an amount of data in non-blocking mode with Interrup
1346:Drivers/STM32F4xx_HAL_Driver/Src/stm32f4xx_hal_i2c.c ****   * @note   This interface allow to manage repeated start condition when a direction change during 
1347:Drivers/STM32F4xx_HAL_Driver/Src/stm32f4xx_hal_i2c.c ****   * @param  hi2c Pointer to a I2C_HandleTypeDef structure that contains
1348:Drivers/STM32F4xx_HAL_Driver/Src/stm32f4xx_hal_i2c.c ****   *         the configuration information for the specified I2C.
1349:Drivers/STM32F4xx_HAL_Driver/Src/stm32f4xx_hal_i2c.c ****   * @param  DevAddress Target device address: The device 7 bits address value
1350:Drivers/STM32F4xx_HAL_Driver/Src/stm32f4xx_hal_i2c.c ****   *         in datasheet must be shift at right before call interface
1351:Drivers/STM32F4xx_HAL_Driver/Src/stm32f4xx_hal_i2c.c ****   * @param  pData Pointer to data buffer
1352:Drivers/STM32F4xx_HAL_Driver/Src/stm32f4xx_hal_i2c.c ****   * @param  Size Amount of data to be sent
1353:Drivers/STM32F4xx_HAL_Driver/Src/stm32f4xx_hal_i2c.c ****   * @param  XferOptions Options of Transfer, value of @ref I2C_XferOptions_definition
1354:Drivers/STM32F4xx_HAL_Driver/Src/stm32f4xx_hal_i2c.c ****   * @retval HAL status
1355:Drivers/STM32F4xx_HAL_Driver/Src/stm32f4xx_hal_i2c.c ****   */
1356:Drivers/STM32F4xx_HAL_Driver/Src/stm32f4xx_hal_i2c.c **** HAL_StatusTypeDef HAL_I2C_Master_Sequential_Transmit_IT(I2C_HandleTypeDef *hi2c, uint16_t DevAddres
1357:Drivers/STM32F4xx_HAL_Driver/Src/stm32f4xx_hal_i2c.c **** {
 2610              		.loc 1 1357 0
 2611              		.cfi_startproc
 2612              		@ args = 4, pretend = 0, frame = 24
 2613              		@ frame_needed = 1, uses_anonymous_args = 0
 2614              		@ link register save eliminated.
 2615 0000 80B4     		push	{r7}
 2616              	.LCFI54:
 2617              		.cfi_def_cfa_offset 4
 2618              		.cfi_offset 7, -4
 2619 0002 87B0     		sub	sp, sp, #28
 2620              	.LCFI55:
 2621              		.cfi_def_cfa_offset 32
 2622 0004 00AF     		add	r7, sp, #0
 2623              	.LCFI56:
 2624              		.cfi_def_cfa_register 7
 2625 0006 F860     		str	r0, [r7, #12]
 2626 0008 7A60     		str	r2, [r7, #4]
 2627 000a 1A46     		mov	r2, r3
 2628 000c 0B46     		mov	r3, r1	@ movhi
 2629 000e 7B81     		strh	r3, [r7, #10]	@ movhi
 2630 0010 1346     		mov	r3, r2	@ movhi
 2631 0012 3B81     		strh	r3, [r7, #8]	@ movhi
1358:Drivers/STM32F4xx_HAL_Driver/Src/stm32f4xx_hal_i2c.c ****   __IO uint32_t Prev_State = 0x00U;
 2632              		.loc 1 1358 0
 2633 0014 0023     		movs	r3, #0
 2634 0016 7B61     		str	r3, [r7, #20]
1359:Drivers/STM32F4xx_HAL_Driver/Src/stm32f4xx_hal_i2c.c ****   __IO uint32_t count      = 0x00U;
 2635              		.loc 1 1359 0
 2636 0018 0023     		movs	r3, #0
 2637 001a 3B61     		str	r3, [r7, #16]
1360:Drivers/STM32F4xx_HAL_Driver/Src/stm32f4xx_hal_i2c.c ****   
1361:Drivers/STM32F4xx_HAL_Driver/Src/stm32f4xx_hal_i2c.c ****   /* Check the parameters */
1362:Drivers/STM32F4xx_HAL_Driver/Src/stm32f4xx_hal_i2c.c ****   assert_param(IS_I2C_TRANSFER_OPTIONS_REQUEST(XferOptions));
1363:Drivers/STM32F4xx_HAL_Driver/Src/stm32f4xx_hal_i2c.c **** 
1364:Drivers/STM32F4xx_HAL_Driver/Src/stm32f4xx_hal_i2c.c ****   if(hi2c->State == HAL_I2C_STATE_READY)
 2638              		.loc 1 1364 0
 2639 001c FB68     		ldr	r3, [r7, #12]
 2640 001e 93F83D30 		ldrb	r3, [r3, #61]
 2641 0022 DBB2     		uxtb	r3, r3
 2642 0024 202B     		cmp	r3, #32
 2643 0026 40F09B80 		bne	.L121
ARM GAS  /tmp/cc3ELaEI.s 			page 71


1365:Drivers/STM32F4xx_HAL_Driver/Src/stm32f4xx_hal_i2c.c ****   {
1366:Drivers/STM32F4xx_HAL_Driver/Src/stm32f4xx_hal_i2c.c ****     /* Check Busy Flag only if FIRST call of Master interface */
1367:Drivers/STM32F4xx_HAL_Driver/Src/stm32f4xx_hal_i2c.c ****     if((XferOptions == I2C_FIRST_AND_LAST_FRAME) || (XferOptions == I2C_FIRST_FRAME))
 2644              		.loc 1 1367 0
 2645 002a 3B6A     		ldr	r3, [r7, #32]
 2646 002c 042B     		cmp	r3, #4
 2647 002e 02D0     		beq	.L122
 2648              		.loc 1 1367 0 is_stmt 0 discriminator 1
 2649 0030 3B6A     		ldr	r3, [r7, #32]
 2650 0032 012B     		cmp	r3, #1
 2651 0034 25D1     		bne	.L123
 2652              	.L122:
1368:Drivers/STM32F4xx_HAL_Driver/Src/stm32f4xx_hal_i2c.c ****     {
1369:Drivers/STM32F4xx_HAL_Driver/Src/stm32f4xx_hal_i2c.c ****       /* Wait until BUSY flag is reset */
1370:Drivers/STM32F4xx_HAL_Driver/Src/stm32f4xx_hal_i2c.c ****       count = I2C_TIMEOUT_BUSY_FLAG * (SystemCoreClock /25U /1000U);
 2653              		.loc 1 1370 0 is_stmt 1
 2654 0036 4E4B     		ldr	r3, .L133
 2655 0038 1B68     		ldr	r3, [r3]
 2656 003a DB08     		lsrs	r3, r3, #3
 2657 003c 4D4A     		ldr	r2, .L133+4
 2658 003e A2FB0323 		umull	r2, r3, r2, r3
 2659 0042 1A0A     		lsrs	r2, r3, #8
 2660 0044 1346     		mov	r3, r2
 2661 0046 9B00     		lsls	r3, r3, #2
 2662 0048 1344     		add	r3, r3, r2
 2663 004a 9A00     		lsls	r2, r3, #2
 2664 004c 1344     		add	r3, r3, r2
 2665 004e 3B61     		str	r3, [r7, #16]
 2666              	.L126:
1371:Drivers/STM32F4xx_HAL_Driver/Src/stm32f4xx_hal_i2c.c ****       do
1372:Drivers/STM32F4xx_HAL_Driver/Src/stm32f4xx_hal_i2c.c ****       {
1373:Drivers/STM32F4xx_HAL_Driver/Src/stm32f4xx_hal_i2c.c ****         if(count-- == 0U)
 2667              		.loc 1 1373 0
 2668 0050 3B69     		ldr	r3, [r7, #16]
 2669 0052 5A1E     		subs	r2, r3, #1
 2670 0054 3A61     		str	r2, [r7, #16]
 2671 0056 002B     		cmp	r3, #0
 2672 0058 0CD1     		bne	.L124
1374:Drivers/STM32F4xx_HAL_Driver/Src/stm32f4xx_hal_i2c.c ****         {
1375:Drivers/STM32F4xx_HAL_Driver/Src/stm32f4xx_hal_i2c.c ****           hi2c->PreviousState = I2C_STATE_NONE;
 2673              		.loc 1 1375 0
 2674 005a FB68     		ldr	r3, [r7, #12]
 2675 005c 0022     		movs	r2, #0
 2676 005e 1A63     		str	r2, [r3, #48]
1376:Drivers/STM32F4xx_HAL_Driver/Src/stm32f4xx_hal_i2c.c ****           hi2c->State= HAL_I2C_STATE_READY;
 2677              		.loc 1 1376 0
 2678 0060 FB68     		ldr	r3, [r7, #12]
 2679 0062 2022     		movs	r2, #32
 2680 0064 83F83D20 		strb	r2, [r3, #61]
1377:Drivers/STM32F4xx_HAL_Driver/Src/stm32f4xx_hal_i2c.c ****           
1378:Drivers/STM32F4xx_HAL_Driver/Src/stm32f4xx_hal_i2c.c ****           /* Process Unlocked */
1379:Drivers/STM32F4xx_HAL_Driver/Src/stm32f4xx_hal_i2c.c ****           __HAL_UNLOCK(hi2c);
 2681              		.loc 1 1379 0
 2682 0068 FB68     		ldr	r3, [r7, #12]
 2683 006a 0022     		movs	r2, #0
 2684 006c 83F83C20 		strb	r2, [r3, #60]
1380:Drivers/STM32F4xx_HAL_Driver/Src/stm32f4xx_hal_i2c.c ****           
ARM GAS  /tmp/cc3ELaEI.s 			page 72


1381:Drivers/STM32F4xx_HAL_Driver/Src/stm32f4xx_hal_i2c.c ****           return HAL_TIMEOUT; 
 2685              		.loc 1 1381 0
 2686 0070 0323     		movs	r3, #3
 2687 0072 76E0     		b	.L125
 2688              	.L124:
1382:Drivers/STM32F4xx_HAL_Driver/Src/stm32f4xx_hal_i2c.c ****         }
1383:Drivers/STM32F4xx_HAL_Driver/Src/stm32f4xx_hal_i2c.c ****       }
1384:Drivers/STM32F4xx_HAL_Driver/Src/stm32f4xx_hal_i2c.c ****       while(__HAL_I2C_GET_FLAG(hi2c, I2C_FLAG_BUSY) != RESET);
 2689              		.loc 1 1384 0
 2690 0074 FB68     		ldr	r3, [r7, #12]
 2691 0076 1B68     		ldr	r3, [r3]
 2692 0078 9B69     		ldr	r3, [r3, #24]
 2693 007a 03F00203 		and	r3, r3, #2
 2694 007e 002B     		cmp	r3, #0
 2695 0080 E6D1     		bne	.L126
 2696              	.L123:
1385:Drivers/STM32F4xx_HAL_Driver/Src/stm32f4xx_hal_i2c.c ****     }
1386:Drivers/STM32F4xx_HAL_Driver/Src/stm32f4xx_hal_i2c.c **** 
1387:Drivers/STM32F4xx_HAL_Driver/Src/stm32f4xx_hal_i2c.c ****     /* Process Locked */
1388:Drivers/STM32F4xx_HAL_Driver/Src/stm32f4xx_hal_i2c.c ****     __HAL_LOCK(hi2c);
 2697              		.loc 1 1388 0
 2698 0082 FB68     		ldr	r3, [r7, #12]
 2699 0084 93F83C30 		ldrb	r3, [r3, #60]	@ zero_extendqisi2
 2700 0088 012B     		cmp	r3, #1
 2701 008a 01D1     		bne	.L127
 2702              		.loc 1 1388 0 is_stmt 0 discriminator 1
 2703 008c 0223     		movs	r3, #2
 2704 008e 68E0     		b	.L125
 2705              	.L127:
 2706              		.loc 1 1388 0 discriminator 2
 2707 0090 FB68     		ldr	r3, [r7, #12]
 2708 0092 0122     		movs	r2, #1
 2709 0094 83F83C20 		strb	r2, [r3, #60]
1389:Drivers/STM32F4xx_HAL_Driver/Src/stm32f4xx_hal_i2c.c **** 
1390:Drivers/STM32F4xx_HAL_Driver/Src/stm32f4xx_hal_i2c.c ****     /* Check if the I2C is already enabled */
1391:Drivers/STM32F4xx_HAL_Driver/Src/stm32f4xx_hal_i2c.c ****     if((hi2c->Instance->CR1 & I2C_CR1_PE) != I2C_CR1_PE)
 2710              		.loc 1 1391 0 is_stmt 1 discriminator 2
 2711 0098 FB68     		ldr	r3, [r7, #12]
 2712 009a 1B68     		ldr	r3, [r3]
 2713 009c 1B68     		ldr	r3, [r3]
 2714 009e 03F00103 		and	r3, r3, #1
 2715 00a2 002B     		cmp	r3, #0
 2716 00a4 07D1     		bne	.L128
1392:Drivers/STM32F4xx_HAL_Driver/Src/stm32f4xx_hal_i2c.c ****     {
1393:Drivers/STM32F4xx_HAL_Driver/Src/stm32f4xx_hal_i2c.c ****       /* Enable I2C peripheral */
1394:Drivers/STM32F4xx_HAL_Driver/Src/stm32f4xx_hal_i2c.c ****       __HAL_I2C_ENABLE(hi2c);
 2717              		.loc 1 1394 0
 2718 00a6 FB68     		ldr	r3, [r7, #12]
 2719 00a8 1B68     		ldr	r3, [r3]
 2720 00aa FA68     		ldr	r2, [r7, #12]
 2721 00ac 1268     		ldr	r2, [r2]
 2722 00ae 1268     		ldr	r2, [r2]
 2723 00b0 42F00102 		orr	r2, r2, #1
 2724 00b4 1A60     		str	r2, [r3]
 2725              	.L128:
1395:Drivers/STM32F4xx_HAL_Driver/Src/stm32f4xx_hal_i2c.c ****     }
1396:Drivers/STM32F4xx_HAL_Driver/Src/stm32f4xx_hal_i2c.c **** 
ARM GAS  /tmp/cc3ELaEI.s 			page 73


1397:Drivers/STM32F4xx_HAL_Driver/Src/stm32f4xx_hal_i2c.c ****     /* Disable Pos */
1398:Drivers/STM32F4xx_HAL_Driver/Src/stm32f4xx_hal_i2c.c ****     hi2c->Instance->CR1 &= ~I2C_CR1_POS;
 2726              		.loc 1 1398 0
 2727 00b6 FB68     		ldr	r3, [r7, #12]
 2728 00b8 1B68     		ldr	r3, [r3]
 2729 00ba FA68     		ldr	r2, [r7, #12]
 2730 00bc 1268     		ldr	r2, [r2]
 2731 00be 1268     		ldr	r2, [r2]
 2732 00c0 22F40062 		bic	r2, r2, #2048
 2733 00c4 1A60     		str	r2, [r3]
1399:Drivers/STM32F4xx_HAL_Driver/Src/stm32f4xx_hal_i2c.c **** 
1400:Drivers/STM32F4xx_HAL_Driver/Src/stm32f4xx_hal_i2c.c ****     hi2c->State     = HAL_I2C_STATE_BUSY_TX;
 2734              		.loc 1 1400 0
 2735 00c6 FB68     		ldr	r3, [r7, #12]
 2736 00c8 2122     		movs	r2, #33
 2737 00ca 83F83D20 		strb	r2, [r3, #61]
1401:Drivers/STM32F4xx_HAL_Driver/Src/stm32f4xx_hal_i2c.c ****     hi2c->Mode      = HAL_I2C_MODE_MASTER;
 2738              		.loc 1 1401 0
 2739 00ce FB68     		ldr	r3, [r7, #12]
 2740 00d0 1022     		movs	r2, #16
 2741 00d2 83F83E20 		strb	r2, [r3, #62]
1402:Drivers/STM32F4xx_HAL_Driver/Src/stm32f4xx_hal_i2c.c ****     hi2c->ErrorCode = HAL_I2C_ERROR_NONE;
 2742              		.loc 1 1402 0
 2743 00d6 FB68     		ldr	r3, [r7, #12]
 2744 00d8 0022     		movs	r2, #0
 2745 00da 1A64     		str	r2, [r3, #64]
1403:Drivers/STM32F4xx_HAL_Driver/Src/stm32f4xx_hal_i2c.c **** 
1404:Drivers/STM32F4xx_HAL_Driver/Src/stm32f4xx_hal_i2c.c ****     /* Prepare transfer parameters */
1405:Drivers/STM32F4xx_HAL_Driver/Src/stm32f4xx_hal_i2c.c ****     hi2c->pBuffPtr    = pData;
 2746              		.loc 1 1405 0
 2747 00dc FB68     		ldr	r3, [r7, #12]
 2748 00de 7A68     		ldr	r2, [r7, #4]
 2749 00e0 5A62     		str	r2, [r3, #36]
1406:Drivers/STM32F4xx_HAL_Driver/Src/stm32f4xx_hal_i2c.c ****     hi2c->XferCount   = Size;
 2750              		.loc 1 1406 0
 2751 00e2 FB68     		ldr	r3, [r7, #12]
 2752 00e4 3A89     		ldrh	r2, [r7, #8]	@ movhi
 2753 00e6 5A85     		strh	r2, [r3, #42]	@ movhi
1407:Drivers/STM32F4xx_HAL_Driver/Src/stm32f4xx_hal_i2c.c ****     hi2c->XferOptions = XferOptions;
 2754              		.loc 1 1407 0
 2755 00e8 FB68     		ldr	r3, [r7, #12]
 2756 00ea 3A6A     		ldr	r2, [r7, #32]
 2757 00ec DA62     		str	r2, [r3, #44]
1408:Drivers/STM32F4xx_HAL_Driver/Src/stm32f4xx_hal_i2c.c ****     hi2c->XferSize    = hi2c->XferCount;
 2758              		.loc 1 1408 0
 2759 00ee FB68     		ldr	r3, [r7, #12]
 2760 00f0 5B8D     		ldrh	r3, [r3, #42]	@ movhi
 2761 00f2 9AB2     		uxth	r2, r3
 2762 00f4 FB68     		ldr	r3, [r7, #12]
 2763 00f6 1A85     		strh	r2, [r3, #40]	@ movhi
1409:Drivers/STM32F4xx_HAL_Driver/Src/stm32f4xx_hal_i2c.c ****     hi2c->Devaddress  = DevAddress;
 2764              		.loc 1 1409 0
 2765 00f8 7A89     		ldrh	r2, [r7, #10]
 2766 00fa FB68     		ldr	r3, [r7, #12]
 2767 00fc 5A64     		str	r2, [r3, #68]
1410:Drivers/STM32F4xx_HAL_Driver/Src/stm32f4xx_hal_i2c.c **** 
1411:Drivers/STM32F4xx_HAL_Driver/Src/stm32f4xx_hal_i2c.c ****     Prev_State = hi2c->PreviousState;
ARM GAS  /tmp/cc3ELaEI.s 			page 74


 2768              		.loc 1 1411 0
 2769 00fe FB68     		ldr	r3, [r7, #12]
 2770 0100 1B6B     		ldr	r3, [r3, #48]
 2771 0102 7B61     		str	r3, [r7, #20]
1412:Drivers/STM32F4xx_HAL_Driver/Src/stm32f4xx_hal_i2c.c ****     
1413:Drivers/STM32F4xx_HAL_Driver/Src/stm32f4xx_hal_i2c.c ****     /* Generate Start */    
1414:Drivers/STM32F4xx_HAL_Driver/Src/stm32f4xx_hal_i2c.c ****     if((Prev_State == I2C_STATE_MASTER_BUSY_RX) || (Prev_State == I2C_STATE_NONE))
 2772              		.loc 1 1414 0
 2773 0104 7B69     		ldr	r3, [r7, #20]
 2774 0106 122B     		cmp	r3, #18
 2775 0108 02D0     		beq	.L129
 2776              		.loc 1 1414 0 is_stmt 0 discriminator 1
 2777 010a 7B69     		ldr	r3, [r7, #20]
 2778 010c 002B     		cmp	r3, #0
 2779 010e 19D1     		bne	.L130
 2780              	.L129:
1415:Drivers/STM32F4xx_HAL_Driver/Src/stm32f4xx_hal_i2c.c ****     {
1416:Drivers/STM32F4xx_HAL_Driver/Src/stm32f4xx_hal_i2c.c ****       /* Generate Start condition if first transfer */
1417:Drivers/STM32F4xx_HAL_Driver/Src/stm32f4xx_hal_i2c.c ****       if((XferOptions == I2C_FIRST_AND_LAST_FRAME) || (XferOptions == I2C_FIRST_FRAME))
 2781              		.loc 1 1417 0 is_stmt 1
 2782 0110 3B6A     		ldr	r3, [r7, #32]
 2783 0112 042B     		cmp	r3, #4
 2784 0114 02D0     		beq	.L131
 2785              		.loc 1 1417 0 is_stmt 0 discriminator 1
 2786 0116 3B6A     		ldr	r3, [r7, #32]
 2787 0118 012B     		cmp	r3, #1
 2788 011a 08D1     		bne	.L132
 2789              	.L131:
1418:Drivers/STM32F4xx_HAL_Driver/Src/stm32f4xx_hal_i2c.c ****       {
1419:Drivers/STM32F4xx_HAL_Driver/Src/stm32f4xx_hal_i2c.c ****         /* Generate Start */
1420:Drivers/STM32F4xx_HAL_Driver/Src/stm32f4xx_hal_i2c.c ****         hi2c->Instance->CR1 |= I2C_CR1_START;
 2790              		.loc 1 1420 0 is_stmt 1
 2791 011c FB68     		ldr	r3, [r7, #12]
 2792 011e 1B68     		ldr	r3, [r3]
 2793 0120 FA68     		ldr	r2, [r7, #12]
 2794 0122 1268     		ldr	r2, [r2]
 2795 0124 1268     		ldr	r2, [r2]
 2796 0126 42F48072 		orr	r2, r2, #256
 2797 012a 1A60     		str	r2, [r3]
 2798 012c 0AE0     		b	.L130
 2799              	.L132:
1421:Drivers/STM32F4xx_HAL_Driver/Src/stm32f4xx_hal_i2c.c ****       }
1422:Drivers/STM32F4xx_HAL_Driver/Src/stm32f4xx_hal_i2c.c ****       else if(Prev_State == I2C_STATE_MASTER_BUSY_RX)
 2800              		.loc 1 1422 0
 2801 012e 7B69     		ldr	r3, [r7, #20]
 2802 0130 122B     		cmp	r3, #18
 2803 0132 07D1     		bne	.L130
1423:Drivers/STM32F4xx_HAL_Driver/Src/stm32f4xx_hal_i2c.c ****       {
1424:Drivers/STM32F4xx_HAL_Driver/Src/stm32f4xx_hal_i2c.c ****         /* Generate ReStart */
1425:Drivers/STM32F4xx_HAL_Driver/Src/stm32f4xx_hal_i2c.c ****         hi2c->Instance->CR1 |= I2C_CR1_START;
 2804              		.loc 1 1425 0
 2805 0134 FB68     		ldr	r3, [r7, #12]
 2806 0136 1B68     		ldr	r3, [r3]
 2807 0138 FA68     		ldr	r2, [r7, #12]
 2808 013a 1268     		ldr	r2, [r2]
 2809 013c 1268     		ldr	r2, [r2]
 2810 013e 42F48072 		orr	r2, r2, #256
ARM GAS  /tmp/cc3ELaEI.s 			page 75


 2811 0142 1A60     		str	r2, [r3]
 2812              	.L130:
1426:Drivers/STM32F4xx_HAL_Driver/Src/stm32f4xx_hal_i2c.c ****       }
1427:Drivers/STM32F4xx_HAL_Driver/Src/stm32f4xx_hal_i2c.c ****     }
1428:Drivers/STM32F4xx_HAL_Driver/Src/stm32f4xx_hal_i2c.c **** 
1429:Drivers/STM32F4xx_HAL_Driver/Src/stm32f4xx_hal_i2c.c ****     /* Process Unlocked */
1430:Drivers/STM32F4xx_HAL_Driver/Src/stm32f4xx_hal_i2c.c ****     __HAL_UNLOCK(hi2c);
 2813              		.loc 1 1430 0
 2814 0144 FB68     		ldr	r3, [r7, #12]
 2815 0146 0022     		movs	r2, #0
 2816 0148 83F83C20 		strb	r2, [r3, #60]
1431:Drivers/STM32F4xx_HAL_Driver/Src/stm32f4xx_hal_i2c.c **** 
1432:Drivers/STM32F4xx_HAL_Driver/Src/stm32f4xx_hal_i2c.c ****     /* Note : The I2C interrupts must be enabled after unlocking current process
1433:Drivers/STM32F4xx_HAL_Driver/Src/stm32f4xx_hal_i2c.c ****     to avoid the risk of I2C interrupt handle execution before current
1434:Drivers/STM32F4xx_HAL_Driver/Src/stm32f4xx_hal_i2c.c ****     process unlock */
1435:Drivers/STM32F4xx_HAL_Driver/Src/stm32f4xx_hal_i2c.c **** 
1436:Drivers/STM32F4xx_HAL_Driver/Src/stm32f4xx_hal_i2c.c ****     /* Enable EVT, BUF and ERR interrupt */
1437:Drivers/STM32F4xx_HAL_Driver/Src/stm32f4xx_hal_i2c.c ****     __HAL_I2C_ENABLE_IT(hi2c, I2C_IT_EVT | I2C_IT_BUF | I2C_IT_ERR);
 2817              		.loc 1 1437 0
 2818 014c FB68     		ldr	r3, [r7, #12]
 2819 014e 1B68     		ldr	r3, [r3]
 2820 0150 FA68     		ldr	r2, [r7, #12]
 2821 0152 1268     		ldr	r2, [r2]
 2822 0154 5268     		ldr	r2, [r2, #4]
 2823 0156 42F4E062 		orr	r2, r2, #1792
 2824 015a 5A60     		str	r2, [r3, #4]
1438:Drivers/STM32F4xx_HAL_Driver/Src/stm32f4xx_hal_i2c.c **** 
1439:Drivers/STM32F4xx_HAL_Driver/Src/stm32f4xx_hal_i2c.c ****     return HAL_OK;
 2825              		.loc 1 1439 0
 2826 015c 0023     		movs	r3, #0
 2827 015e 00E0     		b	.L125
 2828              	.L121:
1440:Drivers/STM32F4xx_HAL_Driver/Src/stm32f4xx_hal_i2c.c ****   }
1441:Drivers/STM32F4xx_HAL_Driver/Src/stm32f4xx_hal_i2c.c ****   else
1442:Drivers/STM32F4xx_HAL_Driver/Src/stm32f4xx_hal_i2c.c ****   {
1443:Drivers/STM32F4xx_HAL_Driver/Src/stm32f4xx_hal_i2c.c ****     return HAL_BUSY;
 2829              		.loc 1 1443 0
 2830 0160 0223     		movs	r3, #2
 2831              	.L125:
1444:Drivers/STM32F4xx_HAL_Driver/Src/stm32f4xx_hal_i2c.c ****   }
1445:Drivers/STM32F4xx_HAL_Driver/Src/stm32f4xx_hal_i2c.c **** }
 2832              		.loc 1 1445 0
 2833 0162 1846     		mov	r0, r3
 2834 0164 1C37     		adds	r7, r7, #28
 2835              	.LCFI57:
 2836              		.cfi_def_cfa_offset 4
 2837 0166 BD46     		mov	sp, r7
 2838              	.LCFI58:
 2839              		.cfi_def_cfa_register 13
 2840              		@ sp needed
 2841 0168 5DF8047B 		ldr	r7, [sp], #4
 2842              	.LCFI59:
 2843              		.cfi_restore 7
 2844              		.cfi_def_cfa_offset 0
 2845 016c 7047     		bx	lr
 2846              	.L134:
 2847 016e 00BF     		.align	2
ARM GAS  /tmp/cc3ELaEI.s 			page 76


 2848              	.L133:
 2849 0170 00000000 		.word	SystemCoreClock
 2850 0174 89B5F814 		.word	351843721
 2851              		.cfi_endproc
 2852              	.LFE136:
 2854              		.section	.text.HAL_I2C_Master_Sequential_Receive_IT,"ax",%progbits
 2855              		.align	2
