ARM GAS  /tmp/cctwGTwd.s 			page 1


   1              		.syntax unified
   2              		.cpu cortex-m4
   3              		.eabi_attribute 27, 1
   4              		.eabi_attribute 28, 1
   5              		.fpu fpv4-sp-d16
   6              		.eabi_attribute 20, 1
   7              		.eabi_attribute 21, 1
   8              		.eabi_attribute 23, 3
   9              		.eabi_attribute 24, 1
  10              		.eabi_attribute 25, 1
  11              		.eabi_attribute 26, 1
  12              		.eabi_attribute 30, 6
  13              		.eabi_attribute 34, 1
  14              		.eabi_attribute 18, 4
  15              		.thumb
  16              		.syntax unified
  17              		.file	"stm32f4xx_hal_rcc_ex.c"
  18              		.text
  19              	.Ltext0:
  20              		.cfi_sections	.debug_frame
  21              		.section	.text.HAL_RCC_DeInit,"ax",%progbits
  22              		.align	2
  23              		.global	HAL_RCC_DeInit
  24              		.thumb
  25              		.thumb_func
  27              	HAL_RCC_DeInit:
  28              	.LFB126:
  29              		.file 1 "Drivers/STM32F4xx_HAL_Driver/Src/stm32f4xx_hal_rcc_ex.c"
   1:Drivers/STM32F4xx_HAL_Driver/Src/stm32f4xx_hal_rcc_ex.c **** /**
   2:Drivers/STM32F4xx_HAL_Driver/Src/stm32f4xx_hal_rcc_ex.c ****   ******************************************************************************
   3:Drivers/STM32F4xx_HAL_Driver/Src/stm32f4xx_hal_rcc_ex.c ****   * @file    stm32f4xx_hal_rcc_ex.c
   4:Drivers/STM32F4xx_HAL_Driver/Src/stm32f4xx_hal_rcc_ex.c ****   * @author  MCD Application Team
   5:Drivers/STM32F4xx_HAL_Driver/Src/stm32f4xx_hal_rcc_ex.c ****   * @version V1.5.2
   6:Drivers/STM32F4xx_HAL_Driver/Src/stm32f4xx_hal_rcc_ex.c ****   * @date    22-September-2016
   7:Drivers/STM32F4xx_HAL_Driver/Src/stm32f4xx_hal_rcc_ex.c ****   * @brief   Extension RCC HAL module driver.
   8:Drivers/STM32F4xx_HAL_Driver/Src/stm32f4xx_hal_rcc_ex.c ****   *          This file provides firmware functions to manage the following 
   9:Drivers/STM32F4xx_HAL_Driver/Src/stm32f4xx_hal_rcc_ex.c ****   *          functionalities RCC extension peripheral:
  10:Drivers/STM32F4xx_HAL_Driver/Src/stm32f4xx_hal_rcc_ex.c ****   *           + Extended Peripheral Control functions
  11:Drivers/STM32F4xx_HAL_Driver/Src/stm32f4xx_hal_rcc_ex.c ****   *  
  12:Drivers/STM32F4xx_HAL_Driver/Src/stm32f4xx_hal_rcc_ex.c ****   ******************************************************************************
  13:Drivers/STM32F4xx_HAL_Driver/Src/stm32f4xx_hal_rcc_ex.c ****   * @attention
  14:Drivers/STM32F4xx_HAL_Driver/Src/stm32f4xx_hal_rcc_ex.c ****   *
  15:Drivers/STM32F4xx_HAL_Driver/Src/stm32f4xx_hal_rcc_ex.c ****   * <h2><center>&copy; COPYRIGHT(c) 2016 STMicroelectronics</center></h2>
  16:Drivers/STM32F4xx_HAL_Driver/Src/stm32f4xx_hal_rcc_ex.c ****   *
  17:Drivers/STM32F4xx_HAL_Driver/Src/stm32f4xx_hal_rcc_ex.c ****   * Redistribution and use in source and binary forms, with or without modification,
  18:Drivers/STM32F4xx_HAL_Driver/Src/stm32f4xx_hal_rcc_ex.c ****   * are permitted provided that the following conditions are met:
  19:Drivers/STM32F4xx_HAL_Driver/Src/stm32f4xx_hal_rcc_ex.c ****   *   1. Redistributions of source code must retain the above copyright notice,
  20:Drivers/STM32F4xx_HAL_Driver/Src/stm32f4xx_hal_rcc_ex.c ****   *      this list of conditions and the following disclaimer.
  21:Drivers/STM32F4xx_HAL_Driver/Src/stm32f4xx_hal_rcc_ex.c ****   *   2. Redistributions in binary form must reproduce the above copyright notice,
  22:Drivers/STM32F4xx_HAL_Driver/Src/stm32f4xx_hal_rcc_ex.c ****   *      this list of conditions and the following disclaimer in the documentation
  23:Drivers/STM32F4xx_HAL_Driver/Src/stm32f4xx_hal_rcc_ex.c ****   *      and/or other materials provided with the distribution.
  24:Drivers/STM32F4xx_HAL_Driver/Src/stm32f4xx_hal_rcc_ex.c ****   *   3. Neither the name of STMicroelectronics nor the names of its contributors
  25:Drivers/STM32F4xx_HAL_Driver/Src/stm32f4xx_hal_rcc_ex.c ****   *      may be used to endorse or promote products derived from this software
  26:Drivers/STM32F4xx_HAL_Driver/Src/stm32f4xx_hal_rcc_ex.c ****   *      without specific prior written permission.
  27:Drivers/STM32F4xx_HAL_Driver/Src/stm32f4xx_hal_rcc_ex.c ****   *
  28:Drivers/STM32F4xx_HAL_Driver/Src/stm32f4xx_hal_rcc_ex.c ****   * THIS SOFTWARE IS PROVIDED BY THE COPYRIGHT HOLDERS AND CONTRIBUTORS "AS IS"
  29:Drivers/STM32F4xx_HAL_Driver/Src/stm32f4xx_hal_rcc_ex.c ****   * AND ANY EXPRESS OR IMPLIED WARRANTIES, INCLUDING, BUT NOT LIMITED TO, THE
ARM GAS  /tmp/cctwGTwd.s 			page 2


  30:Drivers/STM32F4xx_HAL_Driver/Src/stm32f4xx_hal_rcc_ex.c ****   * IMPLIED WARRANTIES OF MERCHANTABILITY AND FITNESS FOR A PARTICULAR PURPOSE ARE
  31:Drivers/STM32F4xx_HAL_Driver/Src/stm32f4xx_hal_rcc_ex.c ****   * DISCLAIMED. IN NO EVENT SHALL THE COPYRIGHT HOLDER OR CONTRIBUTORS BE LIABLE
  32:Drivers/STM32F4xx_HAL_Driver/Src/stm32f4xx_hal_rcc_ex.c ****   * FOR ANY DIRECT, INDIRECT, INCIDENTAL, SPECIAL, EXEMPLARY, OR CONSEQUENTIAL
  33:Drivers/STM32F4xx_HAL_Driver/Src/stm32f4xx_hal_rcc_ex.c ****   * DAMAGES (INCLUDING, BUT NOT LIMITED TO, PROCUREMENT OF SUBSTITUTE GOODS OR
  34:Drivers/STM32F4xx_HAL_Driver/Src/stm32f4xx_hal_rcc_ex.c ****   * SERVICES; LOSS OF USE, DATA, OR PROFITS; OR BUSINESS INTERRUPTION) HOWEVER
  35:Drivers/STM32F4xx_HAL_Driver/Src/stm32f4xx_hal_rcc_ex.c ****   * CAUSED AND ON ANY THEORY OF LIABILITY, WHETHER IN CONTRACT, STRICT LIABILITY,
  36:Drivers/STM32F4xx_HAL_Driver/Src/stm32f4xx_hal_rcc_ex.c ****   * OR TORT (INCLUDING NEGLIGENCE OR OTHERWISE) ARISING IN ANY WAY OUT OF THE USE
  37:Drivers/STM32F4xx_HAL_Driver/Src/stm32f4xx_hal_rcc_ex.c ****   * OF THIS SOFTWARE, EVEN IF ADVISED OF THE POSSIBILITY OF SUCH DAMAGE.
  38:Drivers/STM32F4xx_HAL_Driver/Src/stm32f4xx_hal_rcc_ex.c ****   *
  39:Drivers/STM32F4xx_HAL_Driver/Src/stm32f4xx_hal_rcc_ex.c ****   ******************************************************************************
  40:Drivers/STM32F4xx_HAL_Driver/Src/stm32f4xx_hal_rcc_ex.c ****   */ 
  41:Drivers/STM32F4xx_HAL_Driver/Src/stm32f4xx_hal_rcc_ex.c **** 
  42:Drivers/STM32F4xx_HAL_Driver/Src/stm32f4xx_hal_rcc_ex.c **** /* Includes ------------------------------------------------------------------*/
  43:Drivers/STM32F4xx_HAL_Driver/Src/stm32f4xx_hal_rcc_ex.c **** #include "stm32f4xx_hal.h"
  44:Drivers/STM32F4xx_HAL_Driver/Src/stm32f4xx_hal_rcc_ex.c **** 
  45:Drivers/STM32F4xx_HAL_Driver/Src/stm32f4xx_hal_rcc_ex.c **** /** @addtogroup STM32F4xx_HAL_Driver
  46:Drivers/STM32F4xx_HAL_Driver/Src/stm32f4xx_hal_rcc_ex.c ****   * @{
  47:Drivers/STM32F4xx_HAL_Driver/Src/stm32f4xx_hal_rcc_ex.c ****   */
  48:Drivers/STM32F4xx_HAL_Driver/Src/stm32f4xx_hal_rcc_ex.c **** 
  49:Drivers/STM32F4xx_HAL_Driver/Src/stm32f4xx_hal_rcc_ex.c **** /** @defgroup RCCEx RCCEx
  50:Drivers/STM32F4xx_HAL_Driver/Src/stm32f4xx_hal_rcc_ex.c ****   * @brief RCCEx HAL module driver
  51:Drivers/STM32F4xx_HAL_Driver/Src/stm32f4xx_hal_rcc_ex.c ****   * @{
  52:Drivers/STM32F4xx_HAL_Driver/Src/stm32f4xx_hal_rcc_ex.c ****   */
  53:Drivers/STM32F4xx_HAL_Driver/Src/stm32f4xx_hal_rcc_ex.c **** 
  54:Drivers/STM32F4xx_HAL_Driver/Src/stm32f4xx_hal_rcc_ex.c **** #ifdef HAL_RCC_MODULE_ENABLED
  55:Drivers/STM32F4xx_HAL_Driver/Src/stm32f4xx_hal_rcc_ex.c **** 
  56:Drivers/STM32F4xx_HAL_Driver/Src/stm32f4xx_hal_rcc_ex.c **** /* Private typedef -----------------------------------------------------------*/
  57:Drivers/STM32F4xx_HAL_Driver/Src/stm32f4xx_hal_rcc_ex.c **** /* Private define ------------------------------------------------------------*/
  58:Drivers/STM32F4xx_HAL_Driver/Src/stm32f4xx_hal_rcc_ex.c **** /** @addtogroup RCCEx_Private_Constants
  59:Drivers/STM32F4xx_HAL_Driver/Src/stm32f4xx_hal_rcc_ex.c ****   * @{
  60:Drivers/STM32F4xx_HAL_Driver/Src/stm32f4xx_hal_rcc_ex.c ****   */
  61:Drivers/STM32F4xx_HAL_Driver/Src/stm32f4xx_hal_rcc_ex.c **** /**
  62:Drivers/STM32F4xx_HAL_Driver/Src/stm32f4xx_hal_rcc_ex.c ****   * @}
  63:Drivers/STM32F4xx_HAL_Driver/Src/stm32f4xx_hal_rcc_ex.c ****   */ 
  64:Drivers/STM32F4xx_HAL_Driver/Src/stm32f4xx_hal_rcc_ex.c **** /* Private macro -------------------------------------------------------------*/
  65:Drivers/STM32F4xx_HAL_Driver/Src/stm32f4xx_hal_rcc_ex.c **** /* Private variables ---------------------------------------------------------*/
  66:Drivers/STM32F4xx_HAL_Driver/Src/stm32f4xx_hal_rcc_ex.c **** /* Private function prototypes -----------------------------------------------*/
  67:Drivers/STM32F4xx_HAL_Driver/Src/stm32f4xx_hal_rcc_ex.c **** /* Private functions ---------------------------------------------------------*/
  68:Drivers/STM32F4xx_HAL_Driver/Src/stm32f4xx_hal_rcc_ex.c **** /** @defgroup RCCEx_Exported_Functions RCCEx Exported Functions
  69:Drivers/STM32F4xx_HAL_Driver/Src/stm32f4xx_hal_rcc_ex.c ****   *  @{
  70:Drivers/STM32F4xx_HAL_Driver/Src/stm32f4xx_hal_rcc_ex.c ****   */
  71:Drivers/STM32F4xx_HAL_Driver/Src/stm32f4xx_hal_rcc_ex.c **** 
  72:Drivers/STM32F4xx_HAL_Driver/Src/stm32f4xx_hal_rcc_ex.c **** /** @defgroup RCCEx_Exported_Functions_Group1 Extended Peripheral Control functions 
  73:Drivers/STM32F4xx_HAL_Driver/Src/stm32f4xx_hal_rcc_ex.c ****  *  @brief  Extended Peripheral Control functions  
  74:Drivers/STM32F4xx_HAL_Driver/Src/stm32f4xx_hal_rcc_ex.c ****  *
  75:Drivers/STM32F4xx_HAL_Driver/Src/stm32f4xx_hal_rcc_ex.c **** @verbatim   
  76:Drivers/STM32F4xx_HAL_Driver/Src/stm32f4xx_hal_rcc_ex.c ****  ===============================================================================
  77:Drivers/STM32F4xx_HAL_Driver/Src/stm32f4xx_hal_rcc_ex.c ****                 ##### Extended Peripheral Control functions  #####
  78:Drivers/STM32F4xx_HAL_Driver/Src/stm32f4xx_hal_rcc_ex.c ****  ===============================================================================
  79:Drivers/STM32F4xx_HAL_Driver/Src/stm32f4xx_hal_rcc_ex.c ****     [..]
  80:Drivers/STM32F4xx_HAL_Driver/Src/stm32f4xx_hal_rcc_ex.c ****     This subsection provides a set of functions allowing to control the RCC Clocks 
  81:Drivers/STM32F4xx_HAL_Driver/Src/stm32f4xx_hal_rcc_ex.c ****     frequencies.
  82:Drivers/STM32F4xx_HAL_Driver/Src/stm32f4xx_hal_rcc_ex.c ****     [..] 
  83:Drivers/STM32F4xx_HAL_Driver/Src/stm32f4xx_hal_rcc_ex.c ****     (@) Important note: Care must be taken when HAL_RCCEx_PeriphCLKConfig() is used to
  84:Drivers/STM32F4xx_HAL_Driver/Src/stm32f4xx_hal_rcc_ex.c ****         select the RTC clock source; in this case the Backup domain will be reset in  
  85:Drivers/STM32F4xx_HAL_Driver/Src/stm32f4xx_hal_rcc_ex.c ****         order to modify the RTC Clock source, as consequence RTC registers (including 
  86:Drivers/STM32F4xx_HAL_Driver/Src/stm32f4xx_hal_rcc_ex.c ****         the backup registers) and RCC_BDCR register are set to their reset values.
ARM GAS  /tmp/cctwGTwd.s 			page 3


  87:Drivers/STM32F4xx_HAL_Driver/Src/stm32f4xx_hal_rcc_ex.c ****       
  88:Drivers/STM32F4xx_HAL_Driver/Src/stm32f4xx_hal_rcc_ex.c **** @endverbatim
  89:Drivers/STM32F4xx_HAL_Driver/Src/stm32f4xx_hal_rcc_ex.c ****   * @{
  90:Drivers/STM32F4xx_HAL_Driver/Src/stm32f4xx_hal_rcc_ex.c ****   */
  91:Drivers/STM32F4xx_HAL_Driver/Src/stm32f4xx_hal_rcc_ex.c **** #if defined(STM32F405xx) || defined(STM32F415xx) || defined(STM32F407xx) || defined(STM32F417xx) ||
  92:Drivers/STM32F4xx_HAL_Driver/Src/stm32f4xx_hal_rcc_ex.c ****     defined(STM32F427xx) || defined(STM32F437xx) || defined(STM32F429xx) || defined(STM32F439xx) ||
  93:Drivers/STM32F4xx_HAL_Driver/Src/stm32f4xx_hal_rcc_ex.c ****     defined(STM32F401xC) || defined(STM32F401xE) || defined(STM32F411xE) || defined(STM32F446xx) ||
  94:Drivers/STM32F4xx_HAL_Driver/Src/stm32f4xx_hal_rcc_ex.c ****     defined(STM32F469xx) || defined(STM32F479xx) || defined(STM32F412Zx) || defined(STM32F412Vx) ||
  95:Drivers/STM32F4xx_HAL_Driver/Src/stm32f4xx_hal_rcc_ex.c ****     defined(STM32F412Rx) || defined(STM32F412Cx)
  96:Drivers/STM32F4xx_HAL_Driver/Src/stm32f4xx_hal_rcc_ex.c **** /**
  97:Drivers/STM32F4xx_HAL_Driver/Src/stm32f4xx_hal_rcc_ex.c ****   * @brief  Resets the RCC clock configuration to the default reset state.
  98:Drivers/STM32F4xx_HAL_Driver/Src/stm32f4xx_hal_rcc_ex.c ****   * @note   The default reset state of the clock configuration is given below:
  99:Drivers/STM32F4xx_HAL_Driver/Src/stm32f4xx_hal_rcc_ex.c ****   *            - HSI ON and used as system clock source
 100:Drivers/STM32F4xx_HAL_Driver/Src/stm32f4xx_hal_rcc_ex.c ****   *            - HSE, PLL and PLLI2S OFF
 101:Drivers/STM32F4xx_HAL_Driver/Src/stm32f4xx_hal_rcc_ex.c ****   *            - AHB, APB1 and APB2 prescaler set to 1.
 102:Drivers/STM32F4xx_HAL_Driver/Src/stm32f4xx_hal_rcc_ex.c ****   *            - CSS, MCO1 and MCO2 OFF
 103:Drivers/STM32F4xx_HAL_Driver/Src/stm32f4xx_hal_rcc_ex.c ****   *            - All interrupts disabled
 104:Drivers/STM32F4xx_HAL_Driver/Src/stm32f4xx_hal_rcc_ex.c ****   * @note   This function doesn't modify the configuration of the
 105:Drivers/STM32F4xx_HAL_Driver/Src/stm32f4xx_hal_rcc_ex.c ****   *            - Peripheral clocks  
 106:Drivers/STM32F4xx_HAL_Driver/Src/stm32f4xx_hal_rcc_ex.c ****   *            - LSI, LSE and RTC clocks 
 107:Drivers/STM32F4xx_HAL_Driver/Src/stm32f4xx_hal_rcc_ex.c ****   * @retval None
 108:Drivers/STM32F4xx_HAL_Driver/Src/stm32f4xx_hal_rcc_ex.c ****   */
 109:Drivers/STM32F4xx_HAL_Driver/Src/stm32f4xx_hal_rcc_ex.c **** void HAL_RCC_DeInit(void)
 110:Drivers/STM32F4xx_HAL_Driver/Src/stm32f4xx_hal_rcc_ex.c **** {
  30              		.loc 1 110 0
  31              		.cfi_startproc
  32              		@ args = 0, pretend = 0, frame = 0
  33              		@ frame_needed = 1, uses_anonymous_args = 0
  34              		@ link register save eliminated.
  35 0000 80B4     		push	{r7}
  36              	.LCFI0:
  37              		.cfi_def_cfa_offset 4
  38              		.cfi_offset 7, -4
  39 0002 00AF     		add	r7, sp, #0
  40              	.LCFI1:
  41              		.cfi_def_cfa_register 7
 111:Drivers/STM32F4xx_HAL_Driver/Src/stm32f4xx_hal_rcc_ex.c ****   /* Set HSION bit */
 112:Drivers/STM32F4xx_HAL_Driver/Src/stm32f4xx_hal_rcc_ex.c ****   SET_BIT(RCC->CR, RCC_CR_HSION | RCC_CR_HSITRIM_4); 
  42              		.loc 1 112 0
  43 0004 1C4A     		ldr	r2, .L2
  44 0006 1C4B     		ldr	r3, .L2
  45 0008 1B68     		ldr	r3, [r3]
  46 000a 43F08103 		orr	r3, r3, #129
  47 000e 1360     		str	r3, [r2]
 113:Drivers/STM32F4xx_HAL_Driver/Src/stm32f4xx_hal_rcc_ex.c ****   
 114:Drivers/STM32F4xx_HAL_Driver/Src/stm32f4xx_hal_rcc_ex.c ****   /* Reset CFGR register */
 115:Drivers/STM32F4xx_HAL_Driver/Src/stm32f4xx_hal_rcc_ex.c ****   CLEAR_REG(RCC->CFGR);
  48              		.loc 1 115 0
  49 0010 194B     		ldr	r3, .L2
  50 0012 0022     		movs	r2, #0
  51 0014 9A60     		str	r2, [r3, #8]
 116:Drivers/STM32F4xx_HAL_Driver/Src/stm32f4xx_hal_rcc_ex.c ****   
 117:Drivers/STM32F4xx_HAL_Driver/Src/stm32f4xx_hal_rcc_ex.c ****   /* Reset HSEON, CSSON, PLLON, PLLI2S */
 118:Drivers/STM32F4xx_HAL_Driver/Src/stm32f4xx_hal_rcc_ex.c ****   CLEAR_BIT(RCC->CR, RCC_CR_HSEON | RCC_CR_CSSON | RCC_CR_PLLON| RCC_CR_PLLI2SON); 
  52              		.loc 1 118 0
  53 0016 184A     		ldr	r2, .L2
  54 0018 174B     		ldr	r3, .L2
ARM GAS  /tmp/cctwGTwd.s 			page 4


  55 001a 1B68     		ldr	r3, [r3]
  56 001c 23F0A163 		bic	r3, r3, #84410368
  57 0020 23F48033 		bic	r3, r3, #65536
  58 0024 1360     		str	r3, [r2]
 119:Drivers/STM32F4xx_HAL_Driver/Src/stm32f4xx_hal_rcc_ex.c ****   
 120:Drivers/STM32F4xx_HAL_Driver/Src/stm32f4xx_hal_rcc_ex.c ****   /* Reset PLLCFGR register */
 121:Drivers/STM32F4xx_HAL_Driver/Src/stm32f4xx_hal_rcc_ex.c ****   CLEAR_REG(RCC->PLLCFGR);
  59              		.loc 1 121 0
  60 0026 144B     		ldr	r3, .L2
  61 0028 0022     		movs	r2, #0
  62 002a 5A60     		str	r2, [r3, #4]
 122:Drivers/STM32F4xx_HAL_Driver/Src/stm32f4xx_hal_rcc_ex.c ****   SET_BIT(RCC->PLLCFGR, RCC_PLLCFGR_PLLM_4 | RCC_PLLCFGR_PLLN_6 | RCC_PLLCFGR_PLLN_7 | RCC_PLLCFGR_
  63              		.loc 1 122 0
  64 002c 1249     		ldr	r1, .L2
  65 002e 124B     		ldr	r3, .L2
  66 0030 5A68     		ldr	r2, [r3, #4]
  67 0032 124B     		ldr	r3, .L2+4
  68 0034 1343     		orrs	r3, r3, r2
  69 0036 4B60     		str	r3, [r1, #4]
 123:Drivers/STM32F4xx_HAL_Driver/Src/stm32f4xx_hal_rcc_ex.c ****   
 124:Drivers/STM32F4xx_HAL_Driver/Src/stm32f4xx_hal_rcc_ex.c ****   /* Reset PLLI2SCFGR register */
 125:Drivers/STM32F4xx_HAL_Driver/Src/stm32f4xx_hal_rcc_ex.c ****   CLEAR_REG(RCC->PLLI2SCFGR);
  70              		.loc 1 125 0
  71 0038 0F4B     		ldr	r3, .L2
  72 003a 0022     		movs	r2, #0
  73 003c C3F88420 		str	r2, [r3, #132]
 126:Drivers/STM32F4xx_HAL_Driver/Src/stm32f4xx_hal_rcc_ex.c ****   SET_BIT(RCC->PLLI2SCFGR,  RCC_PLLI2SCFGR_PLLI2SN_6 | RCC_PLLI2SCFGR_PLLI2SN_7 | RCC_PLLI2SCFGR_PL
  74              		.loc 1 126 0
  75 0040 0D4A     		ldr	r2, .L2
  76 0042 0D4B     		ldr	r3, .L2
  77 0044 D3F88430 		ldr	r3, [r3, #132]
  78 0048 43F00053 		orr	r3, r3, #536870912
  79 004c 43F44053 		orr	r3, r3, #12288
  80 0050 C2F88430 		str	r3, [r2, #132]
 127:Drivers/STM32F4xx_HAL_Driver/Src/stm32f4xx_hal_rcc_ex.c ****   
 128:Drivers/STM32F4xx_HAL_Driver/Src/stm32f4xx_hal_rcc_ex.c ****   /* Reset HSEBYP bit */
 129:Drivers/STM32F4xx_HAL_Driver/Src/stm32f4xx_hal_rcc_ex.c ****   CLEAR_BIT(RCC->CR, RCC_CR_HSEBYP);
  81              		.loc 1 129 0
  82 0054 084A     		ldr	r2, .L2
  83 0056 084B     		ldr	r3, .L2
  84 0058 1B68     		ldr	r3, [r3]
  85 005a 23F48023 		bic	r3, r3, #262144
  86 005e 1360     		str	r3, [r2]
 130:Drivers/STM32F4xx_HAL_Driver/Src/stm32f4xx_hal_rcc_ex.c ****   
 131:Drivers/STM32F4xx_HAL_Driver/Src/stm32f4xx_hal_rcc_ex.c ****   /* Disable all interrupts */
 132:Drivers/STM32F4xx_HAL_Driver/Src/stm32f4xx_hal_rcc_ex.c ****   CLEAR_REG(RCC->CIR);
  87              		.loc 1 132 0
  88 0060 054B     		ldr	r3, .L2
  89 0062 0022     		movs	r2, #0
  90 0064 DA60     		str	r2, [r3, #12]
 133:Drivers/STM32F4xx_HAL_Driver/Src/stm32f4xx_hal_rcc_ex.c ****   
 134:Drivers/STM32F4xx_HAL_Driver/Src/stm32f4xx_hal_rcc_ex.c ****   /* Update the SystemCoreClock global variable */
 135:Drivers/STM32F4xx_HAL_Driver/Src/stm32f4xx_hal_rcc_ex.c ****   SystemCoreClock = HSI_VALUE;
  91              		.loc 1 135 0
  92 0066 064B     		ldr	r3, .L2+8
  93 0068 064A     		ldr	r2, .L2+12
  94 006a 1A60     		str	r2, [r3]
ARM GAS  /tmp/cctwGTwd.s 			page 5


 136:Drivers/STM32F4xx_HAL_Driver/Src/stm32f4xx_hal_rcc_ex.c **** }
  95              		.loc 1 136 0
  96 006c 00BF     		nop
  97 006e BD46     		mov	sp, r7
  98              	.LCFI2:
  99              		.cfi_def_cfa_register 13
 100              		@ sp needed
 101 0070 5DF8047B 		ldr	r7, [sp], #4
 102              	.LCFI3:
 103              		.cfi_restore 7
 104              		.cfi_def_cfa_offset 0
 105 0074 7047     		bx	lr
 106              	.L3:
 107 0076 00BF     		.align	2
 108              	.L2:
 109 0078 00380240 		.word	1073887232
 110 007c 10300004 		.word	67121168
 111 0080 00000000 		.word	SystemCoreClock
 112 0084 0024F400 		.word	16000000
 113              		.cfi_endproc
 114              	.LFE126:
 116              		.section	.text.HAL_RCCEx_PeriphCLKConfig,"ax",%progbits
 117              		.align	2
 118              		.global	HAL_RCCEx_PeriphCLKConfig
 119              		.thumb
 120              		.thumb_func
 122              	HAL_RCCEx_PeriphCLKConfig:
 123              	.LFB127:
 137:Drivers/STM32F4xx_HAL_Driver/Src/stm32f4xx_hal_rcc_ex.c **** #endif /* STM32F405xx || STM32F415xx || STM32F407xx || STM32F417xx || STM32F427xx || STM32F437xx ||
 138:Drivers/STM32F4xx_HAL_Driver/Src/stm32f4xx_hal_rcc_ex.c ****           STM32F401xC || STM32F401xE || STM32F411xE || STM32F446xx || STM32F469xx || STM32F479xx ||
 139:Drivers/STM32F4xx_HAL_Driver/Src/stm32f4xx_hal_rcc_ex.c ****           STM32F412Rx || STM32F412Cx */
 140:Drivers/STM32F4xx_HAL_Driver/Src/stm32f4xx_hal_rcc_ex.c **** 
 141:Drivers/STM32F4xx_HAL_Driver/Src/stm32f4xx_hal_rcc_ex.c **** #if defined(STM32F410Tx) || defined(STM32F410Cx) || defined(STM32F410Rx)
 142:Drivers/STM32F4xx_HAL_Driver/Src/stm32f4xx_hal_rcc_ex.c **** /**
 143:Drivers/STM32F4xx_HAL_Driver/Src/stm32f4xx_hal_rcc_ex.c ****   * @brief  Resets the RCC clock configuration to the default reset state.
 144:Drivers/STM32F4xx_HAL_Driver/Src/stm32f4xx_hal_rcc_ex.c ****   * @note   The default reset state of the clock configuration is given below:
 145:Drivers/STM32F4xx_HAL_Driver/Src/stm32f4xx_hal_rcc_ex.c ****   *            - HSI ON and used as system clock source
 146:Drivers/STM32F4xx_HAL_Driver/Src/stm32f4xx_hal_rcc_ex.c ****   *            - HSE and PLL OFF
 147:Drivers/STM32F4xx_HAL_Driver/Src/stm32f4xx_hal_rcc_ex.c ****   *            - AHB, APB1 and APB2 prescaler set to 1.
 148:Drivers/STM32F4xx_HAL_Driver/Src/stm32f4xx_hal_rcc_ex.c ****   *            - CSS, MCO1 and MCO2 OFF
 149:Drivers/STM32F4xx_HAL_Driver/Src/stm32f4xx_hal_rcc_ex.c ****   *            - All interrupts disabled
 150:Drivers/STM32F4xx_HAL_Driver/Src/stm32f4xx_hal_rcc_ex.c ****   * @note   This function doesn't modify the configuration of the
 151:Drivers/STM32F4xx_HAL_Driver/Src/stm32f4xx_hal_rcc_ex.c ****   *            - Peripheral clocks  
 152:Drivers/STM32F4xx_HAL_Driver/Src/stm32f4xx_hal_rcc_ex.c ****   *            - LSI, LSE and RTC clocks 
 153:Drivers/STM32F4xx_HAL_Driver/Src/stm32f4xx_hal_rcc_ex.c ****   * @retval None
 154:Drivers/STM32F4xx_HAL_Driver/Src/stm32f4xx_hal_rcc_ex.c ****   */
 155:Drivers/STM32F4xx_HAL_Driver/Src/stm32f4xx_hal_rcc_ex.c **** void HAL_RCC_DeInit(void)
 156:Drivers/STM32F4xx_HAL_Driver/Src/stm32f4xx_hal_rcc_ex.c **** {
 157:Drivers/STM32F4xx_HAL_Driver/Src/stm32f4xx_hal_rcc_ex.c ****   /* Set HSION bit */
 158:Drivers/STM32F4xx_HAL_Driver/Src/stm32f4xx_hal_rcc_ex.c ****   SET_BIT(RCC->CR, RCC_CR_HSION | RCC_CR_HSITRIM_4); 
 159:Drivers/STM32F4xx_HAL_Driver/Src/stm32f4xx_hal_rcc_ex.c ****   
 160:Drivers/STM32F4xx_HAL_Driver/Src/stm32f4xx_hal_rcc_ex.c ****   /* Reset CFGR register */
 161:Drivers/STM32F4xx_HAL_Driver/Src/stm32f4xx_hal_rcc_ex.c ****   CLEAR_REG(RCC->CFGR);
 162:Drivers/STM32F4xx_HAL_Driver/Src/stm32f4xx_hal_rcc_ex.c ****   
 163:Drivers/STM32F4xx_HAL_Driver/Src/stm32f4xx_hal_rcc_ex.c ****   /* Reset HSEON, CSSON, PLLON */
 164:Drivers/STM32F4xx_HAL_Driver/Src/stm32f4xx_hal_rcc_ex.c ****   CLEAR_BIT(RCC->CR, RCC_CR_HSEON | RCC_CR_CSSON | RCC_CR_PLLON); 
 165:Drivers/STM32F4xx_HAL_Driver/Src/stm32f4xx_hal_rcc_ex.c ****   
ARM GAS  /tmp/cctwGTwd.s 			page 6


 166:Drivers/STM32F4xx_HAL_Driver/Src/stm32f4xx_hal_rcc_ex.c ****   /* Reset PLLCFGR register */
 167:Drivers/STM32F4xx_HAL_Driver/Src/stm32f4xx_hal_rcc_ex.c ****   CLEAR_REG(RCC->PLLCFGR);
 168:Drivers/STM32F4xx_HAL_Driver/Src/stm32f4xx_hal_rcc_ex.c ****   SET_BIT(RCC->PLLCFGR, RCC_PLLCFGR_PLLR_1 | RCC_PLLCFGR_PLLM_4 | RCC_PLLCFGR_PLLN_6 | RCC_PLLCFGR_
 169:Drivers/STM32F4xx_HAL_Driver/Src/stm32f4xx_hal_rcc_ex.c ****   
 170:Drivers/STM32F4xx_HAL_Driver/Src/stm32f4xx_hal_rcc_ex.c ****   /* Reset HSEBYP bit */
 171:Drivers/STM32F4xx_HAL_Driver/Src/stm32f4xx_hal_rcc_ex.c ****   CLEAR_BIT(RCC->CR, RCC_CR_HSEBYP);
 172:Drivers/STM32F4xx_HAL_Driver/Src/stm32f4xx_hal_rcc_ex.c ****   
 173:Drivers/STM32F4xx_HAL_Driver/Src/stm32f4xx_hal_rcc_ex.c ****   /* Disable all interrupts */
 174:Drivers/STM32F4xx_HAL_Driver/Src/stm32f4xx_hal_rcc_ex.c ****   CLEAR_REG(RCC->CIR);
 175:Drivers/STM32F4xx_HAL_Driver/Src/stm32f4xx_hal_rcc_ex.c ****   
 176:Drivers/STM32F4xx_HAL_Driver/Src/stm32f4xx_hal_rcc_ex.c ****   /* Update the SystemCoreClock global variable */
 177:Drivers/STM32F4xx_HAL_Driver/Src/stm32f4xx_hal_rcc_ex.c ****   SystemCoreClock = HSI_VALUE;
 178:Drivers/STM32F4xx_HAL_Driver/Src/stm32f4xx_hal_rcc_ex.c **** }
 179:Drivers/STM32F4xx_HAL_Driver/Src/stm32f4xx_hal_rcc_ex.c **** #endif /* STM32F410Tx || STM32F410Cx || STM32F410Rx */
 180:Drivers/STM32F4xx_HAL_Driver/Src/stm32f4xx_hal_rcc_ex.c **** 
 181:Drivers/STM32F4xx_HAL_Driver/Src/stm32f4xx_hal_rcc_ex.c **** #if defined(STM32F446xx) 
 182:Drivers/STM32F4xx_HAL_Driver/Src/stm32f4xx_hal_rcc_ex.c **** /**
 183:Drivers/STM32F4xx_HAL_Driver/Src/stm32f4xx_hal_rcc_ex.c ****   * @brief  Initializes the RCC extended peripherals clocks according to the specified
 184:Drivers/STM32F4xx_HAL_Driver/Src/stm32f4xx_hal_rcc_ex.c ****   *         parameters in the RCC_PeriphCLKInitTypeDef.
 185:Drivers/STM32F4xx_HAL_Driver/Src/stm32f4xx_hal_rcc_ex.c ****   * @param  PeriphClkInit: pointer to an RCC_PeriphCLKInitTypeDef structure that
 186:Drivers/STM32F4xx_HAL_Driver/Src/stm32f4xx_hal_rcc_ex.c ****   *         contains the configuration information for the Extended Peripherals
 187:Drivers/STM32F4xx_HAL_Driver/Src/stm32f4xx_hal_rcc_ex.c ****   *         clocks(I2S, SAI, LTDC RTC and TIM).
 188:Drivers/STM32F4xx_HAL_Driver/Src/stm32f4xx_hal_rcc_ex.c ****   *         
 189:Drivers/STM32F4xx_HAL_Driver/Src/stm32f4xx_hal_rcc_ex.c ****   * @note   Care must be taken when HAL_RCCEx_PeriphCLKConfig() is used to select 
 190:Drivers/STM32F4xx_HAL_Driver/Src/stm32f4xx_hal_rcc_ex.c ****   *         the RTC clock source; in this case the Backup domain will be reset in  
 191:Drivers/STM32F4xx_HAL_Driver/Src/stm32f4xx_hal_rcc_ex.c ****   *         order to modify the RTC Clock source, as consequence RTC registers (including 
 192:Drivers/STM32F4xx_HAL_Driver/Src/stm32f4xx_hal_rcc_ex.c ****   *         the backup registers) and RCC_BDCR register are set to their reset values.
 193:Drivers/STM32F4xx_HAL_Driver/Src/stm32f4xx_hal_rcc_ex.c ****   *
 194:Drivers/STM32F4xx_HAL_Driver/Src/stm32f4xx_hal_rcc_ex.c ****   * @retval HAL status
 195:Drivers/STM32F4xx_HAL_Driver/Src/stm32f4xx_hal_rcc_ex.c ****   */
 196:Drivers/STM32F4xx_HAL_Driver/Src/stm32f4xx_hal_rcc_ex.c **** HAL_StatusTypeDef HAL_RCCEx_PeriphCLKConfig(RCC_PeriphCLKInitTypeDef  *PeriphClkInit)
 197:Drivers/STM32F4xx_HAL_Driver/Src/stm32f4xx_hal_rcc_ex.c **** {
 124              		.loc 1 197 0
 125              		.cfi_startproc
 126              		@ args = 0, pretend = 0, frame = 288
 127              		@ frame_needed = 1, uses_anonymous_args = 0
 128 0000 90B5     		push	{r4, r7, lr}
 129              	.LCFI4:
 130              		.cfi_def_cfa_offset 12
 131              		.cfi_offset 4, -12
 132              		.cfi_offset 7, -8
 133              		.cfi_offset 14, -4
 134 0002 C9B0     		sub	sp, sp, #292
 135              	.LCFI5:
 136              		.cfi_def_cfa_offset 304
 137 0004 00AF     		add	r7, sp, #0
 138              	.LCFI6:
 139              		.cfi_def_cfa_register 7
 140 0006 3B1D     		adds	r3, r7, #4
 141 0008 1860     		str	r0, [r3]
 198:Drivers/STM32F4xx_HAL_Driver/Src/stm32f4xx_hal_rcc_ex.c ****   uint32_t tickstart = 0U;
 142              		.loc 1 198 0
 143 000a 0023     		movs	r3, #0
 144 000c C7F81431 		str	r3, [r7, #276]
 199:Drivers/STM32F4xx_HAL_Driver/Src/stm32f4xx_hal_rcc_ex.c ****   uint32_t tmpreg1 = 0U;
 145              		.loc 1 199 0
 146 0010 0023     		movs	r3, #0
ARM GAS  /tmp/cctwGTwd.s 			page 7


 147 0012 C7F81031 		str	r3, [r7, #272]
 200:Drivers/STM32F4xx_HAL_Driver/Src/stm32f4xx_hal_rcc_ex.c ****   uint32_t plli2sp = 0U;
 148              		.loc 1 200 0
 149 0016 0023     		movs	r3, #0
 150 0018 C7F80C31 		str	r3, [r7, #268]
 201:Drivers/STM32F4xx_HAL_Driver/Src/stm32f4xx_hal_rcc_ex.c ****   uint32_t plli2sq = 0U;
 151              		.loc 1 201 0
 152 001c 0023     		movs	r3, #0
 153 001e C7F80831 		str	r3, [r7, #264]
 202:Drivers/STM32F4xx_HAL_Driver/Src/stm32f4xx_hal_rcc_ex.c ****   uint32_t plli2sr = 0U;
 154              		.loc 1 202 0
 155 0022 0023     		movs	r3, #0
 156 0024 C7F80431 		str	r3, [r7, #260]
 203:Drivers/STM32F4xx_HAL_Driver/Src/stm32f4xx_hal_rcc_ex.c ****   uint32_t pllsaip = 0U;
 157              		.loc 1 203 0
 158 0028 0023     		movs	r3, #0
 159 002a C7F80031 		str	r3, [r7, #256]
 204:Drivers/STM32F4xx_HAL_Driver/Src/stm32f4xx_hal_rcc_ex.c ****   uint32_t pllsaiq = 0U;
 160              		.loc 1 204 0
 161 002e 0023     		movs	r3, #0
 162 0030 C7F8FC30 		str	r3, [r7, #252]
 205:Drivers/STM32F4xx_HAL_Driver/Src/stm32f4xx_hal_rcc_ex.c ****   uint32_t plli2sused = 0U;
 163              		.loc 1 205 0
 164 0034 0023     		movs	r3, #0
 165 0036 C7F81C31 		str	r3, [r7, #284]
 206:Drivers/STM32F4xx_HAL_Driver/Src/stm32f4xx_hal_rcc_ex.c ****   uint32_t pllsaiused = 0U;
 166              		.loc 1 206 0
 167 003a 0023     		movs	r3, #0
 168 003c C7F81831 		str	r3, [r7, #280]
 207:Drivers/STM32F4xx_HAL_Driver/Src/stm32f4xx_hal_rcc_ex.c ****     
 208:Drivers/STM32F4xx_HAL_Driver/Src/stm32f4xx_hal_rcc_ex.c ****   /* Check the peripheral clock selection parameters */
 209:Drivers/STM32F4xx_HAL_Driver/Src/stm32f4xx_hal_rcc_ex.c ****   assert_param(IS_RCC_PERIPHCLOCK(PeriphClkInit->PeriphClockSelection));
 210:Drivers/STM32F4xx_HAL_Driver/Src/stm32f4xx_hal_rcc_ex.c ****      
 211:Drivers/STM32F4xx_HAL_Driver/Src/stm32f4xx_hal_rcc_ex.c ****   /*------------------------ I2S APB1 configuration --------------------------*/
 212:Drivers/STM32F4xx_HAL_Driver/Src/stm32f4xx_hal_rcc_ex.c ****   if(((PeriphClkInit->PeriphClockSelection) & RCC_PERIPHCLK_I2S_APB1) == (RCC_PERIPHCLK_I2S_APB1))
 169              		.loc 1 212 0
 170 0040 3B1D     		adds	r3, r7, #4
 171 0042 1B68     		ldr	r3, [r3]
 172 0044 1B68     		ldr	r3, [r3]
 173 0046 03F00103 		and	r3, r3, #1
 174 004a 002B     		cmp	r3, #0
 175 004c 13D0     		beq	.L5
 213:Drivers/STM32F4xx_HAL_Driver/Src/stm32f4xx_hal_rcc_ex.c ****   {
 214:Drivers/STM32F4xx_HAL_Driver/Src/stm32f4xx_hal_rcc_ex.c ****     /* Check the parameters */
 215:Drivers/STM32F4xx_HAL_Driver/Src/stm32f4xx_hal_rcc_ex.c ****     assert_param(IS_RCC_I2SAPB1CLKSOURCE(PeriphClkInit->I2sApb1ClockSelection));
 216:Drivers/STM32F4xx_HAL_Driver/Src/stm32f4xx_hal_rcc_ex.c ****     
 217:Drivers/STM32F4xx_HAL_Driver/Src/stm32f4xx_hal_rcc_ex.c ****     /* Configure I2S Clock source */
 218:Drivers/STM32F4xx_HAL_Driver/Src/stm32f4xx_hal_rcc_ex.c ****     __HAL_RCC_I2S_APB1_CONFIG(PeriphClkInit->I2sApb1ClockSelection);
 176              		.loc 1 218 0
 177 004e 8349     		ldr	r1, .L79
 178 0050 824B     		ldr	r3, .L79
 179 0052 D3F88C30 		ldr	r3, [r3, #140]
 180 0056 23F0C062 		bic	r2, r3, #100663296
 181 005a 3B1D     		adds	r3, r7, #4
 182 005c 1B68     		ldr	r3, [r3]
 183 005e 9B6B     		ldr	r3, [r3, #56]
 184 0060 1343     		orrs	r3, r3, r2
ARM GAS  /tmp/cctwGTwd.s 			page 8


 185 0062 C1F88C30 		str	r3, [r1, #140]
 219:Drivers/STM32F4xx_HAL_Driver/Src/stm32f4xx_hal_rcc_ex.c ****     /* Enable the PLLI2S when it's used as clock source for I2S */
 220:Drivers/STM32F4xx_HAL_Driver/Src/stm32f4xx_hal_rcc_ex.c ****     if(PeriphClkInit->I2sApb1ClockSelection == RCC_I2SAPB1CLKSOURCE_PLLI2S)
 186              		.loc 1 220 0
 187 0066 3B1D     		adds	r3, r7, #4
 188 0068 1B68     		ldr	r3, [r3]
 189 006a 9B6B     		ldr	r3, [r3, #56]
 190 006c 002B     		cmp	r3, #0
 191 006e 02D1     		bne	.L5
 221:Drivers/STM32F4xx_HAL_Driver/Src/stm32f4xx_hal_rcc_ex.c ****     {
 222:Drivers/STM32F4xx_HAL_Driver/Src/stm32f4xx_hal_rcc_ex.c ****       plli2sused = 1U; 
 192              		.loc 1 222 0
 193 0070 0123     		movs	r3, #1
 194 0072 C7F81C31 		str	r3, [r7, #284]
 195              	.L5:
 223:Drivers/STM32F4xx_HAL_Driver/Src/stm32f4xx_hal_rcc_ex.c ****     }
 224:Drivers/STM32F4xx_HAL_Driver/Src/stm32f4xx_hal_rcc_ex.c ****   }
 225:Drivers/STM32F4xx_HAL_Driver/Src/stm32f4xx_hal_rcc_ex.c ****   /*--------------------------------------------------------------------------*/
 226:Drivers/STM32F4xx_HAL_Driver/Src/stm32f4xx_hal_rcc_ex.c ****     
 227:Drivers/STM32F4xx_HAL_Driver/Src/stm32f4xx_hal_rcc_ex.c ****   /*---------------------------- I2S APB2 configuration ----------------------*/
 228:Drivers/STM32F4xx_HAL_Driver/Src/stm32f4xx_hal_rcc_ex.c ****   if(((PeriphClkInit->PeriphClockSelection) & RCC_PERIPHCLK_I2S_APB2) == (RCC_PERIPHCLK_I2S_APB2))
 196              		.loc 1 228 0
 197 0076 3B1D     		adds	r3, r7, #4
 198 0078 1B68     		ldr	r3, [r3]
 199 007a 1B68     		ldr	r3, [r3]
 200 007c 03F00203 		and	r3, r3, #2
 201 0080 002B     		cmp	r3, #0
 202 0082 13D0     		beq	.L6
 229:Drivers/STM32F4xx_HAL_Driver/Src/stm32f4xx_hal_rcc_ex.c ****   {
 230:Drivers/STM32F4xx_HAL_Driver/Src/stm32f4xx_hal_rcc_ex.c ****     /* Check the parameters */
 231:Drivers/STM32F4xx_HAL_Driver/Src/stm32f4xx_hal_rcc_ex.c ****     assert_param(IS_RCC_I2SAPB2CLKSOURCE(PeriphClkInit->I2sApb2ClockSelection));
 232:Drivers/STM32F4xx_HAL_Driver/Src/stm32f4xx_hal_rcc_ex.c ****     
 233:Drivers/STM32F4xx_HAL_Driver/Src/stm32f4xx_hal_rcc_ex.c ****     /* Configure I2S Clock source */
 234:Drivers/STM32F4xx_HAL_Driver/Src/stm32f4xx_hal_rcc_ex.c ****     __HAL_RCC_I2S_APB2_CONFIG(PeriphClkInit->I2sApb2ClockSelection);
 203              		.loc 1 234 0
 204 0084 7549     		ldr	r1, .L79
 205 0086 754B     		ldr	r3, .L79
 206 0088 D3F88C30 		ldr	r3, [r3, #140]
 207 008c 23F0C052 		bic	r2, r3, #402653184
 208 0090 3B1D     		adds	r3, r7, #4
 209 0092 1B68     		ldr	r3, [r3]
 210 0094 DB6B     		ldr	r3, [r3, #60]
 211 0096 1343     		orrs	r3, r3, r2
 212 0098 C1F88C30 		str	r3, [r1, #140]
 235:Drivers/STM32F4xx_HAL_Driver/Src/stm32f4xx_hal_rcc_ex.c ****     /* Enable the PLLI2S when it's used as clock source for I2S */
 236:Drivers/STM32F4xx_HAL_Driver/Src/stm32f4xx_hal_rcc_ex.c ****     if(PeriphClkInit->I2sApb2ClockSelection == RCC_I2SAPB2CLKSOURCE_PLLI2S)
 213              		.loc 1 236 0
 214 009c 3B1D     		adds	r3, r7, #4
 215 009e 1B68     		ldr	r3, [r3]
 216 00a0 DB6B     		ldr	r3, [r3, #60]
 217 00a2 002B     		cmp	r3, #0
 218 00a4 02D1     		bne	.L6
 237:Drivers/STM32F4xx_HAL_Driver/Src/stm32f4xx_hal_rcc_ex.c ****     {
 238:Drivers/STM32F4xx_HAL_Driver/Src/stm32f4xx_hal_rcc_ex.c ****       plli2sused = 1U; 
 219              		.loc 1 238 0
 220 00a6 0123     		movs	r3, #1
 221 00a8 C7F81C31 		str	r3, [r7, #284]
ARM GAS  /tmp/cctwGTwd.s 			page 9


 222              	.L6:
 239:Drivers/STM32F4xx_HAL_Driver/Src/stm32f4xx_hal_rcc_ex.c ****     }
 240:Drivers/STM32F4xx_HAL_Driver/Src/stm32f4xx_hal_rcc_ex.c ****   }
 241:Drivers/STM32F4xx_HAL_Driver/Src/stm32f4xx_hal_rcc_ex.c ****   /*--------------------------------------------------------------------------*/
 242:Drivers/STM32F4xx_HAL_Driver/Src/stm32f4xx_hal_rcc_ex.c ****     
 243:Drivers/STM32F4xx_HAL_Driver/Src/stm32f4xx_hal_rcc_ex.c ****   /*--------------------------- SAI1 configuration ---------------------------*/
 244:Drivers/STM32F4xx_HAL_Driver/Src/stm32f4xx_hal_rcc_ex.c ****   if(((PeriphClkInit->PeriphClockSelection) & RCC_PERIPHCLK_SAI1) == (RCC_PERIPHCLK_SAI1))
 223              		.loc 1 244 0
 224 00ac 3B1D     		adds	r3, r7, #4
 225 00ae 1B68     		ldr	r3, [r3]
 226 00b0 1B68     		ldr	r3, [r3]
 227 00b2 03F00403 		and	r3, r3, #4
 228 00b6 002B     		cmp	r3, #0
 229 00b8 1CD0     		beq	.L7
 245:Drivers/STM32F4xx_HAL_Driver/Src/stm32f4xx_hal_rcc_ex.c ****   {
 246:Drivers/STM32F4xx_HAL_Driver/Src/stm32f4xx_hal_rcc_ex.c ****     /* Check the parameters */
 247:Drivers/STM32F4xx_HAL_Driver/Src/stm32f4xx_hal_rcc_ex.c ****     assert_param(IS_RCC_SAI1CLKSOURCE(PeriphClkInit->Sai1ClockSelection));
 248:Drivers/STM32F4xx_HAL_Driver/Src/stm32f4xx_hal_rcc_ex.c ****     
 249:Drivers/STM32F4xx_HAL_Driver/Src/stm32f4xx_hal_rcc_ex.c ****     /* Configure SAI1 Clock source */
 250:Drivers/STM32F4xx_HAL_Driver/Src/stm32f4xx_hal_rcc_ex.c ****     __HAL_RCC_SAI1_CONFIG(PeriphClkInit->Sai1ClockSelection);
 230              		.loc 1 250 0
 231 00ba 6849     		ldr	r1, .L79
 232 00bc 674B     		ldr	r3, .L79
 233 00be D3F88C30 		ldr	r3, [r3, #140]
 234 00c2 23F44012 		bic	r2, r3, #3145728
 235 00c6 3B1D     		adds	r3, r7, #4
 236 00c8 1B68     		ldr	r3, [r3]
 237 00ca 1B6B     		ldr	r3, [r3, #48]
 238 00cc 1343     		orrs	r3, r3, r2
 239 00ce C1F88C30 		str	r3, [r1, #140]
 251:Drivers/STM32F4xx_HAL_Driver/Src/stm32f4xx_hal_rcc_ex.c ****     /* Enable the PLLI2S when it's used as clock source for SAI */
 252:Drivers/STM32F4xx_HAL_Driver/Src/stm32f4xx_hal_rcc_ex.c ****     if(PeriphClkInit->Sai1ClockSelection == RCC_SAI1CLKSOURCE_PLLI2S)
 240              		.loc 1 252 0
 241 00d2 3B1D     		adds	r3, r7, #4
 242 00d4 1B68     		ldr	r3, [r3]
 243 00d6 1B6B     		ldr	r3, [r3, #48]
 244 00d8 B3F5801F 		cmp	r3, #1048576
 245 00dc 02D1     		bne	.L8
 253:Drivers/STM32F4xx_HAL_Driver/Src/stm32f4xx_hal_rcc_ex.c ****     {
 254:Drivers/STM32F4xx_HAL_Driver/Src/stm32f4xx_hal_rcc_ex.c ****       plli2sused = 1U; 
 246              		.loc 1 254 0
 247 00de 0123     		movs	r3, #1
 248 00e0 C7F81C31 		str	r3, [r7, #284]
 249              	.L8:
 255:Drivers/STM32F4xx_HAL_Driver/Src/stm32f4xx_hal_rcc_ex.c ****     }
 256:Drivers/STM32F4xx_HAL_Driver/Src/stm32f4xx_hal_rcc_ex.c ****     /* Enable the PLLSAI when it's used as clock source for SAI */
 257:Drivers/STM32F4xx_HAL_Driver/Src/stm32f4xx_hal_rcc_ex.c ****     if(PeriphClkInit->Sai1ClockSelection == RCC_SAI1CLKSOURCE_PLLSAI)
 250              		.loc 1 257 0
 251 00e4 3B1D     		adds	r3, r7, #4
 252 00e6 1B68     		ldr	r3, [r3]
 253 00e8 1B6B     		ldr	r3, [r3, #48]
 254 00ea 002B     		cmp	r3, #0
 255 00ec 02D1     		bne	.L7
 258:Drivers/STM32F4xx_HAL_Driver/Src/stm32f4xx_hal_rcc_ex.c ****     {
 259:Drivers/STM32F4xx_HAL_Driver/Src/stm32f4xx_hal_rcc_ex.c ****       pllsaiused = 1U; 
 256              		.loc 1 259 0
 257 00ee 0123     		movs	r3, #1
ARM GAS  /tmp/cctwGTwd.s 			page 10


 258 00f0 C7F81831 		str	r3, [r7, #280]
 259              	.L7:
 260:Drivers/STM32F4xx_HAL_Driver/Src/stm32f4xx_hal_rcc_ex.c ****     }
 261:Drivers/STM32F4xx_HAL_Driver/Src/stm32f4xx_hal_rcc_ex.c ****   }
 262:Drivers/STM32F4xx_HAL_Driver/Src/stm32f4xx_hal_rcc_ex.c ****   /*--------------------------------------------------------------------------*/
 263:Drivers/STM32F4xx_HAL_Driver/Src/stm32f4xx_hal_rcc_ex.c ****     
 264:Drivers/STM32F4xx_HAL_Driver/Src/stm32f4xx_hal_rcc_ex.c ****   /*-------------------------- SAI2 configuration ----------------------------*/
 265:Drivers/STM32F4xx_HAL_Driver/Src/stm32f4xx_hal_rcc_ex.c ****   if(((PeriphClkInit->PeriphClockSelection) & RCC_PERIPHCLK_SAI2) == (RCC_PERIPHCLK_SAI2))
 260              		.loc 1 265 0
 261 00f4 3B1D     		adds	r3, r7, #4
 262 00f6 1B68     		ldr	r3, [r3]
 263 00f8 1B68     		ldr	r3, [r3]
 264 00fa 03F00803 		and	r3, r3, #8
 265 00fe 002B     		cmp	r3, #0
 266 0100 1CD0     		beq	.L9
 266:Drivers/STM32F4xx_HAL_Driver/Src/stm32f4xx_hal_rcc_ex.c ****   {
 267:Drivers/STM32F4xx_HAL_Driver/Src/stm32f4xx_hal_rcc_ex.c ****     /* Check the parameters */
 268:Drivers/STM32F4xx_HAL_Driver/Src/stm32f4xx_hal_rcc_ex.c ****     assert_param(IS_RCC_SAI2CLKSOURCE(PeriphClkInit->Sai2ClockSelection));
 269:Drivers/STM32F4xx_HAL_Driver/Src/stm32f4xx_hal_rcc_ex.c ****     
 270:Drivers/STM32F4xx_HAL_Driver/Src/stm32f4xx_hal_rcc_ex.c ****     /* Configure SAI2 Clock source */
 271:Drivers/STM32F4xx_HAL_Driver/Src/stm32f4xx_hal_rcc_ex.c ****     __HAL_RCC_SAI2_CONFIG(PeriphClkInit->Sai2ClockSelection);
 267              		.loc 1 271 0
 268 0102 5649     		ldr	r1, .L79
 269 0104 554B     		ldr	r3, .L79
 270 0106 D3F88C30 		ldr	r3, [r3, #140]
 271 010a 23F44002 		bic	r2, r3, #12582912
 272 010e 3B1D     		adds	r3, r7, #4
 273 0110 1B68     		ldr	r3, [r3]
 274 0112 5B6B     		ldr	r3, [r3, #52]
 275 0114 1343     		orrs	r3, r3, r2
 276 0116 C1F88C30 		str	r3, [r1, #140]
 272:Drivers/STM32F4xx_HAL_Driver/Src/stm32f4xx_hal_rcc_ex.c ****     
 273:Drivers/STM32F4xx_HAL_Driver/Src/stm32f4xx_hal_rcc_ex.c ****     /* Enable the PLLI2S when it's used as clock source for SAI */
 274:Drivers/STM32F4xx_HAL_Driver/Src/stm32f4xx_hal_rcc_ex.c ****     if(PeriphClkInit->Sai2ClockSelection == RCC_SAI2CLKSOURCE_PLLI2S)
 277              		.loc 1 274 0
 278 011a 3B1D     		adds	r3, r7, #4
 279 011c 1B68     		ldr	r3, [r3]
 280 011e 5B6B     		ldr	r3, [r3, #52]
 281 0120 B3F5800F 		cmp	r3, #4194304
 282 0124 02D1     		bne	.L10
 275:Drivers/STM32F4xx_HAL_Driver/Src/stm32f4xx_hal_rcc_ex.c ****     {
 276:Drivers/STM32F4xx_HAL_Driver/Src/stm32f4xx_hal_rcc_ex.c ****       plli2sused = 1U; 
 283              		.loc 1 276 0
 284 0126 0123     		movs	r3, #1
 285 0128 C7F81C31 		str	r3, [r7, #284]
 286              	.L10:
 277:Drivers/STM32F4xx_HAL_Driver/Src/stm32f4xx_hal_rcc_ex.c ****     }
 278:Drivers/STM32F4xx_HAL_Driver/Src/stm32f4xx_hal_rcc_ex.c ****     /* Enable the PLLSAI when it's used as clock source for SAI */
 279:Drivers/STM32F4xx_HAL_Driver/Src/stm32f4xx_hal_rcc_ex.c ****     if(PeriphClkInit->Sai2ClockSelection == RCC_SAI2CLKSOURCE_PLLSAI)
 287              		.loc 1 279 0
 288 012c 3B1D     		adds	r3, r7, #4
 289 012e 1B68     		ldr	r3, [r3]
 290 0130 5B6B     		ldr	r3, [r3, #52]
 291 0132 002B     		cmp	r3, #0
 292 0134 02D1     		bne	.L9
 280:Drivers/STM32F4xx_HAL_Driver/Src/stm32f4xx_hal_rcc_ex.c ****     {
 281:Drivers/STM32F4xx_HAL_Driver/Src/stm32f4xx_hal_rcc_ex.c ****       pllsaiused = 1U; 
ARM GAS  /tmp/cctwGTwd.s 			page 11


 293              		.loc 1 281 0
 294 0136 0123     		movs	r3, #1
 295 0138 C7F81831 		str	r3, [r7, #280]
 296              	.L9:
 282:Drivers/STM32F4xx_HAL_Driver/Src/stm32f4xx_hal_rcc_ex.c ****     }
 283:Drivers/STM32F4xx_HAL_Driver/Src/stm32f4xx_hal_rcc_ex.c ****   }
 284:Drivers/STM32F4xx_HAL_Driver/Src/stm32f4xx_hal_rcc_ex.c ****   /*--------------------------------------------------------------------------*/
 285:Drivers/STM32F4xx_HAL_Driver/Src/stm32f4xx_hal_rcc_ex.c ****     
 286:Drivers/STM32F4xx_HAL_Driver/Src/stm32f4xx_hal_rcc_ex.c ****   /*----------------------------- RTC configuration --------------------------*/
 287:Drivers/STM32F4xx_HAL_Driver/Src/stm32f4xx_hal_rcc_ex.c ****   if(((PeriphClkInit->PeriphClockSelection) & RCC_PERIPHCLK_RTC) == (RCC_PERIPHCLK_RTC))
 297              		.loc 1 287 0
 298 013c 3B1D     		adds	r3, r7, #4
 299 013e 1B68     		ldr	r3, [r3]
 300 0140 1B68     		ldr	r3, [r3]
 301 0142 03F02003 		and	r3, r3, #32
 302 0146 002B     		cmp	r3, #0
 303 0148 00F09E80 		beq	.L11
 304              	.LBB120:
 288:Drivers/STM32F4xx_HAL_Driver/Src/stm32f4xx_hal_rcc_ex.c ****   {
 289:Drivers/STM32F4xx_HAL_Driver/Src/stm32f4xx_hal_rcc_ex.c ****     /* Check for RTC Parameters used to output RTCCLK */
 290:Drivers/STM32F4xx_HAL_Driver/Src/stm32f4xx_hal_rcc_ex.c ****     assert_param(IS_RCC_RTCCLKSOURCE(PeriphClkInit->RTCClockSelection));
 291:Drivers/STM32F4xx_HAL_Driver/Src/stm32f4xx_hal_rcc_ex.c ****     
 292:Drivers/STM32F4xx_HAL_Driver/Src/stm32f4xx_hal_rcc_ex.c ****     /* Enable Power Clock*/
 293:Drivers/STM32F4xx_HAL_Driver/Src/stm32f4xx_hal_rcc_ex.c ****     __HAL_RCC_PWR_CLK_ENABLE();
 305              		.loc 1 293 0
 306 014c 07F10803 		add	r3, r7, #8
 307 0150 0022     		movs	r2, #0
 308 0152 1A60     		str	r2, [r3]
 309 0154 414A     		ldr	r2, .L79
 310 0156 414B     		ldr	r3, .L79
 311 0158 1B6C     		ldr	r3, [r3, #64]
 312 015a 43F08053 		orr	r3, r3, #268435456
 313 015e 1364     		str	r3, [r2, #64]
 314 0160 3E4B     		ldr	r3, .L79
 315 0162 1B6C     		ldr	r3, [r3, #64]
 316 0164 03F08052 		and	r2, r3, #268435456
 317 0168 07F10803 		add	r3, r7, #8
 318 016c 1A60     		str	r2, [r3]
 319 016e 07F10803 		add	r3, r7, #8
 320 0172 1B68     		ldr	r3, [r3]
 321              	.LBE120:
 294:Drivers/STM32F4xx_HAL_Driver/Src/stm32f4xx_hal_rcc_ex.c ****     
 295:Drivers/STM32F4xx_HAL_Driver/Src/stm32f4xx_hal_rcc_ex.c ****     /* Enable write access to Backup domain */
 296:Drivers/STM32F4xx_HAL_Driver/Src/stm32f4xx_hal_rcc_ex.c ****     PWR->CR |= PWR_CR_DBP;
 322              		.loc 1 296 0
 323 0174 3A4A     		ldr	r2, .L79+4
 324 0176 3A4B     		ldr	r3, .L79+4
 325 0178 1B68     		ldr	r3, [r3]
 326 017a 43F48073 		orr	r3, r3, #256
 327 017e 1360     		str	r3, [r2]
 297:Drivers/STM32F4xx_HAL_Driver/Src/stm32f4xx_hal_rcc_ex.c ****     
 298:Drivers/STM32F4xx_HAL_Driver/Src/stm32f4xx_hal_rcc_ex.c ****     /* Get tick */
 299:Drivers/STM32F4xx_HAL_Driver/Src/stm32f4xx_hal_rcc_ex.c ****     tickstart = HAL_GetTick();
 328              		.loc 1 299 0
 329 0180 FFF7FEFF 		bl	HAL_GetTick
 330 0184 C7F81401 		str	r0, [r7, #276]
 300:Drivers/STM32F4xx_HAL_Driver/Src/stm32f4xx_hal_rcc_ex.c ****     
ARM GAS  /tmp/cctwGTwd.s 			page 12


 301:Drivers/STM32F4xx_HAL_Driver/Src/stm32f4xx_hal_rcc_ex.c ****     while((PWR->CR & PWR_CR_DBP) == RESET)
 331              		.loc 1 301 0
 332 0188 0AE0     		b	.L12
 333              	.L14:
 302:Drivers/STM32F4xx_HAL_Driver/Src/stm32f4xx_hal_rcc_ex.c ****     {
 303:Drivers/STM32F4xx_HAL_Driver/Src/stm32f4xx_hal_rcc_ex.c ****       if((HAL_GetTick() - tickstart ) > RCC_DBP_TIMEOUT_VALUE)
 334              		.loc 1 303 0
 335 018a FFF7FEFF 		bl	HAL_GetTick
 336 018e 0246     		mov	r2, r0
 337 0190 D7F81431 		ldr	r3, [r7, #276]
 338 0194 D31A     		subs	r3, r2, r3
 339 0196 022B     		cmp	r3, #2
 340 0198 02D9     		bls	.L12
 304:Drivers/STM32F4xx_HAL_Driver/Src/stm32f4xx_hal_rcc_ex.c ****       {
 305:Drivers/STM32F4xx_HAL_Driver/Src/stm32f4xx_hal_rcc_ex.c ****         return HAL_TIMEOUT;
 341              		.loc 1 305 0
 342 019a 0323     		movs	r3, #3
 343 019c 00F076BC 		b	.L13
 344              	.L12:
 301:Drivers/STM32F4xx_HAL_Driver/Src/stm32f4xx_hal_rcc_ex.c ****     {
 345              		.loc 1 301 0
 346 01a0 2F4B     		ldr	r3, .L79+4
 347 01a2 1B68     		ldr	r3, [r3]
 348 01a4 03F48073 		and	r3, r3, #256
 349 01a8 002B     		cmp	r3, #0
 350 01aa EED0     		beq	.L14
 306:Drivers/STM32F4xx_HAL_Driver/Src/stm32f4xx_hal_rcc_ex.c ****       }
 307:Drivers/STM32F4xx_HAL_Driver/Src/stm32f4xx_hal_rcc_ex.c ****     }
 308:Drivers/STM32F4xx_HAL_Driver/Src/stm32f4xx_hal_rcc_ex.c ****     /* Reset the Backup domain only if the RTC Clock source selection is modified from reset value 
 309:Drivers/STM32F4xx_HAL_Driver/Src/stm32f4xx_hal_rcc_ex.c ****     tmpreg1 = (RCC->BDCR & RCC_BDCR_RTCSEL);
 351              		.loc 1 309 0
 352 01ac 2B4B     		ldr	r3, .L79
 353 01ae 1B6F     		ldr	r3, [r3, #112]
 354 01b0 03F44073 		and	r3, r3, #768
 355 01b4 C7F81031 		str	r3, [r7, #272]
 310:Drivers/STM32F4xx_HAL_Driver/Src/stm32f4xx_hal_rcc_ex.c ****     if((tmpreg1 != 0x00000000U) && ((tmpreg1) != (PeriphClkInit->RTCClockSelection & RCC_BDCR_RTCSE
 356              		.loc 1 310 0
 357 01b8 D7F81031 		ldr	r3, [r7, #272]
 358 01bc 002B     		cmp	r3, #0
 359 01be 36D0     		beq	.L15
 360              		.loc 1 310 0 is_stmt 0 discriminator 1
 361 01c0 3B1D     		adds	r3, r7, #4
 362 01c2 1B68     		ldr	r3, [r3]
 363 01c4 1B6C     		ldr	r3, [r3, #64]
 364 01c6 03F44072 		and	r2, r3, #768
 365 01ca D7F81031 		ldr	r3, [r7, #272]
 366 01ce 9A42     		cmp	r2, r3
 367 01d0 2DD0     		beq	.L15
 311:Drivers/STM32F4xx_HAL_Driver/Src/stm32f4xx_hal_rcc_ex.c ****     {
 312:Drivers/STM32F4xx_HAL_Driver/Src/stm32f4xx_hal_rcc_ex.c ****       /* Store the content of BDCR register before the reset of Backup Domain */
 313:Drivers/STM32F4xx_HAL_Driver/Src/stm32f4xx_hal_rcc_ex.c ****       tmpreg1 = (RCC->BDCR & ~(RCC_BDCR_RTCSEL));
 368              		.loc 1 313 0 is_stmt 1
 369 01d2 224B     		ldr	r3, .L79
 370 01d4 1B6F     		ldr	r3, [r3, #112]
 371 01d6 23F44073 		bic	r3, r3, #768
 372 01da C7F81031 		str	r3, [r7, #272]
 314:Drivers/STM32F4xx_HAL_Driver/Src/stm32f4xx_hal_rcc_ex.c ****       /* RTC Clock selection can be changed only if the Backup Domain is reset */
ARM GAS  /tmp/cctwGTwd.s 			page 13


 315:Drivers/STM32F4xx_HAL_Driver/Src/stm32f4xx_hal_rcc_ex.c ****       __HAL_RCC_BACKUPRESET_FORCE();
 373              		.loc 1 315 0
 374 01de 214B     		ldr	r3, .L79+8
 375 01e0 0122     		movs	r2, #1
 376 01e2 1A60     		str	r2, [r3]
 316:Drivers/STM32F4xx_HAL_Driver/Src/stm32f4xx_hal_rcc_ex.c ****       __HAL_RCC_BACKUPRESET_RELEASE();
 377              		.loc 1 316 0
 378 01e4 1F4B     		ldr	r3, .L79+8
 379 01e6 0022     		movs	r2, #0
 380 01e8 1A60     		str	r2, [r3]
 317:Drivers/STM32F4xx_HAL_Driver/Src/stm32f4xx_hal_rcc_ex.c ****       /* Restore the Content of BDCR register */
 318:Drivers/STM32F4xx_HAL_Driver/Src/stm32f4xx_hal_rcc_ex.c ****       RCC->BDCR = tmpreg1;
 381              		.loc 1 318 0
 382 01ea 1C4A     		ldr	r2, .L79
 383 01ec D7F81031 		ldr	r3, [r7, #272]
 384 01f0 1367     		str	r3, [r2, #112]
 319:Drivers/STM32F4xx_HAL_Driver/Src/stm32f4xx_hal_rcc_ex.c **** 
 320:Drivers/STM32F4xx_HAL_Driver/Src/stm32f4xx_hal_rcc_ex.c ****       /* Wait for LSE reactivation if LSE was enable prior to Backup Domain reset */
 321:Drivers/STM32F4xx_HAL_Driver/Src/stm32f4xx_hal_rcc_ex.c ****       if(HAL_IS_BIT_SET(RCC->BDCR, RCC_BDCR_LSEON))
 385              		.loc 1 321 0
 386 01f2 1A4B     		ldr	r3, .L79
 387 01f4 1B6F     		ldr	r3, [r3, #112]
 388 01f6 03F00103 		and	r3, r3, #1
 389 01fa 002B     		cmp	r3, #0
 390 01fc 17D0     		beq	.L15
 322:Drivers/STM32F4xx_HAL_Driver/Src/stm32f4xx_hal_rcc_ex.c ****       {
 323:Drivers/STM32F4xx_HAL_Driver/Src/stm32f4xx_hal_rcc_ex.c ****         /* Get tick */
 324:Drivers/STM32F4xx_HAL_Driver/Src/stm32f4xx_hal_rcc_ex.c ****         tickstart = HAL_GetTick();
 391              		.loc 1 324 0
 392 01fe FFF7FEFF 		bl	HAL_GetTick
 393 0202 C7F81401 		str	r0, [r7, #276]
 325:Drivers/STM32F4xx_HAL_Driver/Src/stm32f4xx_hal_rcc_ex.c ****         
 326:Drivers/STM32F4xx_HAL_Driver/Src/stm32f4xx_hal_rcc_ex.c ****         /* Wait till LSE is ready */  
 327:Drivers/STM32F4xx_HAL_Driver/Src/stm32f4xx_hal_rcc_ex.c ****         while(__HAL_RCC_GET_FLAG(RCC_FLAG_LSERDY) == RESET)
 394              		.loc 1 327 0
 395 0206 0CE0     		b	.L16
 396              	.L17:
 328:Drivers/STM32F4xx_HAL_Driver/Src/stm32f4xx_hal_rcc_ex.c ****         {
 329:Drivers/STM32F4xx_HAL_Driver/Src/stm32f4xx_hal_rcc_ex.c ****           if((HAL_GetTick() - tickstart ) > RCC_LSE_TIMEOUT_VALUE)
 397              		.loc 1 329 0
 398 0208 FFF7FEFF 		bl	HAL_GetTick
 399 020c 0246     		mov	r2, r0
 400 020e D7F81431 		ldr	r3, [r7, #276]
 401 0212 D31A     		subs	r3, r2, r3
 402 0214 41F28832 		movw	r2, #5000
 403 0218 9342     		cmp	r3, r2
 404 021a 02D9     		bls	.L16
 330:Drivers/STM32F4xx_HAL_Driver/Src/stm32f4xx_hal_rcc_ex.c ****           {
 331:Drivers/STM32F4xx_HAL_Driver/Src/stm32f4xx_hal_rcc_ex.c ****             return HAL_TIMEOUT;
 405              		.loc 1 331 0
 406 021c 0323     		movs	r3, #3
 407 021e 00F035BC 		b	.L13
 408              	.L16:
 327:Drivers/STM32F4xx_HAL_Driver/Src/stm32f4xx_hal_rcc_ex.c ****         {
 409              		.loc 1 327 0
 410 0222 0E4B     		ldr	r3, .L79
 411 0224 1B6F     		ldr	r3, [r3, #112]
ARM GAS  /tmp/cctwGTwd.s 			page 14


 412 0226 03F00203 		and	r3, r3, #2
 413 022a 002B     		cmp	r3, #0
 414 022c ECD0     		beq	.L17
 415              	.L15:
 332:Drivers/STM32F4xx_HAL_Driver/Src/stm32f4xx_hal_rcc_ex.c ****           }
 333:Drivers/STM32F4xx_HAL_Driver/Src/stm32f4xx_hal_rcc_ex.c ****         }
 334:Drivers/STM32F4xx_HAL_Driver/Src/stm32f4xx_hal_rcc_ex.c ****       }
 335:Drivers/STM32F4xx_HAL_Driver/Src/stm32f4xx_hal_rcc_ex.c ****     }
 336:Drivers/STM32F4xx_HAL_Driver/Src/stm32f4xx_hal_rcc_ex.c ****     __HAL_RCC_RTC_CONFIG(PeriphClkInit->RTCClockSelection);
 416              		.loc 1 336 0
 417 022e 3B1D     		adds	r3, r7, #4
 418 0230 1B68     		ldr	r3, [r3]
 419 0232 1B6C     		ldr	r3, [r3, #64]
 420 0234 03F44073 		and	r3, r3, #768
 421 0238 B3F5407F 		cmp	r3, #768
 422 023c 14D1     		bne	.L18
 423              		.loc 1 336 0 is_stmt 0 discriminator 1
 424 023e 0749     		ldr	r1, .L79
 425 0240 064B     		ldr	r3, .L79
 426 0242 9B68     		ldr	r3, [r3, #8]
 427 0244 23F4F812 		bic	r2, r3, #2031616
 428 0248 3B1D     		adds	r3, r7, #4
 429 024a 1B68     		ldr	r3, [r3]
 430 024c 1B6C     		ldr	r3, [r3, #64]
 431 024e 23F07043 		bic	r3, r3, #-268435456
 432 0252 23F44073 		bic	r3, r3, #768
 433 0256 1343     		orrs	r3, r3, r2
 434 0258 8B60     		str	r3, [r1, #8]
 435 025a 0BE0     		b	.L19
 436              	.L80:
 437              		.align	2
 438              	.L79:
 439 025c 00380240 		.word	1073887232
 440 0260 00700040 		.word	1073770496
 441 0264 400E4742 		.word	1111952960
 442              	.L18:
 443              		.loc 1 336 0 discriminator 2
 444 0268 554A     		ldr	r2, .L81
 445 026a 554B     		ldr	r3, .L81
 446 026c 9B68     		ldr	r3, [r3, #8]
 447 026e 23F4F813 		bic	r3, r3, #2031616
 448 0272 9360     		str	r3, [r2, #8]
 449              	.L19:
 450              		.loc 1 336 0 discriminator 4
 451 0274 5249     		ldr	r1, .L81
 452 0276 524B     		ldr	r3, .L81
 453 0278 1A6F     		ldr	r2, [r3, #112]
 454 027a 3B1D     		adds	r3, r7, #4
 455 027c 1B68     		ldr	r3, [r3]
 456 027e 1B6C     		ldr	r3, [r3, #64]
 457 0280 C3F30B03 		ubfx	r3, r3, #0, #12
 458 0284 1343     		orrs	r3, r3, r2
 459 0286 0B67     		str	r3, [r1, #112]
 460              	.L11:
 337:Drivers/STM32F4xx_HAL_Driver/Src/stm32f4xx_hal_rcc_ex.c ****   }
 338:Drivers/STM32F4xx_HAL_Driver/Src/stm32f4xx_hal_rcc_ex.c ****   /*--------------------------------------------------------------------------*/
 339:Drivers/STM32F4xx_HAL_Driver/Src/stm32f4xx_hal_rcc_ex.c ****     
ARM GAS  /tmp/cctwGTwd.s 			page 15


 340:Drivers/STM32F4xx_HAL_Driver/Src/stm32f4xx_hal_rcc_ex.c ****   /*---------------------------- TIM configuration ---------------------------*/
 341:Drivers/STM32F4xx_HAL_Driver/Src/stm32f4xx_hal_rcc_ex.c ****   if(((PeriphClkInit->PeriphClockSelection) & RCC_PERIPHCLK_TIM) == (RCC_PERIPHCLK_TIM))
 461              		.loc 1 341 0 is_stmt 1
 462 0288 3B1D     		adds	r3, r7, #4
 463 028a 1B68     		ldr	r3, [r3]
 464 028c 1B68     		ldr	r3, [r3]
 465 028e 03F01003 		and	r3, r3, #16
 466 0292 002B     		cmp	r3, #0
 467 0294 05D0     		beq	.L20
 342:Drivers/STM32F4xx_HAL_Driver/Src/stm32f4xx_hal_rcc_ex.c ****   {
 343:Drivers/STM32F4xx_HAL_Driver/Src/stm32f4xx_hal_rcc_ex.c ****     /* Configure Timer Prescaler */
 344:Drivers/STM32F4xx_HAL_Driver/Src/stm32f4xx_hal_rcc_ex.c ****     __HAL_RCC_TIMCLKPRESCALER(PeriphClkInit->TIMPresSelection);
 468              		.loc 1 344 0
 469 0296 4B4A     		ldr	r2, .L81+4
 470 0298 3B1D     		adds	r3, r7, #4
 471 029a 1B68     		ldr	r3, [r3]
 472 029c 93F85830 		ldrb	r3, [r3, #88]	@ zero_extendqisi2
 473 02a0 1360     		str	r3, [r2]
 474              	.L20:
 345:Drivers/STM32F4xx_HAL_Driver/Src/stm32f4xx_hal_rcc_ex.c ****   }
 346:Drivers/STM32F4xx_HAL_Driver/Src/stm32f4xx_hal_rcc_ex.c ****   /*--------------------------------------------------------------------------*/
 347:Drivers/STM32F4xx_HAL_Driver/Src/stm32f4xx_hal_rcc_ex.c ****     
 348:Drivers/STM32F4xx_HAL_Driver/Src/stm32f4xx_hal_rcc_ex.c ****   /*---------------------------- FMPI2C1 Configuration -----------------------*/
 349:Drivers/STM32F4xx_HAL_Driver/Src/stm32f4xx_hal_rcc_ex.c ****   if(((PeriphClkInit->PeriphClockSelection) & RCC_PERIPHCLK_FMPI2C1) == RCC_PERIPHCLK_FMPI2C1)
 475              		.loc 1 349 0
 476 02a2 3B1D     		adds	r3, r7, #4
 477 02a4 1B68     		ldr	r3, [r3]
 478 02a6 1B68     		ldr	r3, [r3]
 479 02a8 03F08003 		and	r3, r3, #128
 480 02ac 002B     		cmp	r3, #0
 481 02ae 0BD0     		beq	.L21
 350:Drivers/STM32F4xx_HAL_Driver/Src/stm32f4xx_hal_rcc_ex.c ****   {
 351:Drivers/STM32F4xx_HAL_Driver/Src/stm32f4xx_hal_rcc_ex.c ****     /* Check the parameters */
 352:Drivers/STM32F4xx_HAL_Driver/Src/stm32f4xx_hal_rcc_ex.c ****     assert_param(IS_RCC_FMPI2C1CLKSOURCE(PeriphClkInit->Fmpi2c1ClockSelection));
 353:Drivers/STM32F4xx_HAL_Driver/Src/stm32f4xx_hal_rcc_ex.c ****     
 354:Drivers/STM32F4xx_HAL_Driver/Src/stm32f4xx_hal_rcc_ex.c ****     /* Configure the FMPI2C1 clock source */
 355:Drivers/STM32F4xx_HAL_Driver/Src/stm32f4xx_hal_rcc_ex.c ****     __HAL_RCC_FMPI2C1_CONFIG(PeriphClkInit->Fmpi2c1ClockSelection);
 482              		.loc 1 355 0
 483 02b0 4349     		ldr	r1, .L81
 484 02b2 434B     		ldr	r3, .L81
 485 02b4 D3F89430 		ldr	r3, [r3, #148]
 486 02b8 23F44002 		bic	r2, r3, #12582912
 487 02bc 3B1D     		adds	r3, r7, #4
 488 02be 1B68     		ldr	r3, [r3]
 489 02c0 DB6C     		ldr	r3, [r3, #76]
 490 02c2 1343     		orrs	r3, r3, r2
 491 02c4 C1F89430 		str	r3, [r1, #148]
 492              	.L21:
 356:Drivers/STM32F4xx_HAL_Driver/Src/stm32f4xx_hal_rcc_ex.c ****   }
 357:Drivers/STM32F4xx_HAL_Driver/Src/stm32f4xx_hal_rcc_ex.c ****   /*--------------------------------------------------------------------------*/
 358:Drivers/STM32F4xx_HAL_Driver/Src/stm32f4xx_hal_rcc_ex.c ****     
 359:Drivers/STM32F4xx_HAL_Driver/Src/stm32f4xx_hal_rcc_ex.c ****   /*------------------------------ CEC Configuration -------------------------*/
 360:Drivers/STM32F4xx_HAL_Driver/Src/stm32f4xx_hal_rcc_ex.c ****   if(((PeriphClkInit->PeriphClockSelection) & RCC_PERIPHCLK_CEC) == RCC_PERIPHCLK_CEC)
 493              		.loc 1 360 0
 494 02c8 3B1D     		adds	r3, r7, #4
 495 02ca 1B68     		ldr	r3, [r3]
 496 02cc 1B68     		ldr	r3, [r3]
ARM GAS  /tmp/cctwGTwd.s 			page 16


 497 02ce 03F04003 		and	r3, r3, #64
 498 02d2 002B     		cmp	r3, #0
 499 02d4 0BD0     		beq	.L22
 361:Drivers/STM32F4xx_HAL_Driver/Src/stm32f4xx_hal_rcc_ex.c ****   {
 362:Drivers/STM32F4xx_HAL_Driver/Src/stm32f4xx_hal_rcc_ex.c ****     /* Check the parameters */
 363:Drivers/STM32F4xx_HAL_Driver/Src/stm32f4xx_hal_rcc_ex.c ****     assert_param(IS_RCC_CECCLKSOURCE(PeriphClkInit->CecClockSelection));
 364:Drivers/STM32F4xx_HAL_Driver/Src/stm32f4xx_hal_rcc_ex.c ****     
 365:Drivers/STM32F4xx_HAL_Driver/Src/stm32f4xx_hal_rcc_ex.c ****     /* Configure the CEC clock source */
 366:Drivers/STM32F4xx_HAL_Driver/Src/stm32f4xx_hal_rcc_ex.c ****     __HAL_RCC_CEC_CONFIG(PeriphClkInit->CecClockSelection);
 500              		.loc 1 366 0
 501 02d6 3A49     		ldr	r1, .L81
 502 02d8 394B     		ldr	r3, .L81
 503 02da D3F89430 		ldr	r3, [r3, #148]
 504 02de 23F08062 		bic	r2, r3, #67108864
 505 02e2 3B1D     		adds	r3, r7, #4
 506 02e4 1B68     		ldr	r3, [r3]
 507 02e6 9B6C     		ldr	r3, [r3, #72]
 508 02e8 1343     		orrs	r3, r3, r2
 509 02ea C1F89430 		str	r3, [r1, #148]
 510              	.L22:
 367:Drivers/STM32F4xx_HAL_Driver/Src/stm32f4xx_hal_rcc_ex.c ****   }
 368:Drivers/STM32F4xx_HAL_Driver/Src/stm32f4xx_hal_rcc_ex.c ****   /*--------------------------------------------------------------------------*/
 369:Drivers/STM32F4xx_HAL_Driver/Src/stm32f4xx_hal_rcc_ex.c ****     
 370:Drivers/STM32F4xx_HAL_Driver/Src/stm32f4xx_hal_rcc_ex.c ****   /*----------------------------- CLK48 Configuration ------------------------*/
 371:Drivers/STM32F4xx_HAL_Driver/Src/stm32f4xx_hal_rcc_ex.c ****   if(((PeriphClkInit->PeriphClockSelection) & RCC_PERIPHCLK_CLK48) == RCC_PERIPHCLK_CLK48)
 511              		.loc 1 371 0
 512 02ee 3B1D     		adds	r3, r7, #4
 513 02f0 1B68     		ldr	r3, [r3]
 514 02f2 1B68     		ldr	r3, [r3]
 515 02f4 03F48073 		and	r3, r3, #256
 516 02f8 002B     		cmp	r3, #0
 517 02fa 14D0     		beq	.L23
 372:Drivers/STM32F4xx_HAL_Driver/Src/stm32f4xx_hal_rcc_ex.c ****   {
 373:Drivers/STM32F4xx_HAL_Driver/Src/stm32f4xx_hal_rcc_ex.c ****     /* Check the parameters */
 374:Drivers/STM32F4xx_HAL_Driver/Src/stm32f4xx_hal_rcc_ex.c ****     assert_param(IS_RCC_CLK48CLKSOURCE(PeriphClkInit->Clk48ClockSelection));
 375:Drivers/STM32F4xx_HAL_Driver/Src/stm32f4xx_hal_rcc_ex.c ****     
 376:Drivers/STM32F4xx_HAL_Driver/Src/stm32f4xx_hal_rcc_ex.c ****     /* Configure the CLK48 clock source */
 377:Drivers/STM32F4xx_HAL_Driver/Src/stm32f4xx_hal_rcc_ex.c ****     __HAL_RCC_CLK48_CONFIG(PeriphClkInit->Clk48ClockSelection);
 518              		.loc 1 377 0
 519 02fc 3049     		ldr	r1, .L81
 520 02fe 304B     		ldr	r3, .L81
 521 0300 D3F89430 		ldr	r3, [r3, #148]
 522 0304 23F00062 		bic	r2, r3, #134217728
 523 0308 3B1D     		adds	r3, r7, #4
 524 030a 1B68     		ldr	r3, [r3]
 525 030c 5B6D     		ldr	r3, [r3, #84]
 526 030e 1343     		orrs	r3, r3, r2
 527 0310 C1F89430 		str	r3, [r1, #148]
 378:Drivers/STM32F4xx_HAL_Driver/Src/stm32f4xx_hal_rcc_ex.c **** 
 379:Drivers/STM32F4xx_HAL_Driver/Src/stm32f4xx_hal_rcc_ex.c ****     /* Enable the PLLSAI when it's used as clock source for CLK48 */
 380:Drivers/STM32F4xx_HAL_Driver/Src/stm32f4xx_hal_rcc_ex.c ****     if(PeriphClkInit->Clk48ClockSelection == RCC_CLK48CLKSOURCE_PLLSAIP)
 528              		.loc 1 380 0
 529 0314 3B1D     		adds	r3, r7, #4
 530 0316 1B68     		ldr	r3, [r3]
 531 0318 5B6D     		ldr	r3, [r3, #84]
 532 031a B3F1006F 		cmp	r3, #134217728
 533 031e 02D1     		bne	.L23
ARM GAS  /tmp/cctwGTwd.s 			page 17


 381:Drivers/STM32F4xx_HAL_Driver/Src/stm32f4xx_hal_rcc_ex.c ****     {
 382:Drivers/STM32F4xx_HAL_Driver/Src/stm32f4xx_hal_rcc_ex.c ****       pllsaiused = 1U; 
 534              		.loc 1 382 0
 535 0320 0123     		movs	r3, #1
 536 0322 C7F81831 		str	r3, [r7, #280]
 537              	.L23:
 383:Drivers/STM32F4xx_HAL_Driver/Src/stm32f4xx_hal_rcc_ex.c ****     }
 384:Drivers/STM32F4xx_HAL_Driver/Src/stm32f4xx_hal_rcc_ex.c ****   }
 385:Drivers/STM32F4xx_HAL_Driver/Src/stm32f4xx_hal_rcc_ex.c ****   /*--------------------------------------------------------------------------*/
 386:Drivers/STM32F4xx_HAL_Driver/Src/stm32f4xx_hal_rcc_ex.c ****     
 387:Drivers/STM32F4xx_HAL_Driver/Src/stm32f4xx_hal_rcc_ex.c ****   /*----------------------------- SDIO Configuration -------------------------*/
 388:Drivers/STM32F4xx_HAL_Driver/Src/stm32f4xx_hal_rcc_ex.c ****   if(((PeriphClkInit->PeriphClockSelection) & RCC_PERIPHCLK_SDIO) == RCC_PERIPHCLK_SDIO)
 538              		.loc 1 388 0
 539 0326 3B1D     		adds	r3, r7, #4
 540 0328 1B68     		ldr	r3, [r3]
 541 032a 1B68     		ldr	r3, [r3]
 542 032c 03F40073 		and	r3, r3, #512
 543 0330 002B     		cmp	r3, #0
 544 0332 0BD0     		beq	.L24
 389:Drivers/STM32F4xx_HAL_Driver/Src/stm32f4xx_hal_rcc_ex.c ****   {
 390:Drivers/STM32F4xx_HAL_Driver/Src/stm32f4xx_hal_rcc_ex.c ****     /* Check the parameters */
 391:Drivers/STM32F4xx_HAL_Driver/Src/stm32f4xx_hal_rcc_ex.c ****     assert_param(IS_RCC_SDIOCLKSOURCE(PeriphClkInit->SdioClockSelection));
 392:Drivers/STM32F4xx_HAL_Driver/Src/stm32f4xx_hal_rcc_ex.c ****     
 393:Drivers/STM32F4xx_HAL_Driver/Src/stm32f4xx_hal_rcc_ex.c ****     /* Configure the SDIO clock source */
 394:Drivers/STM32F4xx_HAL_Driver/Src/stm32f4xx_hal_rcc_ex.c ****     __HAL_RCC_SDIO_CONFIG(PeriphClkInit->SdioClockSelection);
 545              		.loc 1 394 0
 546 0334 2249     		ldr	r1, .L81
 547 0336 224B     		ldr	r3, .L81
 548 0338 D3F89430 		ldr	r3, [r3, #148]
 549 033c 23F08052 		bic	r2, r3, #268435456
 550 0340 3B1D     		adds	r3, r7, #4
 551 0342 1B68     		ldr	r3, [r3]
 552 0344 5B6C     		ldr	r3, [r3, #68]
 553 0346 1343     		orrs	r3, r3, r2
 554 0348 C1F89430 		str	r3, [r1, #148]
 555              	.L24:
 395:Drivers/STM32F4xx_HAL_Driver/Src/stm32f4xx_hal_rcc_ex.c ****   }
 396:Drivers/STM32F4xx_HAL_Driver/Src/stm32f4xx_hal_rcc_ex.c ****   /*--------------------------------------------------------------------------*/
 397:Drivers/STM32F4xx_HAL_Driver/Src/stm32f4xx_hal_rcc_ex.c ****     
 398:Drivers/STM32F4xx_HAL_Driver/Src/stm32f4xx_hal_rcc_ex.c ****   /*------------------------------ SPDIFRX Configuration ---------------------*/
 399:Drivers/STM32F4xx_HAL_Driver/Src/stm32f4xx_hal_rcc_ex.c ****   if(((PeriphClkInit->PeriphClockSelection) & RCC_PERIPHCLK_SPDIFRX) == RCC_PERIPHCLK_SPDIFRX)
 556              		.loc 1 399 0
 557 034c 3B1D     		adds	r3, r7, #4
 558 034e 1B68     		ldr	r3, [r3]
 559 0350 1B68     		ldr	r3, [r3]
 560 0352 03F48063 		and	r3, r3, #1024
 561 0356 002B     		cmp	r3, #0
 562 0358 14D0     		beq	.L25
 400:Drivers/STM32F4xx_HAL_Driver/Src/stm32f4xx_hal_rcc_ex.c ****   {
 401:Drivers/STM32F4xx_HAL_Driver/Src/stm32f4xx_hal_rcc_ex.c ****     /* Check the parameters */
 402:Drivers/STM32F4xx_HAL_Driver/Src/stm32f4xx_hal_rcc_ex.c ****     assert_param(IS_RCC_SPDIFRXCLKSOURCE(PeriphClkInit->SpdifClockSelection));
 403:Drivers/STM32F4xx_HAL_Driver/Src/stm32f4xx_hal_rcc_ex.c ****     
 404:Drivers/STM32F4xx_HAL_Driver/Src/stm32f4xx_hal_rcc_ex.c ****     /* Configure the SPDIFRX clock source */
 405:Drivers/STM32F4xx_HAL_Driver/Src/stm32f4xx_hal_rcc_ex.c ****     __HAL_RCC_SPDIFRX_CONFIG(PeriphClkInit->SpdifClockSelection);
 563              		.loc 1 405 0
 564 035a 1949     		ldr	r1, .L81
 565 035c 184B     		ldr	r3, .L81
ARM GAS  /tmp/cctwGTwd.s 			page 18


 566 035e D3F89430 		ldr	r3, [r3, #148]
 567 0362 23F00052 		bic	r2, r3, #536870912
 568 0366 3B1D     		adds	r3, r7, #4
 569 0368 1B68     		ldr	r3, [r3]
 570 036a 1B6D     		ldr	r3, [r3, #80]
 571 036c 1343     		orrs	r3, r3, r2
 572 036e C1F89430 		str	r3, [r1, #148]
 406:Drivers/STM32F4xx_HAL_Driver/Src/stm32f4xx_hal_rcc_ex.c ****     /* Enable the PLLI2S when it's used as clock source for SPDIFRX */
 407:Drivers/STM32F4xx_HAL_Driver/Src/stm32f4xx_hal_rcc_ex.c ****     if(PeriphClkInit->SpdifClockSelection == RCC_SPDIFRXCLKSOURCE_PLLI2SP)
 573              		.loc 1 407 0
 574 0372 3B1D     		adds	r3, r7, #4
 575 0374 1B68     		ldr	r3, [r3]
 576 0376 1B6D     		ldr	r3, [r3, #80]
 577 0378 B3F1005F 		cmp	r3, #536870912
 578 037c 02D1     		bne	.L25
 408:Drivers/STM32F4xx_HAL_Driver/Src/stm32f4xx_hal_rcc_ex.c ****     {
 409:Drivers/STM32F4xx_HAL_Driver/Src/stm32f4xx_hal_rcc_ex.c ****       plli2sused = 1U; 
 579              		.loc 1 409 0
 580 037e 0123     		movs	r3, #1
 581 0380 C7F81C31 		str	r3, [r7, #284]
 582              	.L25:
 410:Drivers/STM32F4xx_HAL_Driver/Src/stm32f4xx_hal_rcc_ex.c ****     }
 411:Drivers/STM32F4xx_HAL_Driver/Src/stm32f4xx_hal_rcc_ex.c ****   }
 412:Drivers/STM32F4xx_HAL_Driver/Src/stm32f4xx_hal_rcc_ex.c ****   /*--------------------------------------------------------------------------*/
 413:Drivers/STM32F4xx_HAL_Driver/Src/stm32f4xx_hal_rcc_ex.c ****     
 414:Drivers/STM32F4xx_HAL_Driver/Src/stm32f4xx_hal_rcc_ex.c ****   /*---------------------------- PLLI2S Configuration ------------------------*/
 415:Drivers/STM32F4xx_HAL_Driver/Src/stm32f4xx_hal_rcc_ex.c ****   /* PLLI2S is configured when a peripheral will use it as source clock : SAI1, SAI2, I2S on APB1,
 416:Drivers/STM32F4xx_HAL_Driver/Src/stm32f4xx_hal_rcc_ex.c ****      I2S on APB2 or SPDIFRX */
 417:Drivers/STM32F4xx_HAL_Driver/Src/stm32f4xx_hal_rcc_ex.c ****   if((plli2sused == 1U) || (PeriphClkInit->PeriphClockSelection == RCC_PERIPHCLK_PLLI2S))
 583              		.loc 1 417 0
 584 0384 D7F81C31 		ldr	r3, [r7, #284]
 585 0388 012B     		cmp	r3, #1
 586 038a 06D0     		beq	.L26
 587              		.loc 1 417 0 is_stmt 0 discriminator 1
 588 038c 3B1D     		adds	r3, r7, #4
 589 038e 1B68     		ldr	r3, [r3]
 590 0390 1B68     		ldr	r3, [r3]
 591 0392 B3F5006F 		cmp	r3, #2048
 592 0396 40F05282 		bne	.L27
 593              	.L26:
 418:Drivers/STM32F4xx_HAL_Driver/Src/stm32f4xx_hal_rcc_ex.c ****   {
 419:Drivers/STM32F4xx_HAL_Driver/Src/stm32f4xx_hal_rcc_ex.c ****     /* Disable the PLLI2S */
 420:Drivers/STM32F4xx_HAL_Driver/Src/stm32f4xx_hal_rcc_ex.c ****     __HAL_RCC_PLLI2S_DISABLE();    
 594              		.loc 1 420 0 is_stmt 1
 595 039a 0B4B     		ldr	r3, .L81+8
 596 039c 0022     		movs	r2, #0
 597 039e 1A60     		str	r2, [r3]
 421:Drivers/STM32F4xx_HAL_Driver/Src/stm32f4xx_hal_rcc_ex.c ****     /* Get tick */
 422:Drivers/STM32F4xx_HAL_Driver/Src/stm32f4xx_hal_rcc_ex.c ****     tickstart = HAL_GetTick();
 598              		.loc 1 422 0
 599 03a0 FFF7FEFF 		bl	HAL_GetTick
 600 03a4 C7F81401 		str	r0, [r7, #276]
 423:Drivers/STM32F4xx_HAL_Driver/Src/stm32f4xx_hal_rcc_ex.c ****     /* Wait till PLLI2S is disabled */
 424:Drivers/STM32F4xx_HAL_Driver/Src/stm32f4xx_hal_rcc_ex.c ****     while(__HAL_RCC_GET_FLAG(RCC_FLAG_PLLI2SRDY)  != RESET)
 601              		.loc 1 424 0
 602 03a8 10E0     		b	.L28
 603              	.L29:
ARM GAS  /tmp/cctwGTwd.s 			page 19


 425:Drivers/STM32F4xx_HAL_Driver/Src/stm32f4xx_hal_rcc_ex.c ****     {
 426:Drivers/STM32F4xx_HAL_Driver/Src/stm32f4xx_hal_rcc_ex.c ****       if((HAL_GetTick() - tickstart ) > PLLI2S_TIMEOUT_VALUE)
 604              		.loc 1 426 0
 605 03aa FFF7FEFF 		bl	HAL_GetTick
 606 03ae 0246     		mov	r2, r0
 607 03b0 D7F81431 		ldr	r3, [r7, #276]
 608 03b4 D31A     		subs	r3, r2, r3
 609 03b6 022B     		cmp	r3, #2
 610 03b8 08D9     		bls	.L28
 427:Drivers/STM32F4xx_HAL_Driver/Src/stm32f4xx_hal_rcc_ex.c ****       {
 428:Drivers/STM32F4xx_HAL_Driver/Src/stm32f4xx_hal_rcc_ex.c ****         /* return in case of Timeout detected */
 429:Drivers/STM32F4xx_HAL_Driver/Src/stm32f4xx_hal_rcc_ex.c ****         return HAL_TIMEOUT;
 611              		.loc 1 429 0
 612 03ba 0323     		movs	r3, #3
 613 03bc 66E3     		b	.L13
 614              	.L82:
 615 03be 00BF     		.align	2
 616              	.L81:
 617 03c0 00380240 		.word	1073887232
 618 03c4 E0114742 		.word	1111953888
 619 03c8 68004742 		.word	1111949416
 620              	.L28:
 424:Drivers/STM32F4xx_HAL_Driver/Src/stm32f4xx_hal_rcc_ex.c ****     {
 621              		.loc 1 424 0
 622 03cc D14B     		ldr	r3, .L83
 623 03ce 1B68     		ldr	r3, [r3]
 624 03d0 03F00063 		and	r3, r3, #134217728
 625 03d4 002B     		cmp	r3, #0
 626 03d6 E8D1     		bne	.L29
 430:Drivers/STM32F4xx_HAL_Driver/Src/stm32f4xx_hal_rcc_ex.c ****       } 
 431:Drivers/STM32F4xx_HAL_Driver/Src/stm32f4xx_hal_rcc_ex.c ****     }
 432:Drivers/STM32F4xx_HAL_Driver/Src/stm32f4xx_hal_rcc_ex.c ****     
 433:Drivers/STM32F4xx_HAL_Driver/Src/stm32f4xx_hal_rcc_ex.c ****     /* check for common PLLI2S Parameters */
 434:Drivers/STM32F4xx_HAL_Driver/Src/stm32f4xx_hal_rcc_ex.c ****     assert_param(IS_RCC_PLLI2SM_VALUE(PeriphClkInit->PLLI2S.PLLI2SM));
 435:Drivers/STM32F4xx_HAL_Driver/Src/stm32f4xx_hal_rcc_ex.c ****     assert_param(IS_RCC_PLLI2SN_VALUE(PeriphClkInit->PLLI2S.PLLI2SN));
 436:Drivers/STM32F4xx_HAL_Driver/Src/stm32f4xx_hal_rcc_ex.c ****       
 437:Drivers/STM32F4xx_HAL_Driver/Src/stm32f4xx_hal_rcc_ex.c ****     /*------ In Case of PLLI2S is selected as source clock for I2S -----------*/ 
 438:Drivers/STM32F4xx_HAL_Driver/Src/stm32f4xx_hal_rcc_ex.c ****     if(((((PeriphClkInit->PeriphClockSelection) & RCC_PERIPHCLK_I2S_APB1) == RCC_PERIPHCLK_I2S_APB1
 627              		.loc 1 438 0
 628 03d8 3B1D     		adds	r3, r7, #4
 629 03da 1B68     		ldr	r3, [r3]
 630 03dc 1B68     		ldr	r3, [r3]
 631 03de 03F00103 		and	r3, r3, #1
 632 03e2 002B     		cmp	r3, #0
 633 03e4 04D0     		beq	.L30
 634              		.loc 1 438 0 is_stmt 0 discriminator 1
 635 03e6 3B1D     		adds	r3, r7, #4
 636 03e8 1B68     		ldr	r3, [r3]
 637 03ea 9B6B     		ldr	r3, [r3, #56]
 638 03ec 002B     		cmp	r3, #0
 639 03ee 0CD0     		beq	.L31
 640              	.L30:
 439:Drivers/STM32F4xx_HAL_Driver/Src/stm32f4xx_hal_rcc_ex.c ****        ((((PeriphClkInit->PeriphClockSelection) & RCC_PERIPHCLK_I2S_APB2) == RCC_PERIPHCLK_I2S_APB2
 641              		.loc 1 439 0 is_stmt 1 discriminator 3
 642 03f0 3B1D     		adds	r3, r7, #4
 643 03f2 1B68     		ldr	r3, [r3]
 644 03f4 1B68     		ldr	r3, [r3]
ARM GAS  /tmp/cctwGTwd.s 			page 20


 645 03f6 03F00203 		and	r3, r3, #2
 438:Drivers/STM32F4xx_HAL_Driver/Src/stm32f4xx_hal_rcc_ex.c ****        ((((PeriphClkInit->PeriphClockSelection) & RCC_PERIPHCLK_I2S_APB2) == RCC_PERIPHCLK_I2S_APB2
 646              		.loc 1 438 0 discriminator 3
 647 03fa 002B     		cmp	r3, #0
 648 03fc 00F08180 		beq	.L32
 649              		.loc 1 439 0
 650 0400 3B1D     		adds	r3, r7, #4
 651 0402 1B68     		ldr	r3, [r3]
 652 0404 DB6B     		ldr	r3, [r3, #60]
 653 0406 002B     		cmp	r3, #0
 654 0408 7BD1     		bne	.L32
 655              	.L31:
 440:Drivers/STM32F4xx_HAL_Driver/Src/stm32f4xx_hal_rcc_ex.c ****     {
 441:Drivers/STM32F4xx_HAL_Driver/Src/stm32f4xx_hal_rcc_ex.c ****       /* check for Parameters */
 442:Drivers/STM32F4xx_HAL_Driver/Src/stm32f4xx_hal_rcc_ex.c ****       assert_param(IS_RCC_PLLI2SR_VALUE(PeriphClkInit->PLLI2S.PLLI2SR));
 443:Drivers/STM32F4xx_HAL_Driver/Src/stm32f4xx_hal_rcc_ex.c ****     
 444:Drivers/STM32F4xx_HAL_Driver/Src/stm32f4xx_hal_rcc_ex.c ****       /* Read PLLI2SP/PLLI2SQ value from PLLI2SCFGR register (this value is not needed for I2S conf
 445:Drivers/STM32F4xx_HAL_Driver/Src/stm32f4xx_hal_rcc_ex.c ****       plli2sp = ((((RCC->PLLI2SCFGR & RCC_PLLI2SCFGR_PLLI2SP) >> POSITION_VAL(RCC_PLLI2SCFGR_PLLI2S
 656              		.loc 1 445 0
 657 040a C24B     		ldr	r3, .L83
 658 040c D3F88430 		ldr	r3, [r3, #132]
 659 0410 03F44032 		and	r2, r3, #196608
 660 0414 4FF44033 		mov	r3, #196608
 661 0418 C7F8F430 		str	r3, [r7, #244]
 662              	.LBB121:
 663              	.LBB122:
 664              		.file 2 "Drivers/CMSIS/Include/cmsis_gcc.h"
   1:Drivers/CMSIS/Include/cmsis_gcc.h **** /**************************************************************************//**
   2:Drivers/CMSIS/Include/cmsis_gcc.h ****  * @file     cmsis_gcc.h
   3:Drivers/CMSIS/Include/cmsis_gcc.h ****  * @brief    CMSIS Cortex-M Core Function/Instruction Header File
   4:Drivers/CMSIS/Include/cmsis_gcc.h ****  * @version  V4.30
   5:Drivers/CMSIS/Include/cmsis_gcc.h ****  * @date     20. October 2015
   6:Drivers/CMSIS/Include/cmsis_gcc.h ****  ******************************************************************************/
   7:Drivers/CMSIS/Include/cmsis_gcc.h **** /* Copyright (c) 2009 - 2015 ARM LIMITED
   8:Drivers/CMSIS/Include/cmsis_gcc.h **** 
   9:Drivers/CMSIS/Include/cmsis_gcc.h ****    All rights reserved.
  10:Drivers/CMSIS/Include/cmsis_gcc.h ****    Redistribution and use in source and binary forms, with or without
  11:Drivers/CMSIS/Include/cmsis_gcc.h ****    modification, are permitted provided that the following conditions are met:
  12:Drivers/CMSIS/Include/cmsis_gcc.h ****    - Redistributions of source code must retain the above copyright
  13:Drivers/CMSIS/Include/cmsis_gcc.h ****      notice, this list of conditions and the following disclaimer.
  14:Drivers/CMSIS/Include/cmsis_gcc.h ****    - Redistributions in binary form must reproduce the above copyright
  15:Drivers/CMSIS/Include/cmsis_gcc.h ****      notice, this list of conditions and the following disclaimer in the
  16:Drivers/CMSIS/Include/cmsis_gcc.h ****      documentation and/or other materials provided with the distribution.
  17:Drivers/CMSIS/Include/cmsis_gcc.h ****    - Neither the name of ARM nor the names of its contributors may be used
  18:Drivers/CMSIS/Include/cmsis_gcc.h ****      to endorse or promote products derived from this software without
  19:Drivers/CMSIS/Include/cmsis_gcc.h ****      specific prior written permission.
  20:Drivers/CMSIS/Include/cmsis_gcc.h ****    *
  21:Drivers/CMSIS/Include/cmsis_gcc.h ****    THIS SOFTWARE IS PROVIDED BY THE COPYRIGHT HOLDERS AND CONTRIBUTORS "AS IS"
  22:Drivers/CMSIS/Include/cmsis_gcc.h ****    AND ANY EXPRESS OR IMPLIED WARRANTIES, INCLUDING, BUT NOT LIMITED TO, THE
  23:Drivers/CMSIS/Include/cmsis_gcc.h ****    IMPLIED WARRANTIES OF MERCHANTABILITY AND FITNESS FOR A PARTICULAR PURPOSE
  24:Drivers/CMSIS/Include/cmsis_gcc.h ****    ARE DISCLAIMED. IN NO EVENT SHALL COPYRIGHT HOLDERS AND CONTRIBUTORS BE
  25:Drivers/CMSIS/Include/cmsis_gcc.h ****    LIABLE FOR ANY DIRECT, INDIRECT, INCIDENTAL, SPECIAL, EXEMPLARY, OR
  26:Drivers/CMSIS/Include/cmsis_gcc.h ****    CONSEQUENTIAL DAMAGES (INCLUDING, BUT NOT LIMITED TO, PROCUREMENT OF
  27:Drivers/CMSIS/Include/cmsis_gcc.h ****    SUBSTITUTE GOODS OR SERVICES; LOSS OF USE, DATA, OR PROFITS; OR BUSINESS
  28:Drivers/CMSIS/Include/cmsis_gcc.h ****    INTERRUPTION) HOWEVER CAUSED AND ON ANY THEORY OF LIABILITY, WHETHER IN
  29:Drivers/CMSIS/Include/cmsis_gcc.h ****    CONTRACT, STRICT LIABILITY, OR TORT (INCLUDING NEGLIGENCE OR OTHERWISE)
  30:Drivers/CMSIS/Include/cmsis_gcc.h ****    ARISING IN ANY WAY OUT OF THE USE OF THIS SOFTWARE, EVEN IF ADVISED OF THE
ARM GAS  /tmp/cctwGTwd.s 			page 21


  31:Drivers/CMSIS/Include/cmsis_gcc.h ****    POSSIBILITY OF SUCH DAMAGE.
  32:Drivers/CMSIS/Include/cmsis_gcc.h ****    ---------------------------------------------------------------------------*/
  33:Drivers/CMSIS/Include/cmsis_gcc.h **** 
  34:Drivers/CMSIS/Include/cmsis_gcc.h **** 
  35:Drivers/CMSIS/Include/cmsis_gcc.h **** #ifndef __CMSIS_GCC_H
  36:Drivers/CMSIS/Include/cmsis_gcc.h **** #define __CMSIS_GCC_H
  37:Drivers/CMSIS/Include/cmsis_gcc.h **** 
  38:Drivers/CMSIS/Include/cmsis_gcc.h **** /* ignore some GCC warnings */
  39:Drivers/CMSIS/Include/cmsis_gcc.h **** #if defined ( __GNUC__ )
  40:Drivers/CMSIS/Include/cmsis_gcc.h **** #pragma GCC diagnostic push
  41:Drivers/CMSIS/Include/cmsis_gcc.h **** #pragma GCC diagnostic ignored "-Wsign-conversion"
  42:Drivers/CMSIS/Include/cmsis_gcc.h **** #pragma GCC diagnostic ignored "-Wconversion"
  43:Drivers/CMSIS/Include/cmsis_gcc.h **** #pragma GCC diagnostic ignored "-Wunused-parameter"
  44:Drivers/CMSIS/Include/cmsis_gcc.h **** #endif
  45:Drivers/CMSIS/Include/cmsis_gcc.h **** 
  46:Drivers/CMSIS/Include/cmsis_gcc.h **** 
  47:Drivers/CMSIS/Include/cmsis_gcc.h **** /* ###########################  Core Function Access  ########################### */
  48:Drivers/CMSIS/Include/cmsis_gcc.h **** /** \ingroup  CMSIS_Core_FunctionInterface
  49:Drivers/CMSIS/Include/cmsis_gcc.h ****     \defgroup CMSIS_Core_RegAccFunctions CMSIS Core Register Access Functions
  50:Drivers/CMSIS/Include/cmsis_gcc.h ****   @{
  51:Drivers/CMSIS/Include/cmsis_gcc.h ****  */
  52:Drivers/CMSIS/Include/cmsis_gcc.h **** 
  53:Drivers/CMSIS/Include/cmsis_gcc.h **** /**
  54:Drivers/CMSIS/Include/cmsis_gcc.h ****   \brief   Enable IRQ Interrupts
  55:Drivers/CMSIS/Include/cmsis_gcc.h ****   \details Enables IRQ interrupts by clearing the I-bit in the CPSR.
  56:Drivers/CMSIS/Include/cmsis_gcc.h ****            Can only be executed in Privileged modes.
  57:Drivers/CMSIS/Include/cmsis_gcc.h ****  */
  58:Drivers/CMSIS/Include/cmsis_gcc.h **** __attribute__( ( always_inline ) ) __STATIC_INLINE void __enable_irq(void)
  59:Drivers/CMSIS/Include/cmsis_gcc.h **** {
  60:Drivers/CMSIS/Include/cmsis_gcc.h ****   __ASM volatile ("cpsie i" : : : "memory");
  61:Drivers/CMSIS/Include/cmsis_gcc.h **** }
  62:Drivers/CMSIS/Include/cmsis_gcc.h **** 
  63:Drivers/CMSIS/Include/cmsis_gcc.h **** 
  64:Drivers/CMSIS/Include/cmsis_gcc.h **** /**
  65:Drivers/CMSIS/Include/cmsis_gcc.h ****   \brief   Disable IRQ Interrupts
  66:Drivers/CMSIS/Include/cmsis_gcc.h ****   \details Disables IRQ interrupts by setting the I-bit in the CPSR.
  67:Drivers/CMSIS/Include/cmsis_gcc.h ****   Can only be executed in Privileged modes.
  68:Drivers/CMSIS/Include/cmsis_gcc.h ****  */
  69:Drivers/CMSIS/Include/cmsis_gcc.h **** __attribute__( ( always_inline ) ) __STATIC_INLINE void __disable_irq(void)
  70:Drivers/CMSIS/Include/cmsis_gcc.h **** {
  71:Drivers/CMSIS/Include/cmsis_gcc.h ****   __ASM volatile ("cpsid i" : : : "memory");
  72:Drivers/CMSIS/Include/cmsis_gcc.h **** }
  73:Drivers/CMSIS/Include/cmsis_gcc.h **** 
  74:Drivers/CMSIS/Include/cmsis_gcc.h **** 
  75:Drivers/CMSIS/Include/cmsis_gcc.h **** /**
  76:Drivers/CMSIS/Include/cmsis_gcc.h ****   \brief   Get Control Register
  77:Drivers/CMSIS/Include/cmsis_gcc.h ****   \details Returns the content of the Control Register.
  78:Drivers/CMSIS/Include/cmsis_gcc.h ****   \return               Control Register value
  79:Drivers/CMSIS/Include/cmsis_gcc.h ****  */
  80:Drivers/CMSIS/Include/cmsis_gcc.h **** __attribute__( ( always_inline ) ) __STATIC_INLINE uint32_t __get_CONTROL(void)
  81:Drivers/CMSIS/Include/cmsis_gcc.h **** {
  82:Drivers/CMSIS/Include/cmsis_gcc.h ****   uint32_t result;
  83:Drivers/CMSIS/Include/cmsis_gcc.h **** 
  84:Drivers/CMSIS/Include/cmsis_gcc.h ****   __ASM volatile ("MRS %0, control" : "=r" (result) );
  85:Drivers/CMSIS/Include/cmsis_gcc.h ****   return(result);
  86:Drivers/CMSIS/Include/cmsis_gcc.h **** }
  87:Drivers/CMSIS/Include/cmsis_gcc.h **** 
ARM GAS  /tmp/cctwGTwd.s 			page 22


  88:Drivers/CMSIS/Include/cmsis_gcc.h **** 
  89:Drivers/CMSIS/Include/cmsis_gcc.h **** /**
  90:Drivers/CMSIS/Include/cmsis_gcc.h ****   \brief   Set Control Register
  91:Drivers/CMSIS/Include/cmsis_gcc.h ****   \details Writes the given value to the Control Register.
  92:Drivers/CMSIS/Include/cmsis_gcc.h ****   \param [in]    control  Control Register value to set
  93:Drivers/CMSIS/Include/cmsis_gcc.h ****  */
  94:Drivers/CMSIS/Include/cmsis_gcc.h **** __attribute__( ( always_inline ) ) __STATIC_INLINE void __set_CONTROL(uint32_t control)
  95:Drivers/CMSIS/Include/cmsis_gcc.h **** {
  96:Drivers/CMSIS/Include/cmsis_gcc.h ****   __ASM volatile ("MSR control, %0" : : "r" (control) : "memory");
  97:Drivers/CMSIS/Include/cmsis_gcc.h **** }
  98:Drivers/CMSIS/Include/cmsis_gcc.h **** 
  99:Drivers/CMSIS/Include/cmsis_gcc.h **** 
 100:Drivers/CMSIS/Include/cmsis_gcc.h **** /**
 101:Drivers/CMSIS/Include/cmsis_gcc.h ****   \brief   Get IPSR Register
 102:Drivers/CMSIS/Include/cmsis_gcc.h ****   \details Returns the content of the IPSR Register.
 103:Drivers/CMSIS/Include/cmsis_gcc.h ****   \return               IPSR Register value
 104:Drivers/CMSIS/Include/cmsis_gcc.h ****  */
 105:Drivers/CMSIS/Include/cmsis_gcc.h **** __attribute__( ( always_inline ) ) __STATIC_INLINE uint32_t __get_IPSR(void)
 106:Drivers/CMSIS/Include/cmsis_gcc.h **** {
 107:Drivers/CMSIS/Include/cmsis_gcc.h ****   uint32_t result;
 108:Drivers/CMSIS/Include/cmsis_gcc.h **** 
 109:Drivers/CMSIS/Include/cmsis_gcc.h ****   __ASM volatile ("MRS %0, ipsr" : "=r" (result) );
 110:Drivers/CMSIS/Include/cmsis_gcc.h ****   return(result);
 111:Drivers/CMSIS/Include/cmsis_gcc.h **** }
 112:Drivers/CMSIS/Include/cmsis_gcc.h **** 
 113:Drivers/CMSIS/Include/cmsis_gcc.h **** 
 114:Drivers/CMSIS/Include/cmsis_gcc.h **** /**
 115:Drivers/CMSIS/Include/cmsis_gcc.h ****   \brief   Get APSR Register
 116:Drivers/CMSIS/Include/cmsis_gcc.h ****   \details Returns the content of the APSR Register.
 117:Drivers/CMSIS/Include/cmsis_gcc.h ****   \return               APSR Register value
 118:Drivers/CMSIS/Include/cmsis_gcc.h ****  */
 119:Drivers/CMSIS/Include/cmsis_gcc.h **** __attribute__( ( always_inline ) ) __STATIC_INLINE uint32_t __get_APSR(void)
 120:Drivers/CMSIS/Include/cmsis_gcc.h **** {
 121:Drivers/CMSIS/Include/cmsis_gcc.h ****   uint32_t result;
 122:Drivers/CMSIS/Include/cmsis_gcc.h **** 
 123:Drivers/CMSIS/Include/cmsis_gcc.h ****   __ASM volatile ("MRS %0, apsr" : "=r" (result) );
 124:Drivers/CMSIS/Include/cmsis_gcc.h ****   return(result);
 125:Drivers/CMSIS/Include/cmsis_gcc.h **** }
 126:Drivers/CMSIS/Include/cmsis_gcc.h **** 
 127:Drivers/CMSIS/Include/cmsis_gcc.h **** 
 128:Drivers/CMSIS/Include/cmsis_gcc.h **** /**
 129:Drivers/CMSIS/Include/cmsis_gcc.h ****   \brief   Get xPSR Register
 130:Drivers/CMSIS/Include/cmsis_gcc.h ****   \details Returns the content of the xPSR Register.
 131:Drivers/CMSIS/Include/cmsis_gcc.h **** 
 132:Drivers/CMSIS/Include/cmsis_gcc.h ****     \return               xPSR Register value
 133:Drivers/CMSIS/Include/cmsis_gcc.h ****  */
 134:Drivers/CMSIS/Include/cmsis_gcc.h **** __attribute__( ( always_inline ) ) __STATIC_INLINE uint32_t __get_xPSR(void)
 135:Drivers/CMSIS/Include/cmsis_gcc.h **** {
 136:Drivers/CMSIS/Include/cmsis_gcc.h ****   uint32_t result;
 137:Drivers/CMSIS/Include/cmsis_gcc.h **** 
 138:Drivers/CMSIS/Include/cmsis_gcc.h ****   __ASM volatile ("MRS %0, xpsr" : "=r" (result) );
 139:Drivers/CMSIS/Include/cmsis_gcc.h ****   return(result);
 140:Drivers/CMSIS/Include/cmsis_gcc.h **** }
 141:Drivers/CMSIS/Include/cmsis_gcc.h **** 
 142:Drivers/CMSIS/Include/cmsis_gcc.h **** 
 143:Drivers/CMSIS/Include/cmsis_gcc.h **** /**
 144:Drivers/CMSIS/Include/cmsis_gcc.h ****   \brief   Get Process Stack Pointer
ARM GAS  /tmp/cctwGTwd.s 			page 23


 145:Drivers/CMSIS/Include/cmsis_gcc.h ****   \details Returns the current value of the Process Stack Pointer (PSP).
 146:Drivers/CMSIS/Include/cmsis_gcc.h ****   \return               PSP Register value
 147:Drivers/CMSIS/Include/cmsis_gcc.h ****  */
 148:Drivers/CMSIS/Include/cmsis_gcc.h **** __attribute__( ( always_inline ) ) __STATIC_INLINE uint32_t __get_PSP(void)
 149:Drivers/CMSIS/Include/cmsis_gcc.h **** {
 150:Drivers/CMSIS/Include/cmsis_gcc.h ****   register uint32_t result;
 151:Drivers/CMSIS/Include/cmsis_gcc.h **** 
 152:Drivers/CMSIS/Include/cmsis_gcc.h ****   __ASM volatile ("MRS %0, psp\n"  : "=r" (result) );
 153:Drivers/CMSIS/Include/cmsis_gcc.h ****   return(result);
 154:Drivers/CMSIS/Include/cmsis_gcc.h **** }
 155:Drivers/CMSIS/Include/cmsis_gcc.h **** 
 156:Drivers/CMSIS/Include/cmsis_gcc.h **** 
 157:Drivers/CMSIS/Include/cmsis_gcc.h **** /**
 158:Drivers/CMSIS/Include/cmsis_gcc.h ****   \brief   Set Process Stack Pointer
 159:Drivers/CMSIS/Include/cmsis_gcc.h ****   \details Assigns the given value to the Process Stack Pointer (PSP).
 160:Drivers/CMSIS/Include/cmsis_gcc.h ****   \param [in]    topOfProcStack  Process Stack Pointer value to set
 161:Drivers/CMSIS/Include/cmsis_gcc.h ****  */
 162:Drivers/CMSIS/Include/cmsis_gcc.h **** __attribute__( ( always_inline ) ) __STATIC_INLINE void __set_PSP(uint32_t topOfProcStack)
 163:Drivers/CMSIS/Include/cmsis_gcc.h **** {
 164:Drivers/CMSIS/Include/cmsis_gcc.h ****   __ASM volatile ("MSR psp, %0\n" : : "r" (topOfProcStack) : "sp");
 165:Drivers/CMSIS/Include/cmsis_gcc.h **** }
 166:Drivers/CMSIS/Include/cmsis_gcc.h **** 
 167:Drivers/CMSIS/Include/cmsis_gcc.h **** 
 168:Drivers/CMSIS/Include/cmsis_gcc.h **** /**
 169:Drivers/CMSIS/Include/cmsis_gcc.h ****   \brief   Get Main Stack Pointer
 170:Drivers/CMSIS/Include/cmsis_gcc.h ****   \details Returns the current value of the Main Stack Pointer (MSP).
 171:Drivers/CMSIS/Include/cmsis_gcc.h ****   \return               MSP Register value
 172:Drivers/CMSIS/Include/cmsis_gcc.h ****  */
 173:Drivers/CMSIS/Include/cmsis_gcc.h **** __attribute__( ( always_inline ) ) __STATIC_INLINE uint32_t __get_MSP(void)
 174:Drivers/CMSIS/Include/cmsis_gcc.h **** {
 175:Drivers/CMSIS/Include/cmsis_gcc.h ****   register uint32_t result;
 176:Drivers/CMSIS/Include/cmsis_gcc.h **** 
 177:Drivers/CMSIS/Include/cmsis_gcc.h ****   __ASM volatile ("MRS %0, msp\n" : "=r" (result) );
 178:Drivers/CMSIS/Include/cmsis_gcc.h ****   return(result);
 179:Drivers/CMSIS/Include/cmsis_gcc.h **** }
 180:Drivers/CMSIS/Include/cmsis_gcc.h **** 
 181:Drivers/CMSIS/Include/cmsis_gcc.h **** 
 182:Drivers/CMSIS/Include/cmsis_gcc.h **** /**
 183:Drivers/CMSIS/Include/cmsis_gcc.h ****   \brief   Set Main Stack Pointer
 184:Drivers/CMSIS/Include/cmsis_gcc.h ****   \details Assigns the given value to the Main Stack Pointer (MSP).
 185:Drivers/CMSIS/Include/cmsis_gcc.h **** 
 186:Drivers/CMSIS/Include/cmsis_gcc.h ****     \param [in]    topOfMainStack  Main Stack Pointer value to set
 187:Drivers/CMSIS/Include/cmsis_gcc.h ****  */
 188:Drivers/CMSIS/Include/cmsis_gcc.h **** __attribute__( ( always_inline ) ) __STATIC_INLINE void __set_MSP(uint32_t topOfMainStack)
 189:Drivers/CMSIS/Include/cmsis_gcc.h **** {
 190:Drivers/CMSIS/Include/cmsis_gcc.h ****   __ASM volatile ("MSR msp, %0\n" : : "r" (topOfMainStack) : "sp");
 191:Drivers/CMSIS/Include/cmsis_gcc.h **** }
 192:Drivers/CMSIS/Include/cmsis_gcc.h **** 
 193:Drivers/CMSIS/Include/cmsis_gcc.h **** 
 194:Drivers/CMSIS/Include/cmsis_gcc.h **** /**
 195:Drivers/CMSIS/Include/cmsis_gcc.h ****   \brief   Get Priority Mask
 196:Drivers/CMSIS/Include/cmsis_gcc.h ****   \details Returns the current state of the priority mask bit from the Priority Mask Register.
 197:Drivers/CMSIS/Include/cmsis_gcc.h ****   \return               Priority Mask value
 198:Drivers/CMSIS/Include/cmsis_gcc.h ****  */
 199:Drivers/CMSIS/Include/cmsis_gcc.h **** __attribute__( ( always_inline ) ) __STATIC_INLINE uint32_t __get_PRIMASK(void)
 200:Drivers/CMSIS/Include/cmsis_gcc.h **** {
 201:Drivers/CMSIS/Include/cmsis_gcc.h ****   uint32_t result;
ARM GAS  /tmp/cctwGTwd.s 			page 24


 202:Drivers/CMSIS/Include/cmsis_gcc.h **** 
 203:Drivers/CMSIS/Include/cmsis_gcc.h ****   __ASM volatile ("MRS %0, primask" : "=r" (result) );
 204:Drivers/CMSIS/Include/cmsis_gcc.h ****   return(result);
 205:Drivers/CMSIS/Include/cmsis_gcc.h **** }
 206:Drivers/CMSIS/Include/cmsis_gcc.h **** 
 207:Drivers/CMSIS/Include/cmsis_gcc.h **** 
 208:Drivers/CMSIS/Include/cmsis_gcc.h **** /**
 209:Drivers/CMSIS/Include/cmsis_gcc.h ****   \brief   Set Priority Mask
 210:Drivers/CMSIS/Include/cmsis_gcc.h ****   \details Assigns the given value to the Priority Mask Register.
 211:Drivers/CMSIS/Include/cmsis_gcc.h ****   \param [in]    priMask  Priority Mask
 212:Drivers/CMSIS/Include/cmsis_gcc.h ****  */
 213:Drivers/CMSIS/Include/cmsis_gcc.h **** __attribute__( ( always_inline ) ) __STATIC_INLINE void __set_PRIMASK(uint32_t priMask)
 214:Drivers/CMSIS/Include/cmsis_gcc.h **** {
 215:Drivers/CMSIS/Include/cmsis_gcc.h ****   __ASM volatile ("MSR primask, %0" : : "r" (priMask) : "memory");
 216:Drivers/CMSIS/Include/cmsis_gcc.h **** }
 217:Drivers/CMSIS/Include/cmsis_gcc.h **** 
 218:Drivers/CMSIS/Include/cmsis_gcc.h **** 
 219:Drivers/CMSIS/Include/cmsis_gcc.h **** #if       (__CORTEX_M >= 0x03U)
 220:Drivers/CMSIS/Include/cmsis_gcc.h **** 
 221:Drivers/CMSIS/Include/cmsis_gcc.h **** /**
 222:Drivers/CMSIS/Include/cmsis_gcc.h ****   \brief   Enable FIQ
 223:Drivers/CMSIS/Include/cmsis_gcc.h ****   \details Enables FIQ interrupts by clearing the F-bit in the CPSR.
 224:Drivers/CMSIS/Include/cmsis_gcc.h ****            Can only be executed in Privileged modes.
 225:Drivers/CMSIS/Include/cmsis_gcc.h ****  */
 226:Drivers/CMSIS/Include/cmsis_gcc.h **** __attribute__( ( always_inline ) ) __STATIC_INLINE void __enable_fault_irq(void)
 227:Drivers/CMSIS/Include/cmsis_gcc.h **** {
 228:Drivers/CMSIS/Include/cmsis_gcc.h ****   __ASM volatile ("cpsie f" : : : "memory");
 229:Drivers/CMSIS/Include/cmsis_gcc.h **** }
 230:Drivers/CMSIS/Include/cmsis_gcc.h **** 
 231:Drivers/CMSIS/Include/cmsis_gcc.h **** 
 232:Drivers/CMSIS/Include/cmsis_gcc.h **** /**
 233:Drivers/CMSIS/Include/cmsis_gcc.h ****   \brief   Disable FIQ
 234:Drivers/CMSIS/Include/cmsis_gcc.h ****   \details Disables FIQ interrupts by setting the F-bit in the CPSR.
 235:Drivers/CMSIS/Include/cmsis_gcc.h ****            Can only be executed in Privileged modes.
 236:Drivers/CMSIS/Include/cmsis_gcc.h ****  */
 237:Drivers/CMSIS/Include/cmsis_gcc.h **** __attribute__( ( always_inline ) ) __STATIC_INLINE void __disable_fault_irq(void)
 238:Drivers/CMSIS/Include/cmsis_gcc.h **** {
 239:Drivers/CMSIS/Include/cmsis_gcc.h ****   __ASM volatile ("cpsid f" : : : "memory");
 240:Drivers/CMSIS/Include/cmsis_gcc.h **** }
 241:Drivers/CMSIS/Include/cmsis_gcc.h **** 
 242:Drivers/CMSIS/Include/cmsis_gcc.h **** 
 243:Drivers/CMSIS/Include/cmsis_gcc.h **** /**
 244:Drivers/CMSIS/Include/cmsis_gcc.h ****   \brief   Get Base Priority
 245:Drivers/CMSIS/Include/cmsis_gcc.h ****   \details Returns the current value of the Base Priority register.
 246:Drivers/CMSIS/Include/cmsis_gcc.h ****   \return               Base Priority register value
 247:Drivers/CMSIS/Include/cmsis_gcc.h ****  */
 248:Drivers/CMSIS/Include/cmsis_gcc.h **** __attribute__( ( always_inline ) ) __STATIC_INLINE uint32_t __get_BASEPRI(void)
 249:Drivers/CMSIS/Include/cmsis_gcc.h **** {
 250:Drivers/CMSIS/Include/cmsis_gcc.h ****   uint32_t result;
 251:Drivers/CMSIS/Include/cmsis_gcc.h **** 
 252:Drivers/CMSIS/Include/cmsis_gcc.h ****   __ASM volatile ("MRS %0, basepri" : "=r" (result) );
 253:Drivers/CMSIS/Include/cmsis_gcc.h ****   return(result);
 254:Drivers/CMSIS/Include/cmsis_gcc.h **** }
 255:Drivers/CMSIS/Include/cmsis_gcc.h **** 
 256:Drivers/CMSIS/Include/cmsis_gcc.h **** 
 257:Drivers/CMSIS/Include/cmsis_gcc.h **** /**
 258:Drivers/CMSIS/Include/cmsis_gcc.h ****   \brief   Set Base Priority
ARM GAS  /tmp/cctwGTwd.s 			page 25


 259:Drivers/CMSIS/Include/cmsis_gcc.h ****   \details Assigns the given value to the Base Priority register.
 260:Drivers/CMSIS/Include/cmsis_gcc.h ****   \param [in]    basePri  Base Priority value to set
 261:Drivers/CMSIS/Include/cmsis_gcc.h ****  */
 262:Drivers/CMSIS/Include/cmsis_gcc.h **** __attribute__( ( always_inline ) ) __STATIC_INLINE void __set_BASEPRI(uint32_t value)
 263:Drivers/CMSIS/Include/cmsis_gcc.h **** {
 264:Drivers/CMSIS/Include/cmsis_gcc.h ****   __ASM volatile ("MSR basepri, %0" : : "r" (value) : "memory");
 265:Drivers/CMSIS/Include/cmsis_gcc.h **** }
 266:Drivers/CMSIS/Include/cmsis_gcc.h **** 
 267:Drivers/CMSIS/Include/cmsis_gcc.h **** 
 268:Drivers/CMSIS/Include/cmsis_gcc.h **** /**
 269:Drivers/CMSIS/Include/cmsis_gcc.h ****   \brief   Set Base Priority with condition
 270:Drivers/CMSIS/Include/cmsis_gcc.h ****   \details Assigns the given value to the Base Priority register only if BASEPRI masking is disable
 271:Drivers/CMSIS/Include/cmsis_gcc.h ****            or the new value increases the BASEPRI priority level.
 272:Drivers/CMSIS/Include/cmsis_gcc.h ****   \param [in]    basePri  Base Priority value to set
 273:Drivers/CMSIS/Include/cmsis_gcc.h ****  */
 274:Drivers/CMSIS/Include/cmsis_gcc.h **** __attribute__( ( always_inline ) ) __STATIC_INLINE void __set_BASEPRI_MAX(uint32_t value)
 275:Drivers/CMSIS/Include/cmsis_gcc.h **** {
 276:Drivers/CMSIS/Include/cmsis_gcc.h ****   __ASM volatile ("MSR basepri_max, %0" : : "r" (value) : "memory");
 277:Drivers/CMSIS/Include/cmsis_gcc.h **** }
 278:Drivers/CMSIS/Include/cmsis_gcc.h **** 
 279:Drivers/CMSIS/Include/cmsis_gcc.h **** 
 280:Drivers/CMSIS/Include/cmsis_gcc.h **** /**
 281:Drivers/CMSIS/Include/cmsis_gcc.h ****   \brief   Get Fault Mask
 282:Drivers/CMSIS/Include/cmsis_gcc.h ****   \details Returns the current value of the Fault Mask register.
 283:Drivers/CMSIS/Include/cmsis_gcc.h ****   \return               Fault Mask register value
 284:Drivers/CMSIS/Include/cmsis_gcc.h ****  */
 285:Drivers/CMSIS/Include/cmsis_gcc.h **** __attribute__( ( always_inline ) ) __STATIC_INLINE uint32_t __get_FAULTMASK(void)
 286:Drivers/CMSIS/Include/cmsis_gcc.h **** {
 287:Drivers/CMSIS/Include/cmsis_gcc.h ****   uint32_t result;
 288:Drivers/CMSIS/Include/cmsis_gcc.h **** 
 289:Drivers/CMSIS/Include/cmsis_gcc.h ****   __ASM volatile ("MRS %0, faultmask" : "=r" (result) );
 290:Drivers/CMSIS/Include/cmsis_gcc.h ****   return(result);
 291:Drivers/CMSIS/Include/cmsis_gcc.h **** }
 292:Drivers/CMSIS/Include/cmsis_gcc.h **** 
 293:Drivers/CMSIS/Include/cmsis_gcc.h **** 
 294:Drivers/CMSIS/Include/cmsis_gcc.h **** /**
 295:Drivers/CMSIS/Include/cmsis_gcc.h ****   \brief   Set Fault Mask
 296:Drivers/CMSIS/Include/cmsis_gcc.h ****   \details Assigns the given value to the Fault Mask register.
 297:Drivers/CMSIS/Include/cmsis_gcc.h ****   \param [in]    faultMask  Fault Mask value to set
 298:Drivers/CMSIS/Include/cmsis_gcc.h ****  */
 299:Drivers/CMSIS/Include/cmsis_gcc.h **** __attribute__( ( always_inline ) ) __STATIC_INLINE void __set_FAULTMASK(uint32_t faultMask)
 300:Drivers/CMSIS/Include/cmsis_gcc.h **** {
 301:Drivers/CMSIS/Include/cmsis_gcc.h ****   __ASM volatile ("MSR faultmask, %0" : : "r" (faultMask) : "memory");
 302:Drivers/CMSIS/Include/cmsis_gcc.h **** }
 303:Drivers/CMSIS/Include/cmsis_gcc.h **** 
 304:Drivers/CMSIS/Include/cmsis_gcc.h **** #endif /* (__CORTEX_M >= 0x03U) */
 305:Drivers/CMSIS/Include/cmsis_gcc.h **** 
 306:Drivers/CMSIS/Include/cmsis_gcc.h **** 
 307:Drivers/CMSIS/Include/cmsis_gcc.h **** #if       (__CORTEX_M == 0x04U) || (__CORTEX_M == 0x07U)
 308:Drivers/CMSIS/Include/cmsis_gcc.h **** 
 309:Drivers/CMSIS/Include/cmsis_gcc.h **** /**
 310:Drivers/CMSIS/Include/cmsis_gcc.h ****   \brief   Get FPSCR
 311:Drivers/CMSIS/Include/cmsis_gcc.h ****   \details Returns the current value of the Floating Point Status/Control register.
 312:Drivers/CMSIS/Include/cmsis_gcc.h ****   \return               Floating Point Status/Control register value
 313:Drivers/CMSIS/Include/cmsis_gcc.h ****  */
 314:Drivers/CMSIS/Include/cmsis_gcc.h **** __attribute__( ( always_inline ) ) __STATIC_INLINE uint32_t __get_FPSCR(void)
 315:Drivers/CMSIS/Include/cmsis_gcc.h **** {
ARM GAS  /tmp/cctwGTwd.s 			page 26


 316:Drivers/CMSIS/Include/cmsis_gcc.h **** #if (__FPU_PRESENT == 1U) && (__FPU_USED == 1U)
 317:Drivers/CMSIS/Include/cmsis_gcc.h ****   uint32_t result;
 318:Drivers/CMSIS/Include/cmsis_gcc.h **** 
 319:Drivers/CMSIS/Include/cmsis_gcc.h ****   /* Empty asm statement works as a scheduling barrier */
 320:Drivers/CMSIS/Include/cmsis_gcc.h ****   __ASM volatile ("");
 321:Drivers/CMSIS/Include/cmsis_gcc.h ****   __ASM volatile ("VMRS %0, fpscr" : "=r" (result) );
 322:Drivers/CMSIS/Include/cmsis_gcc.h ****   __ASM volatile ("");
 323:Drivers/CMSIS/Include/cmsis_gcc.h ****   return(result);
 324:Drivers/CMSIS/Include/cmsis_gcc.h **** #else
 325:Drivers/CMSIS/Include/cmsis_gcc.h ****    return(0);
 326:Drivers/CMSIS/Include/cmsis_gcc.h **** #endif
 327:Drivers/CMSIS/Include/cmsis_gcc.h **** }
 328:Drivers/CMSIS/Include/cmsis_gcc.h **** 
 329:Drivers/CMSIS/Include/cmsis_gcc.h **** 
 330:Drivers/CMSIS/Include/cmsis_gcc.h **** /**
 331:Drivers/CMSIS/Include/cmsis_gcc.h ****   \brief   Set FPSCR
 332:Drivers/CMSIS/Include/cmsis_gcc.h ****   \details Assigns the given value to the Floating Point Status/Control register.
 333:Drivers/CMSIS/Include/cmsis_gcc.h ****   \param [in]    fpscr  Floating Point Status/Control value to set
 334:Drivers/CMSIS/Include/cmsis_gcc.h ****  */
 335:Drivers/CMSIS/Include/cmsis_gcc.h **** __attribute__( ( always_inline ) ) __STATIC_INLINE void __set_FPSCR(uint32_t fpscr)
 336:Drivers/CMSIS/Include/cmsis_gcc.h **** {
 337:Drivers/CMSIS/Include/cmsis_gcc.h **** #if (__FPU_PRESENT == 1U) && (__FPU_USED == 1U)
 338:Drivers/CMSIS/Include/cmsis_gcc.h ****   /* Empty asm statement works as a scheduling barrier */
 339:Drivers/CMSIS/Include/cmsis_gcc.h ****   __ASM volatile ("");
 340:Drivers/CMSIS/Include/cmsis_gcc.h ****   __ASM volatile ("VMSR fpscr, %0" : : "r" (fpscr) : "vfpcc");
 341:Drivers/CMSIS/Include/cmsis_gcc.h ****   __ASM volatile ("");
 342:Drivers/CMSIS/Include/cmsis_gcc.h **** #endif
 343:Drivers/CMSIS/Include/cmsis_gcc.h **** }
 344:Drivers/CMSIS/Include/cmsis_gcc.h **** 
 345:Drivers/CMSIS/Include/cmsis_gcc.h **** #endif /* (__CORTEX_M == 0x04U) || (__CORTEX_M == 0x07U) */
 346:Drivers/CMSIS/Include/cmsis_gcc.h **** 
 347:Drivers/CMSIS/Include/cmsis_gcc.h **** 
 348:Drivers/CMSIS/Include/cmsis_gcc.h **** 
 349:Drivers/CMSIS/Include/cmsis_gcc.h **** /*@} end of CMSIS_Core_RegAccFunctions */
 350:Drivers/CMSIS/Include/cmsis_gcc.h **** 
 351:Drivers/CMSIS/Include/cmsis_gcc.h **** 
 352:Drivers/CMSIS/Include/cmsis_gcc.h **** /* ##########################  Core Instruction Access  ######################### */
 353:Drivers/CMSIS/Include/cmsis_gcc.h **** /** \defgroup CMSIS_Core_InstructionInterface CMSIS Core Instruction Interface
 354:Drivers/CMSIS/Include/cmsis_gcc.h ****   Access to dedicated instructions
 355:Drivers/CMSIS/Include/cmsis_gcc.h ****   @{
 356:Drivers/CMSIS/Include/cmsis_gcc.h **** */
 357:Drivers/CMSIS/Include/cmsis_gcc.h **** 
 358:Drivers/CMSIS/Include/cmsis_gcc.h **** /* Define macros for porting to both thumb1 and thumb2.
 359:Drivers/CMSIS/Include/cmsis_gcc.h ****  * For thumb1, use low register (r0-r7), specified by constraint "l"
 360:Drivers/CMSIS/Include/cmsis_gcc.h ****  * Otherwise, use general registers, specified by constraint "r" */
 361:Drivers/CMSIS/Include/cmsis_gcc.h **** #if defined (__thumb__) && !defined (__thumb2__)
 362:Drivers/CMSIS/Include/cmsis_gcc.h **** #define __CMSIS_GCC_OUT_REG(r) "=l" (r)
 363:Drivers/CMSIS/Include/cmsis_gcc.h **** #define __CMSIS_GCC_USE_REG(r) "l" (r)
 364:Drivers/CMSIS/Include/cmsis_gcc.h **** #else
 365:Drivers/CMSIS/Include/cmsis_gcc.h **** #define __CMSIS_GCC_OUT_REG(r) "=r" (r)
 366:Drivers/CMSIS/Include/cmsis_gcc.h **** #define __CMSIS_GCC_USE_REG(r) "r" (r)
 367:Drivers/CMSIS/Include/cmsis_gcc.h **** #endif
 368:Drivers/CMSIS/Include/cmsis_gcc.h **** 
 369:Drivers/CMSIS/Include/cmsis_gcc.h **** /**
 370:Drivers/CMSIS/Include/cmsis_gcc.h ****   \brief   No Operation
 371:Drivers/CMSIS/Include/cmsis_gcc.h ****   \details No Operation does nothing. This instruction can be used for code alignment purposes.
 372:Drivers/CMSIS/Include/cmsis_gcc.h ****  */
ARM GAS  /tmp/cctwGTwd.s 			page 27


 373:Drivers/CMSIS/Include/cmsis_gcc.h **** __attribute__((always_inline)) __STATIC_INLINE void __NOP(void)
 374:Drivers/CMSIS/Include/cmsis_gcc.h **** {
 375:Drivers/CMSIS/Include/cmsis_gcc.h ****   __ASM volatile ("nop");
 376:Drivers/CMSIS/Include/cmsis_gcc.h **** }
 377:Drivers/CMSIS/Include/cmsis_gcc.h **** 
 378:Drivers/CMSIS/Include/cmsis_gcc.h **** 
 379:Drivers/CMSIS/Include/cmsis_gcc.h **** /**
 380:Drivers/CMSIS/Include/cmsis_gcc.h ****   \brief   Wait For Interrupt
 381:Drivers/CMSIS/Include/cmsis_gcc.h ****   \details Wait For Interrupt is a hint instruction that suspends execution until one of a number o
 382:Drivers/CMSIS/Include/cmsis_gcc.h ****  */
 383:Drivers/CMSIS/Include/cmsis_gcc.h **** __attribute__((always_inline)) __STATIC_INLINE void __WFI(void)
 384:Drivers/CMSIS/Include/cmsis_gcc.h **** {
 385:Drivers/CMSIS/Include/cmsis_gcc.h ****   __ASM volatile ("wfi");
 386:Drivers/CMSIS/Include/cmsis_gcc.h **** }
 387:Drivers/CMSIS/Include/cmsis_gcc.h **** 
 388:Drivers/CMSIS/Include/cmsis_gcc.h **** 
 389:Drivers/CMSIS/Include/cmsis_gcc.h **** /**
 390:Drivers/CMSIS/Include/cmsis_gcc.h ****   \brief   Wait For Event
 391:Drivers/CMSIS/Include/cmsis_gcc.h ****   \details Wait For Event is a hint instruction that permits the processor to enter
 392:Drivers/CMSIS/Include/cmsis_gcc.h ****     a low-power state until one of a number of events occurs.
 393:Drivers/CMSIS/Include/cmsis_gcc.h ****  */
 394:Drivers/CMSIS/Include/cmsis_gcc.h **** __attribute__((always_inline)) __STATIC_INLINE void __WFE(void)
 395:Drivers/CMSIS/Include/cmsis_gcc.h **** {
 396:Drivers/CMSIS/Include/cmsis_gcc.h ****   __ASM volatile ("wfe");
 397:Drivers/CMSIS/Include/cmsis_gcc.h **** }
 398:Drivers/CMSIS/Include/cmsis_gcc.h **** 
 399:Drivers/CMSIS/Include/cmsis_gcc.h **** 
 400:Drivers/CMSIS/Include/cmsis_gcc.h **** /**
 401:Drivers/CMSIS/Include/cmsis_gcc.h ****   \brief   Send Event
 402:Drivers/CMSIS/Include/cmsis_gcc.h ****   \details Send Event is a hint instruction. It causes an event to be signaled to the CPU.
 403:Drivers/CMSIS/Include/cmsis_gcc.h ****  */
 404:Drivers/CMSIS/Include/cmsis_gcc.h **** __attribute__((always_inline)) __STATIC_INLINE void __SEV(void)
 405:Drivers/CMSIS/Include/cmsis_gcc.h **** {
 406:Drivers/CMSIS/Include/cmsis_gcc.h ****   __ASM volatile ("sev");
 407:Drivers/CMSIS/Include/cmsis_gcc.h **** }
 408:Drivers/CMSIS/Include/cmsis_gcc.h **** 
 409:Drivers/CMSIS/Include/cmsis_gcc.h **** 
 410:Drivers/CMSIS/Include/cmsis_gcc.h **** /**
 411:Drivers/CMSIS/Include/cmsis_gcc.h ****   \brief   Instruction Synchronization Barrier
 412:Drivers/CMSIS/Include/cmsis_gcc.h ****   \details Instruction Synchronization Barrier flushes the pipeline in the processor,
 413:Drivers/CMSIS/Include/cmsis_gcc.h ****            so that all instructions following the ISB are fetched from cache or memory,
 414:Drivers/CMSIS/Include/cmsis_gcc.h ****            after the instruction has been completed.
 415:Drivers/CMSIS/Include/cmsis_gcc.h ****  */
 416:Drivers/CMSIS/Include/cmsis_gcc.h **** __attribute__((always_inline)) __STATIC_INLINE void __ISB(void)
 417:Drivers/CMSIS/Include/cmsis_gcc.h **** {
 418:Drivers/CMSIS/Include/cmsis_gcc.h ****   __ASM volatile ("isb 0xF":::"memory");
 419:Drivers/CMSIS/Include/cmsis_gcc.h **** }
 420:Drivers/CMSIS/Include/cmsis_gcc.h **** 
 421:Drivers/CMSIS/Include/cmsis_gcc.h **** 
 422:Drivers/CMSIS/Include/cmsis_gcc.h **** /**
 423:Drivers/CMSIS/Include/cmsis_gcc.h ****   \brief   Data Synchronization Barrier
 424:Drivers/CMSIS/Include/cmsis_gcc.h ****   \details Acts as a special kind of Data Memory Barrier.
 425:Drivers/CMSIS/Include/cmsis_gcc.h ****            It completes when all explicit memory accesses before this instruction complete.
 426:Drivers/CMSIS/Include/cmsis_gcc.h ****  */
 427:Drivers/CMSIS/Include/cmsis_gcc.h **** __attribute__((always_inline)) __STATIC_INLINE void __DSB(void)
 428:Drivers/CMSIS/Include/cmsis_gcc.h **** {
 429:Drivers/CMSIS/Include/cmsis_gcc.h ****   __ASM volatile ("dsb 0xF":::"memory");
ARM GAS  /tmp/cctwGTwd.s 			page 28


 430:Drivers/CMSIS/Include/cmsis_gcc.h **** }
 431:Drivers/CMSIS/Include/cmsis_gcc.h **** 
 432:Drivers/CMSIS/Include/cmsis_gcc.h **** 
 433:Drivers/CMSIS/Include/cmsis_gcc.h **** /**
 434:Drivers/CMSIS/Include/cmsis_gcc.h ****   \brief   Data Memory Barrier
 435:Drivers/CMSIS/Include/cmsis_gcc.h ****   \details Ensures the apparent order of the explicit memory operations before
 436:Drivers/CMSIS/Include/cmsis_gcc.h ****            and after the instruction, without ensuring their completion.
 437:Drivers/CMSIS/Include/cmsis_gcc.h ****  */
 438:Drivers/CMSIS/Include/cmsis_gcc.h **** __attribute__((always_inline)) __STATIC_INLINE void __DMB(void)
 439:Drivers/CMSIS/Include/cmsis_gcc.h **** {
 440:Drivers/CMSIS/Include/cmsis_gcc.h ****   __ASM volatile ("dmb 0xF":::"memory");
 441:Drivers/CMSIS/Include/cmsis_gcc.h **** }
 442:Drivers/CMSIS/Include/cmsis_gcc.h **** 
 443:Drivers/CMSIS/Include/cmsis_gcc.h **** 
 444:Drivers/CMSIS/Include/cmsis_gcc.h **** /**
 445:Drivers/CMSIS/Include/cmsis_gcc.h ****   \brief   Reverse byte order (32 bit)
 446:Drivers/CMSIS/Include/cmsis_gcc.h ****   \details Reverses the byte order in integer value.
 447:Drivers/CMSIS/Include/cmsis_gcc.h ****   \param [in]    value  Value to reverse
 448:Drivers/CMSIS/Include/cmsis_gcc.h ****   \return               Reversed value
 449:Drivers/CMSIS/Include/cmsis_gcc.h ****  */
 450:Drivers/CMSIS/Include/cmsis_gcc.h **** __attribute__((always_inline)) __STATIC_INLINE uint32_t __REV(uint32_t value)
 451:Drivers/CMSIS/Include/cmsis_gcc.h **** {
 452:Drivers/CMSIS/Include/cmsis_gcc.h **** #if (__GNUC__ > 4) || (__GNUC__ == 4 && __GNUC_MINOR__ >= 5)
 453:Drivers/CMSIS/Include/cmsis_gcc.h ****   return __builtin_bswap32(value);
 454:Drivers/CMSIS/Include/cmsis_gcc.h **** #else
 455:Drivers/CMSIS/Include/cmsis_gcc.h ****   uint32_t result;
 456:Drivers/CMSIS/Include/cmsis_gcc.h **** 
 457:Drivers/CMSIS/Include/cmsis_gcc.h ****   __ASM volatile ("rev %0, %1" : __CMSIS_GCC_OUT_REG (result) : __CMSIS_GCC_USE_REG (value) );
 458:Drivers/CMSIS/Include/cmsis_gcc.h ****   return(result);
 459:Drivers/CMSIS/Include/cmsis_gcc.h **** #endif
 460:Drivers/CMSIS/Include/cmsis_gcc.h **** }
 461:Drivers/CMSIS/Include/cmsis_gcc.h **** 
 462:Drivers/CMSIS/Include/cmsis_gcc.h **** 
 463:Drivers/CMSIS/Include/cmsis_gcc.h **** /**
 464:Drivers/CMSIS/Include/cmsis_gcc.h ****   \brief   Reverse byte order (16 bit)
 465:Drivers/CMSIS/Include/cmsis_gcc.h ****   \details Reverses the byte order in two unsigned short values.
 466:Drivers/CMSIS/Include/cmsis_gcc.h ****   \param [in]    value  Value to reverse
 467:Drivers/CMSIS/Include/cmsis_gcc.h ****   \return               Reversed value
 468:Drivers/CMSIS/Include/cmsis_gcc.h ****  */
 469:Drivers/CMSIS/Include/cmsis_gcc.h **** __attribute__((always_inline)) __STATIC_INLINE uint32_t __REV16(uint32_t value)
 470:Drivers/CMSIS/Include/cmsis_gcc.h **** {
 471:Drivers/CMSIS/Include/cmsis_gcc.h ****   uint32_t result;
 472:Drivers/CMSIS/Include/cmsis_gcc.h **** 
 473:Drivers/CMSIS/Include/cmsis_gcc.h ****   __ASM volatile ("rev16 %0, %1" : __CMSIS_GCC_OUT_REG (result) : __CMSIS_GCC_USE_REG (value) );
 474:Drivers/CMSIS/Include/cmsis_gcc.h ****   return(result);
 475:Drivers/CMSIS/Include/cmsis_gcc.h **** }
 476:Drivers/CMSIS/Include/cmsis_gcc.h **** 
 477:Drivers/CMSIS/Include/cmsis_gcc.h **** 
 478:Drivers/CMSIS/Include/cmsis_gcc.h **** /**
 479:Drivers/CMSIS/Include/cmsis_gcc.h ****   \brief   Reverse byte order in signed short value
 480:Drivers/CMSIS/Include/cmsis_gcc.h ****   \details Reverses the byte order in a signed short value with sign extension to integer.
 481:Drivers/CMSIS/Include/cmsis_gcc.h ****   \param [in]    value  Value to reverse
 482:Drivers/CMSIS/Include/cmsis_gcc.h ****   \return               Reversed value
 483:Drivers/CMSIS/Include/cmsis_gcc.h ****  */
 484:Drivers/CMSIS/Include/cmsis_gcc.h **** __attribute__((always_inline)) __STATIC_INLINE int32_t __REVSH(int32_t value)
 485:Drivers/CMSIS/Include/cmsis_gcc.h **** {
 486:Drivers/CMSIS/Include/cmsis_gcc.h **** #if (__GNUC__ > 4) || (__GNUC__ == 4 && __GNUC_MINOR__ >= 8)
ARM GAS  /tmp/cctwGTwd.s 			page 29


 487:Drivers/CMSIS/Include/cmsis_gcc.h ****   return (short)__builtin_bswap16(value);
 488:Drivers/CMSIS/Include/cmsis_gcc.h **** #else
 489:Drivers/CMSIS/Include/cmsis_gcc.h ****   int32_t result;
 490:Drivers/CMSIS/Include/cmsis_gcc.h **** 
 491:Drivers/CMSIS/Include/cmsis_gcc.h ****   __ASM volatile ("revsh %0, %1" : __CMSIS_GCC_OUT_REG (result) : __CMSIS_GCC_USE_REG (value) );
 492:Drivers/CMSIS/Include/cmsis_gcc.h ****   return(result);
 493:Drivers/CMSIS/Include/cmsis_gcc.h **** #endif
 494:Drivers/CMSIS/Include/cmsis_gcc.h **** }
 495:Drivers/CMSIS/Include/cmsis_gcc.h **** 
 496:Drivers/CMSIS/Include/cmsis_gcc.h **** 
 497:Drivers/CMSIS/Include/cmsis_gcc.h **** /**
 498:Drivers/CMSIS/Include/cmsis_gcc.h ****   \brief   Rotate Right in unsigned value (32 bit)
 499:Drivers/CMSIS/Include/cmsis_gcc.h ****   \details Rotate Right (immediate) provides the value of the contents of a register rotated by a v
 500:Drivers/CMSIS/Include/cmsis_gcc.h ****   \param [in]    value  Value to rotate
 501:Drivers/CMSIS/Include/cmsis_gcc.h ****   \param [in]    value  Number of Bits to rotate
 502:Drivers/CMSIS/Include/cmsis_gcc.h ****   \return               Rotated value
 503:Drivers/CMSIS/Include/cmsis_gcc.h ****  */
 504:Drivers/CMSIS/Include/cmsis_gcc.h **** __attribute__((always_inline)) __STATIC_INLINE uint32_t __ROR(uint32_t op1, uint32_t op2)
 505:Drivers/CMSIS/Include/cmsis_gcc.h **** {
 506:Drivers/CMSIS/Include/cmsis_gcc.h ****   return (op1 >> op2) | (op1 << (32U - op2));
 507:Drivers/CMSIS/Include/cmsis_gcc.h **** }
 508:Drivers/CMSIS/Include/cmsis_gcc.h **** 
 509:Drivers/CMSIS/Include/cmsis_gcc.h **** 
 510:Drivers/CMSIS/Include/cmsis_gcc.h **** /**
 511:Drivers/CMSIS/Include/cmsis_gcc.h ****   \brief   Breakpoint
 512:Drivers/CMSIS/Include/cmsis_gcc.h ****   \details Causes the processor to enter Debug state.
 513:Drivers/CMSIS/Include/cmsis_gcc.h ****            Debug tools can use this to investigate system state when the instruction at a particula
 514:Drivers/CMSIS/Include/cmsis_gcc.h ****   \param [in]    value  is ignored by the processor.
 515:Drivers/CMSIS/Include/cmsis_gcc.h ****                  If required, a debugger can use it to store additional information about the break
 516:Drivers/CMSIS/Include/cmsis_gcc.h ****  */
 517:Drivers/CMSIS/Include/cmsis_gcc.h **** #define __BKPT(value)                       __ASM volatile ("bkpt "#value)
 518:Drivers/CMSIS/Include/cmsis_gcc.h **** 
 519:Drivers/CMSIS/Include/cmsis_gcc.h **** 
 520:Drivers/CMSIS/Include/cmsis_gcc.h **** /**
 521:Drivers/CMSIS/Include/cmsis_gcc.h ****   \brief   Reverse bit order of value
 522:Drivers/CMSIS/Include/cmsis_gcc.h ****   \details Reverses the bit order of the given value.
 523:Drivers/CMSIS/Include/cmsis_gcc.h ****   \param [in]    value  Value to reverse
 524:Drivers/CMSIS/Include/cmsis_gcc.h ****   \return               Reversed value
 525:Drivers/CMSIS/Include/cmsis_gcc.h ****  */
 526:Drivers/CMSIS/Include/cmsis_gcc.h **** __attribute__((always_inline)) __STATIC_INLINE uint32_t __RBIT(uint32_t value)
 527:Drivers/CMSIS/Include/cmsis_gcc.h **** {
 528:Drivers/CMSIS/Include/cmsis_gcc.h ****   uint32_t result;
 529:Drivers/CMSIS/Include/cmsis_gcc.h **** 
 530:Drivers/CMSIS/Include/cmsis_gcc.h **** #if       (__CORTEX_M >= 0x03U) || (__CORTEX_SC >= 300U)
 531:Drivers/CMSIS/Include/cmsis_gcc.h ****    __ASM volatile ("rbit %0, %1" : "=r" (result) : "r" (value) );
 665              		.loc 2 531 0
 666 041c D7F8F430 		ldr	r3, [r7, #244]
 667              		.syntax unified
 668              	@ 531 "Drivers/CMSIS/Include/cmsis_gcc.h" 1
 669 0420 93FAA3F3 		rbit r3, r3
 670              	@ 0 "" 2
 671              		.thumb
 672              		.syntax unified
 673 0424 FB66     		str	r3, [r7, #108]
 532:Drivers/CMSIS/Include/cmsis_gcc.h **** #else
 533:Drivers/CMSIS/Include/cmsis_gcc.h ****   int32_t s = 4 /*sizeof(v)*/ * 8 - 1; /* extra shift needed at end */
 534:Drivers/CMSIS/Include/cmsis_gcc.h **** 
ARM GAS  /tmp/cctwGTwd.s 			page 30


 535:Drivers/CMSIS/Include/cmsis_gcc.h ****   result = value;                      /* r will be reversed bits of v; first get LSB of v */
 536:Drivers/CMSIS/Include/cmsis_gcc.h ****   for (value >>= 1U; value; value >>= 1U)
 537:Drivers/CMSIS/Include/cmsis_gcc.h ****   {
 538:Drivers/CMSIS/Include/cmsis_gcc.h ****     result <<= 1U;
 539:Drivers/CMSIS/Include/cmsis_gcc.h ****     result |= value & 1U;
 540:Drivers/CMSIS/Include/cmsis_gcc.h ****     s--;
 541:Drivers/CMSIS/Include/cmsis_gcc.h ****   }
 542:Drivers/CMSIS/Include/cmsis_gcc.h ****   result <<= s;                        /* shift when v's highest bits are zero */
 543:Drivers/CMSIS/Include/cmsis_gcc.h **** #endif
 544:Drivers/CMSIS/Include/cmsis_gcc.h ****   return(result);
 674              		.loc 2 544 0
 675 0426 FB6E     		ldr	r3, [r7, #108]
 676              	.LBE122:
 677              	.LBE121:
 678              		.loc 1 445 0
 679 0428 B3FA83F3 		clz	r3, r3
 680 042c 22FA03F3 		lsr	r3, r2, r3
 681 0430 0133     		adds	r3, r3, #1
 682 0432 5B00     		lsls	r3, r3, #1
 683 0434 C7F80C31 		str	r3, [r7, #268]
 446:Drivers/STM32F4xx_HAL_Driver/Src/stm32f4xx_hal_rcc_ex.c ****       plli2sq = ((RCC->PLLI2SCFGR & RCC_PLLI2SCFGR_PLLI2SQ) >> POSITION_VAL(RCC_PLLI2SCFGR_PLLI2SQ)
 684              		.loc 1 446 0
 685 0438 B64B     		ldr	r3, .L83
 686 043a D3F88430 		ldr	r3, [r3, #132]
 687 043e 03F07062 		and	r2, r3, #251658240
 688 0442 4FF07063 		mov	r3, #251658240
 689 0446 C7F8F030 		str	r3, [r7, #240]
 690              	.LBB123:
 691              	.LBB124:
 531:Drivers/CMSIS/Include/cmsis_gcc.h **** #else
 692              		.loc 2 531 0
 693 044a D7F8F030 		ldr	r3, [r7, #240]
 694              		.syntax unified
 695              	@ 531 "Drivers/CMSIS/Include/cmsis_gcc.h" 1
 696 044e 93FAA3F3 		rbit r3, r3
 697              	@ 0 "" 2
 698              		.thumb
 699              		.syntax unified
 700 0452 3B67     		str	r3, [r7, #112]
 701              		.loc 2 544 0
 702 0454 3B6F     		ldr	r3, [r7, #112]
 703              	.LBE124:
 704              	.LBE123:
 705              		.loc 1 446 0
 706 0456 B3FA83F3 		clz	r3, r3
 707 045a 22FA03F3 		lsr	r3, r2, r3
 708 045e C7F80831 		str	r3, [r7, #264]
 447:Drivers/STM32F4xx_HAL_Driver/Src/stm32f4xx_hal_rcc_ex.c ****       /* Configure the PLLI2S division factors */
 448:Drivers/STM32F4xx_HAL_Driver/Src/stm32f4xx_hal_rcc_ex.c ****       /* PLLI2S_VCO = f(VCO clock) = f(PLLI2S clock input) * (PLLI2SN/PLLI2SM) */
 449:Drivers/STM32F4xx_HAL_Driver/Src/stm32f4xx_hal_rcc_ex.c ****       /* I2SCLK = f(PLLI2S clock output) = f(VCO clock) / PLLI2SR */
 450:Drivers/STM32F4xx_HAL_Driver/Src/stm32f4xx_hal_rcc_ex.c ****       __HAL_RCC_PLLI2S_CONFIG(PeriphClkInit->PLLI2S.PLLI2SM, PeriphClkInit->PLLI2S.PLLI2SN , plli2s
 709              		.loc 1 450 0
 710 0462 AC48     		ldr	r0, .L83
 711 0464 3B1D     		adds	r3, r7, #4
 712 0466 1B68     		ldr	r3, [r3]
 713 0468 5A68     		ldr	r2, [r3, #4]
 714 046a 3B1D     		adds	r3, r7, #4
ARM GAS  /tmp/cctwGTwd.s 			page 31


 715 046c 1B68     		ldr	r3, [r3]
 716 046e 9968     		ldr	r1, [r3, #8]
 717 0470 47F6C073 		movw	r3, #32704
 718 0474 C7F8EC30 		str	r3, [r7, #236]
 719              	.LBB125:
 720              	.LBB126:
 531:Drivers/CMSIS/Include/cmsis_gcc.h **** #else
 721              		.loc 2 531 0
 722 0478 D7F8EC30 		ldr	r3, [r7, #236]
 723              		.syntax unified
 724              	@ 531 "Drivers/CMSIS/Include/cmsis_gcc.h" 1
 725 047c 93FAA3F3 		rbit r3, r3
 726              	@ 0 "" 2
 727              		.thumb
 728              		.syntax unified
 729 0480 7B67     		str	r3, [r7, #116]
 730              		.loc 2 544 0
 731 0482 7B6F     		ldr	r3, [r7, #116]
 732              	.LBE126:
 733              	.LBE125:
 734              		.loc 1 450 0
 735 0484 B3FA83F3 		clz	r3, r3
 736 0488 01FA03F3 		lsl	r3, r1, r3
 737 048c 1A43     		orrs	r2, r2, r3
 738 048e D7F80C31 		ldr	r3, [r7, #268]
 739 0492 5B08     		lsrs	r3, r3, #1
 740 0494 591E     		subs	r1, r3, #1
 741 0496 4FF44033 		mov	r3, #196608
 742 049a C7F8E830 		str	r3, [r7, #232]
 743              	.LBB127:
 744              	.LBB128:
 531:Drivers/CMSIS/Include/cmsis_gcc.h **** #else
 745              		.loc 2 531 0
 746 049e D7F8E830 		ldr	r3, [r7, #232]
 747              		.syntax unified
 748              	@ 531 "Drivers/CMSIS/Include/cmsis_gcc.h" 1
 749 04a2 93FAA3F3 		rbit r3, r3
 750              	@ 0 "" 2
 751              		.thumb
 752              		.syntax unified
 753 04a6 BB67     		str	r3, [r7, #120]
 754              		.loc 2 544 0
 755 04a8 BB6F     		ldr	r3, [r7, #120]
 756              	.LBE128:
 757              	.LBE127:
 758              		.loc 1 450 0
 759 04aa B3FA83F3 		clz	r3, r3
 760 04ae 01FA03F3 		lsl	r3, r1, r3
 761 04b2 1A43     		orrs	r2, r2, r3
 762 04b4 4FF07063 		mov	r3, #251658240
 763 04b8 C7F8E430 		str	r3, [r7, #228]
 764              	.LBB129:
 765              	.LBB130:
 531:Drivers/CMSIS/Include/cmsis_gcc.h **** #else
 766              		.loc 2 531 0
 767 04bc D7F8E430 		ldr	r3, [r7, #228]
 768              		.syntax unified
ARM GAS  /tmp/cctwGTwd.s 			page 32


 769              	@ 531 "Drivers/CMSIS/Include/cmsis_gcc.h" 1
 770 04c0 93FAA3F3 		rbit r3, r3
 771              	@ 0 "" 2
 772              		.thumb
 773              		.syntax unified
 774 04c4 FB67     		str	r3, [r7, #124]
 775              		.loc 2 544 0
 776 04c6 FB6F     		ldr	r3, [r7, #124]
 777              	.LBE130:
 778              	.LBE129:
 779              		.loc 1 450 0
 780 04c8 B3FA83F3 		clz	r3, r3
 781 04cc D7F80811 		ldr	r1, [r7, #264]
 782 04d0 01FA03F3 		lsl	r3, r1, r3
 783 04d4 1A43     		orrs	r2, r2, r3
 784 04d6 3B1D     		adds	r3, r7, #4
 785 04d8 1B68     		ldr	r3, [r3]
 786 04da 5969     		ldr	r1, [r3, #20]
 787 04dc 4FF0E043 		mov	r3, #1879048192
 788 04e0 C7F88430 		str	r3, [r7, #132]
 789              	.LBB131:
 790              	.LBB132:
 531:Drivers/CMSIS/Include/cmsis_gcc.h **** #else
 791              		.loc 2 531 0
 792 04e4 D7F88430 		ldr	r3, [r7, #132]
 793              		.syntax unified
 794              	@ 531 "Drivers/CMSIS/Include/cmsis_gcc.h" 1
 795 04e8 93FAA3F3 		rbit r3, r3
 796              	@ 0 "" 2
 797              		.thumb
 798              		.syntax unified
 799 04ec C7F88030 		str	r3, [r7, #128]
 800              		.loc 2 544 0
 801 04f0 D7F88030 		ldr	r3, [r7, #128]
 802              	.LBE132:
 803              	.LBE131:
 804              		.loc 1 450 0
 805 04f4 B3FA83F3 		clz	r3, r3
 806 04f8 01FA03F3 		lsl	r3, r1, r3
 807 04fc 1343     		orrs	r3, r3, r2
 808 04fe C0F88430 		str	r3, [r0, #132]
 809              	.L32:
 451:Drivers/STM32F4xx_HAL_Driver/Src/stm32f4xx_hal_rcc_ex.c ****     }
 452:Drivers/STM32F4xx_HAL_Driver/Src/stm32f4xx_hal_rcc_ex.c ****   
 453:Drivers/STM32F4xx_HAL_Driver/Src/stm32f4xx_hal_rcc_ex.c ****     /*------- In Case of PLLI2S is selected as source clock for SAI ----------*/  
 454:Drivers/STM32F4xx_HAL_Driver/Src/stm32f4xx_hal_rcc_ex.c ****     if(((((PeriphClkInit->PeriphClockSelection) & RCC_PERIPHCLK_SAI1) == RCC_PERIPHCLK_SAI1) && (Pe
 810              		.loc 1 454 0
 811 0502 3B1D     		adds	r3, r7, #4
 812 0504 1B68     		ldr	r3, [r3]
 813 0506 1B68     		ldr	r3, [r3]
 814 0508 03F00403 		and	r3, r3, #4
 815 050c 002B     		cmp	r3, #0
 816 050e 05D0     		beq	.L39
 817              		.loc 1 454 0 is_stmt 0 discriminator 1
 818 0510 3B1D     		adds	r3, r7, #4
 819 0512 1B68     		ldr	r3, [r3]
 820 0514 1B6B     		ldr	r3, [r3, #48]
ARM GAS  /tmp/cctwGTwd.s 			page 33


 821 0516 B3F5801F 		cmp	r3, #1048576
 822 051a 0ED0     		beq	.L40
 823              	.L39:
 455:Drivers/STM32F4xx_HAL_Driver/Src/stm32f4xx_hal_rcc_ex.c ****        ((((PeriphClkInit->PeriphClockSelection) & RCC_PERIPHCLK_SAI2) == RCC_PERIPHCLK_SAI2) && (Pe
 824              		.loc 1 455 0 is_stmt 1 discriminator 3
 825 051c 3B1D     		adds	r3, r7, #4
 826 051e 1B68     		ldr	r3, [r3]
 827 0520 1B68     		ldr	r3, [r3]
 828 0522 03F00803 		and	r3, r3, #8
 454:Drivers/STM32F4xx_HAL_Driver/Src/stm32f4xx_hal_rcc_ex.c ****        ((((PeriphClkInit->PeriphClockSelection) & RCC_PERIPHCLK_SAI2) == RCC_PERIPHCLK_SAI2) && (Pe
 829              		.loc 1 454 0 discriminator 3
 830 0526 002B     		cmp	r3, #0
 831 0528 00F08E80 		beq	.L41
 832              		.loc 1 455 0
 833 052c 3B1D     		adds	r3, r7, #4
 834 052e 1B68     		ldr	r3, [r3]
 835 0530 5B6B     		ldr	r3, [r3, #52]
 836 0532 B3F5800F 		cmp	r3, #4194304
 837 0536 40F08780 		bne	.L41
 838              	.L40:
 456:Drivers/STM32F4xx_HAL_Driver/Src/stm32f4xx_hal_rcc_ex.c ****     {
 457:Drivers/STM32F4xx_HAL_Driver/Src/stm32f4xx_hal_rcc_ex.c ****       /* Check for PLLI2S Parameters */
 458:Drivers/STM32F4xx_HAL_Driver/Src/stm32f4xx_hal_rcc_ex.c ****       assert_param(IS_RCC_PLLI2SQ_VALUE(PeriphClkInit->PLLI2S.PLLI2SQ));
 459:Drivers/STM32F4xx_HAL_Driver/Src/stm32f4xx_hal_rcc_ex.c ****       /* Check for PLLI2S/DIVQ parameters */
 460:Drivers/STM32F4xx_HAL_Driver/Src/stm32f4xx_hal_rcc_ex.c ****       assert_param(IS_RCC_PLLI2S_DIVQ_VALUE(PeriphClkInit->PLLI2SDivQ));
 461:Drivers/STM32F4xx_HAL_Driver/Src/stm32f4xx_hal_rcc_ex.c ****             
 462:Drivers/STM32F4xx_HAL_Driver/Src/stm32f4xx_hal_rcc_ex.c ****       /* Read PLLI2SP/PLLI2SR value from PLLI2SCFGR register (this value is not needed for SAI conf
 463:Drivers/STM32F4xx_HAL_Driver/Src/stm32f4xx_hal_rcc_ex.c ****       plli2sp = ((((RCC->PLLI2SCFGR & RCC_PLLI2SCFGR_PLLI2SP) >> POSITION_VAL(RCC_PLLI2SCFGR_PLLI2S
 839              		.loc 1 463 0
 840 053a 764B     		ldr	r3, .L83
 841 053c D3F88430 		ldr	r3, [r3, #132]
 842 0540 03F44032 		and	r2, r3, #196608
 843 0544 4FF44033 		mov	r3, #196608
 844 0548 C7F8DC30 		str	r3, [r7, #220]
 845              	.LBB133:
 846              	.LBB134:
 531:Drivers/CMSIS/Include/cmsis_gcc.h **** #else
 847              		.loc 2 531 0
 848 054c D7F8DC30 		ldr	r3, [r7, #220]
 849              		.syntax unified
 850              	@ 531 "Drivers/CMSIS/Include/cmsis_gcc.h" 1
 851 0550 93FAA3F3 		rbit r3, r3
 852              	@ 0 "" 2
 853              		.thumb
 854              		.syntax unified
 855 0554 7B65     		str	r3, [r7, #84]
 856              		.loc 2 544 0
 857 0556 7B6D     		ldr	r3, [r7, #84]
 858              	.LBE134:
 859              	.LBE133:
 860              		.loc 1 463 0
 861 0558 B3FA83F3 		clz	r3, r3
 862 055c 22FA03F3 		lsr	r3, r2, r3
 863 0560 0133     		adds	r3, r3, #1
 864 0562 5B00     		lsls	r3, r3, #1
 865 0564 C7F80C31 		str	r3, [r7, #268]
 464:Drivers/STM32F4xx_HAL_Driver/Src/stm32f4xx_hal_rcc_ex.c ****       plli2sr = ((RCC->PLLI2SCFGR & RCC_PLLI2SCFGR_PLLI2SR) >> POSITION_VAL(RCC_PLLI2SCFGR_PLLI2SR)
ARM GAS  /tmp/cctwGTwd.s 			page 34


 866              		.loc 1 464 0
 867 0568 6A4B     		ldr	r3, .L83
 868 056a D3F88430 		ldr	r3, [r3, #132]
 869 056e 03F0E042 		and	r2, r3, #1879048192
 870 0572 4FF0E043 		mov	r3, #1879048192
 871 0576 C7F8D830 		str	r3, [r7, #216]
 872              	.LBB135:
 873              	.LBB136:
 531:Drivers/CMSIS/Include/cmsis_gcc.h **** #else
 874              		.loc 2 531 0
 875 057a D7F8D830 		ldr	r3, [r7, #216]
 876              		.syntax unified
 877              	@ 531 "Drivers/CMSIS/Include/cmsis_gcc.h" 1
 878 057e 93FAA3F3 		rbit r3, r3
 879              	@ 0 "" 2
 880              		.thumb
 881              		.syntax unified
 882 0582 BB65     		str	r3, [r7, #88]
 883              		.loc 2 544 0
 884 0584 BB6D     		ldr	r3, [r7, #88]
 885              	.LBE136:
 886              	.LBE135:
 887              		.loc 1 464 0
 888 0586 B3FA83F3 		clz	r3, r3
 889 058a 22FA03F3 		lsr	r3, r2, r3
 890 058e C7F80431 		str	r3, [r7, #260]
 465:Drivers/STM32F4xx_HAL_Driver/Src/stm32f4xx_hal_rcc_ex.c ****       /* Configure the PLLI2S division factors */      
 466:Drivers/STM32F4xx_HAL_Driver/Src/stm32f4xx_hal_rcc_ex.c ****       /* PLLI2S_VCO Input  = PLL_SOURCE/PLLI2SM */
 467:Drivers/STM32F4xx_HAL_Driver/Src/stm32f4xx_hal_rcc_ex.c ****       /* PLLI2S_VCO Output = PLLI2S_VCO Input * PLLI2SN */
 468:Drivers/STM32F4xx_HAL_Driver/Src/stm32f4xx_hal_rcc_ex.c ****       /* SAI_CLK(first level) = PLLI2S_VCO Output/PLLI2SQ */
 469:Drivers/STM32F4xx_HAL_Driver/Src/stm32f4xx_hal_rcc_ex.c ****       __HAL_RCC_PLLI2S_CONFIG(PeriphClkInit->PLLI2S.PLLI2SM, PeriphClkInit->PLLI2S.PLLI2SN , plli2s
 891              		.loc 1 469 0
 892 0592 6048     		ldr	r0, .L83
 893 0594 3B1D     		adds	r3, r7, #4
 894 0596 1B68     		ldr	r3, [r3]
 895 0598 5A68     		ldr	r2, [r3, #4]
 896 059a 3B1D     		adds	r3, r7, #4
 897 059c 1B68     		ldr	r3, [r3]
 898 059e 9968     		ldr	r1, [r3, #8]
 899 05a0 47F6C073 		movw	r3, #32704
 900 05a4 C7F8D430 		str	r3, [r7, #212]
 901              	.LBB137:
 902              	.LBB138:
 531:Drivers/CMSIS/Include/cmsis_gcc.h **** #else
 903              		.loc 2 531 0
 904 05a8 D7F8D430 		ldr	r3, [r7, #212]
 905              		.syntax unified
 906              	@ 531 "Drivers/CMSIS/Include/cmsis_gcc.h" 1
 907 05ac 93FAA3F3 		rbit r3, r3
 908              	@ 0 "" 2
 909              		.thumb
 910              		.syntax unified
 911 05b0 FB65     		str	r3, [r7, #92]
 912              		.loc 2 544 0
 913 05b2 FB6D     		ldr	r3, [r7, #92]
 914              	.LBE138:
 915              	.LBE137:
ARM GAS  /tmp/cctwGTwd.s 			page 35


 916              		.loc 1 469 0
 917 05b4 B3FA83F3 		clz	r3, r3
 918 05b8 01FA03F3 		lsl	r3, r1, r3
 919 05bc 1A43     		orrs	r2, r2, r3
 920 05be D7F80C31 		ldr	r3, [r7, #268]
 921 05c2 5B08     		lsrs	r3, r3, #1
 922 05c4 591E     		subs	r1, r3, #1
 923 05c6 4FF44033 		mov	r3, #196608
 924 05ca C7F8D030 		str	r3, [r7, #208]
 925              	.LBB139:
 926              	.LBB140:
 531:Drivers/CMSIS/Include/cmsis_gcc.h **** #else
 927              		.loc 2 531 0
 928 05ce D7F8D030 		ldr	r3, [r7, #208]
 929              		.syntax unified
 930              	@ 531 "Drivers/CMSIS/Include/cmsis_gcc.h" 1
 931 05d2 93FAA3F3 		rbit r3, r3
 932              	@ 0 "" 2
 933              		.thumb
 934              		.syntax unified
 935 05d6 3B66     		str	r3, [r7, #96]
 936              		.loc 2 544 0
 937 05d8 3B6E     		ldr	r3, [r7, #96]
 938              	.LBE140:
 939              	.LBE139:
 940              		.loc 1 469 0
 941 05da B3FA83F3 		clz	r3, r3
 942 05de 01FA03F3 		lsl	r3, r1, r3
 943 05e2 1A43     		orrs	r2, r2, r3
 944 05e4 3B1D     		adds	r3, r7, #4
 945 05e6 1B68     		ldr	r3, [r3]
 946 05e8 1969     		ldr	r1, [r3, #16]
 947 05ea 4FF07063 		mov	r3, #251658240
 948 05ee C7F8CC30 		str	r3, [r7, #204]
 949              	.LBB141:
 950              	.LBB142:
 531:Drivers/CMSIS/Include/cmsis_gcc.h **** #else
 951              		.loc 2 531 0
 952 05f2 D7F8CC30 		ldr	r3, [r7, #204]
 953              		.syntax unified
 954              	@ 531 "Drivers/CMSIS/Include/cmsis_gcc.h" 1
 955 05f6 93FAA3F3 		rbit r3, r3
 956              	@ 0 "" 2
 957              		.thumb
 958              		.syntax unified
 959 05fa 7B66     		str	r3, [r7, #100]
 960              		.loc 2 544 0
 961 05fc 7B6E     		ldr	r3, [r7, #100]
 962              	.LBE142:
 963              	.LBE141:
 964              		.loc 1 469 0
 965 05fe B3FA83F3 		clz	r3, r3
 966 0602 01FA03F3 		lsl	r3, r1, r3
 967 0606 1A43     		orrs	r2, r2, r3
 968 0608 4FF0E043 		mov	r3, #1879048192
 969 060c C7F8F830 		str	r3, [r7, #248]
 970              	.LBB143:
ARM GAS  /tmp/cctwGTwd.s 			page 36


 971              	.LBB144:
 531:Drivers/CMSIS/Include/cmsis_gcc.h **** #else
 972              		.loc 2 531 0
 973 0610 D7F8F830 		ldr	r3, [r7, #248]
 974              		.syntax unified
 975              	@ 531 "Drivers/CMSIS/Include/cmsis_gcc.h" 1
 976 0614 93FAA3F3 		rbit r3, r3
 977              	@ 0 "" 2
 978              		.thumb
 979              		.syntax unified
 980 0618 BB66     		str	r3, [r7, #104]
 981              		.loc 2 544 0
 982 061a BB6E     		ldr	r3, [r7, #104]
 983              	.LBE144:
 984              	.LBE143:
 985              		.loc 1 469 0
 986 061c B3FA83F3 		clz	r3, r3
 987 0620 D7F80411 		ldr	r1, [r7, #260]
 988 0624 01FA03F3 		lsl	r3, r1, r3
 989 0628 1343     		orrs	r3, r3, r2
 990 062a C0F88430 		str	r3, [r0, #132]
 470:Drivers/STM32F4xx_HAL_Driver/Src/stm32f4xx_hal_rcc_ex.c ****    
 471:Drivers/STM32F4xx_HAL_Driver/Src/stm32f4xx_hal_rcc_ex.c ****       /* SAI_CLK_x = SAI_CLK(first level)/PLLI2SDIVQ */ 
 472:Drivers/STM32F4xx_HAL_Driver/Src/stm32f4xx_hal_rcc_ex.c ****       __HAL_RCC_PLLI2S_PLLSAICLKDIVQ_CONFIG(PeriphClkInit->PLLI2SDivQ);   
 991              		.loc 1 472 0
 992 062e 3949     		ldr	r1, .L83
 993 0630 384B     		ldr	r3, .L83
 994 0632 D3F88C30 		ldr	r3, [r3, #140]
 995 0636 23F01F02 		bic	r2, r3, #31
 996 063a 3B1D     		adds	r3, r7, #4
 997 063c 1B68     		ldr	r3, [r3]
 998 063e 9B6A     		ldr	r3, [r3, #40]
 999 0640 013B     		subs	r3, r3, #1
 1000 0642 1343     		orrs	r3, r3, r2
 1001 0644 C1F88C30 		str	r3, [r1, #140]
 1002              	.L41:
 473:Drivers/STM32F4xx_HAL_Driver/Src/stm32f4xx_hal_rcc_ex.c ****     }          
 474:Drivers/STM32F4xx_HAL_Driver/Src/stm32f4xx_hal_rcc_ex.c **** 
 475:Drivers/STM32F4xx_HAL_Driver/Src/stm32f4xx_hal_rcc_ex.c ****     /*------ In Case of PLLI2S is selected as source clock for SPDIFRX -------*/  
 476:Drivers/STM32F4xx_HAL_Driver/Src/stm32f4xx_hal_rcc_ex.c ****     if((((PeriphClkInit->PeriphClockSelection) & RCC_PERIPHCLK_SPDIFRX) == RCC_PERIPHCLK_SPDIFRX) &
 1003              		.loc 1 476 0
 1004 0648 3B1D     		adds	r3, r7, #4
 1005 064a 1B68     		ldr	r3, [r3]
 1006 064c 1B68     		ldr	r3, [r3]
 1007 064e 03F48063 		and	r3, r3, #1024
 1008 0652 002B     		cmp	r3, #0
 1009 0654 00F08480 		beq	.L48
 1010              		.loc 1 476 0 is_stmt 0 discriminator 1
 1011 0658 3B1D     		adds	r3, r7, #4
 1012 065a 1B68     		ldr	r3, [r3]
 1013 065c 1B6D     		ldr	r3, [r3, #80]
 1014 065e B3F1005F 		cmp	r3, #536870912
 1015 0662 7DD1     		bne	.L48
 477:Drivers/STM32F4xx_HAL_Driver/Src/stm32f4xx_hal_rcc_ex.c ****     {
 478:Drivers/STM32F4xx_HAL_Driver/Src/stm32f4xx_hal_rcc_ex.c ****       /* check for Parameters */
 479:Drivers/STM32F4xx_HAL_Driver/Src/stm32f4xx_hal_rcc_ex.c ****       assert_param(IS_RCC_PLLI2SP_VALUE(PeriphClkInit->PLLI2S.PLLI2SP));
 480:Drivers/STM32F4xx_HAL_Driver/Src/stm32f4xx_hal_rcc_ex.c ****       /* Read PLLI2SR value from PLLI2SCFGR register (this value is not need for SAI configuration)
ARM GAS  /tmp/cctwGTwd.s 			page 37


 481:Drivers/STM32F4xx_HAL_Driver/Src/stm32f4xx_hal_rcc_ex.c ****       plli2sq = ((((RCC->PLLI2SCFGR & RCC_PLLI2SCFGR_PLLI2SP) >> POSITION_VAL(RCC_PLLI2SCFGR_PLLI2S
 1016              		.loc 1 481 0 is_stmt 1
 1017 0664 2B4B     		ldr	r3, .L83
 1018 0666 D3F88430 		ldr	r3, [r3, #132]
 1019 066a 03F44032 		and	r2, r3, #196608
 1020 066e 4FF44033 		mov	r3, #196608
 1021 0672 C7F8C430 		str	r3, [r7, #196]
 1022              	.LBB145:
 1023              	.LBB146:
 531:Drivers/CMSIS/Include/cmsis_gcc.h **** #else
 1024              		.loc 2 531 0
 1025 0676 D7F8C430 		ldr	r3, [r7, #196]
 1026              		.syntax unified
 1027              	@ 531 "Drivers/CMSIS/Include/cmsis_gcc.h" 1
 1028 067a 93FAA3F3 		rbit r3, r3
 1029              	@ 0 "" 2
 1030              		.thumb
 1031              		.syntax unified
 1032 067e FB63     		str	r3, [r7, #60]
 1033              		.loc 2 544 0
 1034 0680 FB6B     		ldr	r3, [r7, #60]
 1035              	.LBE146:
 1036              	.LBE145:
 1037              		.loc 1 481 0
 1038 0682 B3FA83F3 		clz	r3, r3
 1039 0686 22FA03F3 		lsr	r3, r2, r3
 1040 068a 0133     		adds	r3, r3, #1
 1041 068c 5B00     		lsls	r3, r3, #1
 1042 068e C7F80831 		str	r3, [r7, #264]
 482:Drivers/STM32F4xx_HAL_Driver/Src/stm32f4xx_hal_rcc_ex.c ****       plli2sr = ((RCC->PLLI2SCFGR & RCC_PLLI2SCFGR_PLLI2SR) >> POSITION_VAL(RCC_PLLI2SCFGR_PLLI2SR)
 1043              		.loc 1 482 0
 1044 0692 204B     		ldr	r3, .L83
 1045 0694 D3F88430 		ldr	r3, [r3, #132]
 1046 0698 03F0E042 		and	r2, r3, #1879048192
 1047 069c 4FF0E043 		mov	r3, #1879048192
 1048 06a0 C7F8C030 		str	r3, [r7, #192]
 1049              	.LBB147:
 1050              	.LBB148:
 531:Drivers/CMSIS/Include/cmsis_gcc.h **** #else
 1051              		.loc 2 531 0
 1052 06a4 D7F8C030 		ldr	r3, [r7, #192]
 1053              		.syntax unified
 1054              	@ 531 "Drivers/CMSIS/Include/cmsis_gcc.h" 1
 1055 06a8 93FAA3F3 		rbit r3, r3
 1056              	@ 0 "" 2
 1057              		.thumb
 1058              		.syntax unified
 1059 06ac 3B64     		str	r3, [r7, #64]
 1060              		.loc 2 544 0
 1061 06ae 3B6C     		ldr	r3, [r7, #64]
 1062              	.LBE148:
 1063              	.LBE147:
 1064              		.loc 1 482 0
 1065 06b0 B3FA83F3 		clz	r3, r3
 1066 06b4 22FA03F3 		lsr	r3, r2, r3
 1067 06b8 C7F80431 		str	r3, [r7, #260]
 483:Drivers/STM32F4xx_HAL_Driver/Src/stm32f4xx_hal_rcc_ex.c ****       /* Configure the PLLI2S division factors */
ARM GAS  /tmp/cctwGTwd.s 			page 38


 484:Drivers/STM32F4xx_HAL_Driver/Src/stm32f4xx_hal_rcc_ex.c ****       /* PLLI2S_VCO = f(VCO clock) = f(PLLI2S clock input) * (PLLI2SN/PLLI2SM) */
 485:Drivers/STM32F4xx_HAL_Driver/Src/stm32f4xx_hal_rcc_ex.c ****       /* SPDIFRXCLK = f(PLLI2S clock output) = f(VCO clock) / PLLI2SP */
 486:Drivers/STM32F4xx_HAL_Driver/Src/stm32f4xx_hal_rcc_ex.c ****       __HAL_RCC_PLLI2S_CONFIG(PeriphClkInit->PLLI2S.PLLI2SM, PeriphClkInit->PLLI2S.PLLI2SN , Periph
 1068              		.loc 1 486 0
 1069 06bc 1548     		ldr	r0, .L83
 1070 06be 3B1D     		adds	r3, r7, #4
 1071 06c0 1B68     		ldr	r3, [r3]
 1072 06c2 5A68     		ldr	r2, [r3, #4]
 1073 06c4 3B1D     		adds	r3, r7, #4
 1074 06c6 1B68     		ldr	r3, [r3]
 1075 06c8 9968     		ldr	r1, [r3, #8]
 1076 06ca 47F6C073 		movw	r3, #32704
 1077 06ce C7F8BC30 		str	r3, [r7, #188]
 1078              	.LBB149:
 1079              	.LBB150:
 531:Drivers/CMSIS/Include/cmsis_gcc.h **** #else
 1080              		.loc 2 531 0
 1081 06d2 D7F8BC30 		ldr	r3, [r7, #188]
 1082              		.syntax unified
 1083              	@ 531 "Drivers/CMSIS/Include/cmsis_gcc.h" 1
 1084 06d6 93FAA3F3 		rbit r3, r3
 1085              	@ 0 "" 2
 1086              		.thumb
 1087              		.syntax unified
 1088 06da 7B64     		str	r3, [r7, #68]
 1089              		.loc 2 544 0
 1090 06dc 7B6C     		ldr	r3, [r7, #68]
 1091              	.LBE150:
 1092              	.LBE149:
 1093              		.loc 1 486 0
 1094 06de B3FA83F3 		clz	r3, r3
 1095 06e2 01FA03F3 		lsl	r3, r1, r3
 1096 06e6 1A43     		orrs	r2, r2, r3
 1097 06e8 3B1D     		adds	r3, r7, #4
 1098 06ea 1B68     		ldr	r3, [r3]
 1099 06ec DB68     		ldr	r3, [r3, #12]
 1100 06ee 5B08     		lsrs	r3, r3, #1
 1101 06f0 591E     		subs	r1, r3, #1
 1102 06f2 4FF44033 		mov	r3, #196608
 1103 06f6 C7F8B830 		str	r3, [r7, #184]
 1104              	.LBB151:
 1105              	.LBB152:
 531:Drivers/CMSIS/Include/cmsis_gcc.h **** #else
 1106              		.loc 2 531 0
 1107 06fa D7F8B830 		ldr	r3, [r7, #184]
 1108              		.syntax unified
 1109              	@ 531 "Drivers/CMSIS/Include/cmsis_gcc.h" 1
 1110 06fe 93FAA3F3 		rbit r3, r3
 1111              	@ 0 "" 2
 1112              		.thumb
 1113              		.syntax unified
 1114 0702 BB64     		str	r3, [r7, #72]
 1115              		.loc 2 544 0
 1116 0704 BB6C     		ldr	r3, [r7, #72]
 1117              	.LBE152:
 1118              	.LBE151:
 1119              		.loc 1 486 0
ARM GAS  /tmp/cctwGTwd.s 			page 39


 1120 0706 B3FA83F3 		clz	r3, r3
 1121 070a 01FA03F3 		lsl	r3, r1, r3
 1122 070e 1A43     		orrs	r2, r2, r3
 1123 0710 02E0     		b	.L84
 1124              	.L85:
 1125 0712 00BF     		.align	2
 1126              	.L83:
 1127 0714 00380240 		.word	1073887232
 1128              	.L84:
 1129 0718 4FF07063 		mov	r3, #251658240
 1130 071c C7F8B430 		str	r3, [r7, #180]
 1131              	.LBB153:
 1132              	.LBB154:
 531:Drivers/CMSIS/Include/cmsis_gcc.h **** #else
 1133              		.loc 2 531 0
 1134 0720 D7F8B430 		ldr	r3, [r7, #180]
 1135              		.syntax unified
 1136              	@ 531 "Drivers/CMSIS/Include/cmsis_gcc.h" 1
 1137 0724 93FAA3F3 		rbit r3, r3
 1138              	@ 0 "" 2
 1139              		.thumb
 1140              		.syntax unified
 1141 0728 FB64     		str	r3, [r7, #76]
 1142              		.loc 2 544 0
 1143 072a FB6C     		ldr	r3, [r7, #76]
 1144              	.LBE154:
 1145              	.LBE153:
 1146              		.loc 1 486 0
 1147 072c B3FA83F3 		clz	r3, r3
 1148 0730 D7F80811 		ldr	r1, [r7, #264]
 1149 0734 01FA03F3 		lsl	r3, r1, r3
 1150 0738 1A43     		orrs	r2, r2, r3
 1151 073a 4FF0E043 		mov	r3, #1879048192
 1152 073e C7F8E030 		str	r3, [r7, #224]
 1153              	.LBB155:
 1154              	.LBB156:
 531:Drivers/CMSIS/Include/cmsis_gcc.h **** #else
 1155              		.loc 2 531 0
 1156 0742 D7F8E030 		ldr	r3, [r7, #224]
 1157              		.syntax unified
 1158              	@ 531 "Drivers/CMSIS/Include/cmsis_gcc.h" 1
 1159 0746 93FAA3F3 		rbit r3, r3
 1160              	@ 0 "" 2
 1161              		.thumb
 1162              		.syntax unified
 1163 074a 3B65     		str	r3, [r7, #80]
 1164              		.loc 2 544 0
 1165 074c 3B6D     		ldr	r3, [r7, #80]
 1166              	.LBE156:
 1167              	.LBE155:
 1168              		.loc 1 486 0
 1169 074e B3FA83F3 		clz	r3, r3
 1170 0752 D7F80411 		ldr	r1, [r7, #260]
 1171 0756 01FA03F3 		lsl	r3, r1, r3
 1172 075a 1343     		orrs	r3, r3, r2
 1173 075c C0F88430 		str	r3, [r0, #132]
 1174              	.L48:
ARM GAS  /tmp/cctwGTwd.s 			page 40


 487:Drivers/STM32F4xx_HAL_Driver/Src/stm32f4xx_hal_rcc_ex.c ****     } 
 488:Drivers/STM32F4xx_HAL_Driver/Src/stm32f4xx_hal_rcc_ex.c ****     
 489:Drivers/STM32F4xx_HAL_Driver/Src/stm32f4xx_hal_rcc_ex.c ****      /*----------------- In Case of PLLI2S is just selected  -----------------*/  
 490:Drivers/STM32F4xx_HAL_Driver/Src/stm32f4xx_hal_rcc_ex.c ****     if((PeriphClkInit->PeriphClockSelection & RCC_PERIPHCLK_PLLI2S) == RCC_PERIPHCLK_PLLI2S)
 1175              		.loc 1 490 0
 1176 0760 3B1D     		adds	r3, r7, #4
 1177 0762 1B68     		ldr	r3, [r3]
 1178 0764 1B68     		ldr	r3, [r3]
 1179 0766 03F40063 		and	r3, r3, #2048
 1180 076a 002B     		cmp	r3, #0
 1181 076c 4FD0     		beq	.L55
 491:Drivers/STM32F4xx_HAL_Driver/Src/stm32f4xx_hal_rcc_ex.c ****     {
 492:Drivers/STM32F4xx_HAL_Driver/Src/stm32f4xx_hal_rcc_ex.c ****       /* Check for Parameters */
 493:Drivers/STM32F4xx_HAL_Driver/Src/stm32f4xx_hal_rcc_ex.c ****       assert_param(IS_RCC_PLLI2SP_VALUE(PeriphClkInit->PLLI2S.PLLI2SP));
 494:Drivers/STM32F4xx_HAL_Driver/Src/stm32f4xx_hal_rcc_ex.c ****       assert_param(IS_RCC_PLLI2SR_VALUE(PeriphClkInit->PLLI2S.PLLI2SR));
 495:Drivers/STM32F4xx_HAL_Driver/Src/stm32f4xx_hal_rcc_ex.c ****       assert_param(IS_RCC_PLLI2SQ_VALUE(PeriphClkInit->PLLI2S.PLLI2SQ));
 496:Drivers/STM32F4xx_HAL_Driver/Src/stm32f4xx_hal_rcc_ex.c **** 
 497:Drivers/STM32F4xx_HAL_Driver/Src/stm32f4xx_hal_rcc_ex.c ****       /* Configure the PLLI2S division factors */
 498:Drivers/STM32F4xx_HAL_Driver/Src/stm32f4xx_hal_rcc_ex.c ****       /* PLLI2S_VCO = f(VCO clock) = f(PLLI2S clock input) * (PLLI2SN/PLLI2SM) */
 499:Drivers/STM32F4xx_HAL_Driver/Src/stm32f4xx_hal_rcc_ex.c ****       __HAL_RCC_PLLI2S_CONFIG(PeriphClkInit->PLLI2S.PLLI2SM, PeriphClkInit->PLLI2S.PLLI2SN , Periph
 1182              		.loc 1 499 0
 1183 076e CA48     		ldr	r0, .L86
 1184 0770 3B1D     		adds	r3, r7, #4
 1185 0772 1B68     		ldr	r3, [r3]
 1186 0774 5A68     		ldr	r2, [r3, #4]
 1187 0776 3B1D     		adds	r3, r7, #4
 1188 0778 1B68     		ldr	r3, [r3]
 1189 077a 9968     		ldr	r1, [r3, #8]
 1190 077c 47F6C073 		movw	r3, #32704
 1191 0780 C7F8AC30 		str	r3, [r7, #172]
 1192              	.LBB157:
 1193              	.LBB158:
 531:Drivers/CMSIS/Include/cmsis_gcc.h **** #else
 1194              		.loc 2 531 0
 1195 0784 D7F8AC30 		ldr	r3, [r7, #172]
 1196              		.syntax unified
 1197              	@ 531 "Drivers/CMSIS/Include/cmsis_gcc.h" 1
 1198 0788 93FAA3F3 		rbit r3, r3
 1199              	@ 0 "" 2
 1200              		.thumb
 1201              		.syntax unified
 1202 078c FB62     		str	r3, [r7, #44]
 1203              		.loc 2 544 0
 1204 078e FB6A     		ldr	r3, [r7, #44]
 1205              	.LBE158:
 1206              	.LBE157:
 1207              		.loc 1 499 0
 1208 0790 B3FA83F3 		clz	r3, r3
 1209 0794 01FA03F3 		lsl	r3, r1, r3
 1210 0798 1A43     		orrs	r2, r2, r3
 1211 079a 3B1D     		adds	r3, r7, #4
 1212 079c 1B68     		ldr	r3, [r3]
 1213 079e DB68     		ldr	r3, [r3, #12]
 1214 07a0 5B08     		lsrs	r3, r3, #1
 1215 07a2 591E     		subs	r1, r3, #1
 1216 07a4 4FF44033 		mov	r3, #196608
 1217 07a8 C7F8A830 		str	r3, [r7, #168]
ARM GAS  /tmp/cctwGTwd.s 			page 41


 1218              	.LBB159:
 1219              	.LBB160:
 531:Drivers/CMSIS/Include/cmsis_gcc.h **** #else
 1220              		.loc 2 531 0
 1221 07ac D7F8A830 		ldr	r3, [r7, #168]
 1222              		.syntax unified
 1223              	@ 531 "Drivers/CMSIS/Include/cmsis_gcc.h" 1
 1224 07b0 93FAA3F3 		rbit r3, r3
 1225              	@ 0 "" 2
 1226              		.thumb
 1227              		.syntax unified
 1228 07b4 3B63     		str	r3, [r7, #48]
 1229              		.loc 2 544 0
 1230 07b6 3B6B     		ldr	r3, [r7, #48]
 1231              	.LBE160:
 1232              	.LBE159:
 1233              		.loc 1 499 0
 1234 07b8 B3FA83F3 		clz	r3, r3
 1235 07bc 01FA03F3 		lsl	r3, r1, r3
 1236 07c0 1A43     		orrs	r2, r2, r3
 1237 07c2 3B1D     		adds	r3, r7, #4
 1238 07c4 1B68     		ldr	r3, [r3]
 1239 07c6 1969     		ldr	r1, [r3, #16]
 1240 07c8 4FF07063 		mov	r3, #251658240
 1241 07cc C7F8A430 		str	r3, [r7, #164]
 1242              	.LBB161:
 1243              	.LBB162:
 531:Drivers/CMSIS/Include/cmsis_gcc.h **** #else
 1244              		.loc 2 531 0
 1245 07d0 D7F8A430 		ldr	r3, [r7, #164]
 1246              		.syntax unified
 1247              	@ 531 "Drivers/CMSIS/Include/cmsis_gcc.h" 1
 1248 07d4 93FAA3F3 		rbit r3, r3
 1249              	@ 0 "" 2
 1250              		.thumb
 1251              		.syntax unified
 1252 07d8 7B63     		str	r3, [r7, #52]
 1253              		.loc 2 544 0
 1254 07da 7B6B     		ldr	r3, [r7, #52]
 1255              	.LBE162:
 1256              	.LBE161:
 1257              		.loc 1 499 0
 1258 07dc B3FA83F3 		clz	r3, r3
 1259 07e0 01FA03F3 		lsl	r3, r1, r3
 1260 07e4 1A43     		orrs	r2, r2, r3
 1261 07e6 3B1D     		adds	r3, r7, #4
 1262 07e8 1B68     		ldr	r3, [r3]
 1263 07ea 5969     		ldr	r1, [r3, #20]
 1264 07ec 4FF0E043 		mov	r3, #1879048192
 1265 07f0 C7F8C830 		str	r3, [r7, #200]
 1266              	.LBB163:
 1267              	.LBB164:
 531:Drivers/CMSIS/Include/cmsis_gcc.h **** #else
 1268              		.loc 2 531 0
 1269 07f4 D7F8C830 		ldr	r3, [r7, #200]
 1270              		.syntax unified
 1271              	@ 531 "Drivers/CMSIS/Include/cmsis_gcc.h" 1
ARM GAS  /tmp/cctwGTwd.s 			page 42


 1272 07f8 93FAA3F3 		rbit r3, r3
 1273              	@ 0 "" 2
 1274              		.thumb
 1275              		.syntax unified
 1276 07fc BB63     		str	r3, [r7, #56]
 1277              		.loc 2 544 0
 1278 07fe BB6B     		ldr	r3, [r7, #56]
 1279              	.LBE164:
 1280              	.LBE163:
 1281              		.loc 1 499 0
 1282 0800 B3FA83F3 		clz	r3, r3
 1283 0804 01FA03F3 		lsl	r3, r1, r3
 1284 0808 1343     		orrs	r3, r3, r2
 1285 080a C0F88430 		str	r3, [r0, #132]
 1286              	.L55:
 500:Drivers/STM32F4xx_HAL_Driver/Src/stm32f4xx_hal_rcc_ex.c ****     }    
 501:Drivers/STM32F4xx_HAL_Driver/Src/stm32f4xx_hal_rcc_ex.c ****    
 502:Drivers/STM32F4xx_HAL_Driver/Src/stm32f4xx_hal_rcc_ex.c ****     /* Enable the PLLI2S */
 503:Drivers/STM32F4xx_HAL_Driver/Src/stm32f4xx_hal_rcc_ex.c ****     __HAL_RCC_PLLI2S_ENABLE();
 1287              		.loc 1 503 0
 1288 080e A34B     		ldr	r3, .L86+4
 1289 0810 0122     		movs	r2, #1
 1290 0812 1A60     		str	r2, [r3]
 504:Drivers/STM32F4xx_HAL_Driver/Src/stm32f4xx_hal_rcc_ex.c ****     /* Get tick */
 505:Drivers/STM32F4xx_HAL_Driver/Src/stm32f4xx_hal_rcc_ex.c ****     tickstart = HAL_GetTick();
 1291              		.loc 1 505 0
 1292 0814 FFF7FEFF 		bl	HAL_GetTick
 1293 0818 C7F81401 		str	r0, [r7, #276]
 506:Drivers/STM32F4xx_HAL_Driver/Src/stm32f4xx_hal_rcc_ex.c ****     /* Wait till PLLI2S is ready */
 507:Drivers/STM32F4xx_HAL_Driver/Src/stm32f4xx_hal_rcc_ex.c ****     while(__HAL_RCC_GET_FLAG(RCC_FLAG_PLLI2SRDY)  == RESET)
 1294              		.loc 1 507 0
 1295 081c 09E0     		b	.L60
 1296              	.L61:
 508:Drivers/STM32F4xx_HAL_Driver/Src/stm32f4xx_hal_rcc_ex.c ****     {
 509:Drivers/STM32F4xx_HAL_Driver/Src/stm32f4xx_hal_rcc_ex.c ****       if((HAL_GetTick() - tickstart ) > PLLI2S_TIMEOUT_VALUE)
 1297              		.loc 1 509 0
 1298 081e FFF7FEFF 		bl	HAL_GetTick
 1299 0822 0246     		mov	r2, r0
 1300 0824 D7F81431 		ldr	r3, [r7, #276]
 1301 0828 D31A     		subs	r3, r2, r3
 1302 082a 022B     		cmp	r3, #2
 1303 082c 01D9     		bls	.L60
 510:Drivers/STM32F4xx_HAL_Driver/Src/stm32f4xx_hal_rcc_ex.c ****       {
 511:Drivers/STM32F4xx_HAL_Driver/Src/stm32f4xx_hal_rcc_ex.c ****         /* return in case of Timeout detected */
 512:Drivers/STM32F4xx_HAL_Driver/Src/stm32f4xx_hal_rcc_ex.c ****         return HAL_TIMEOUT;
 1304              		.loc 1 512 0
 1305 082e 0323     		movs	r3, #3
 1306 0830 2CE1     		b	.L13
 1307              	.L60:
 507:Drivers/STM32F4xx_HAL_Driver/Src/stm32f4xx_hal_rcc_ex.c ****     {
 1308              		.loc 1 507 0
 1309 0832 994B     		ldr	r3, .L86
 1310 0834 1B68     		ldr	r3, [r3]
 1311 0836 03F00063 		and	r3, r3, #134217728
 1312 083a 002B     		cmp	r3, #0
 1313 083c EFD0     		beq	.L61
 1314              	.L27:
ARM GAS  /tmp/cctwGTwd.s 			page 43


 513:Drivers/STM32F4xx_HAL_Driver/Src/stm32f4xx_hal_rcc_ex.c ****       }
 514:Drivers/STM32F4xx_HAL_Driver/Src/stm32f4xx_hal_rcc_ex.c ****     }
 515:Drivers/STM32F4xx_HAL_Driver/Src/stm32f4xx_hal_rcc_ex.c ****   } 
 516:Drivers/STM32F4xx_HAL_Driver/Src/stm32f4xx_hal_rcc_ex.c ****   /*--------------------------------------------------------------------------*/
 517:Drivers/STM32F4xx_HAL_Driver/Src/stm32f4xx_hal_rcc_ex.c ****     
 518:Drivers/STM32F4xx_HAL_Driver/Src/stm32f4xx_hal_rcc_ex.c ****   /*----------------------------- PLLSAI Configuration -----------------------*/
 519:Drivers/STM32F4xx_HAL_Driver/Src/stm32f4xx_hal_rcc_ex.c ****   /* PLLSAI is configured when a peripheral will use it as source clock : SAI1, SAI2, CLK48 or SDIO
 520:Drivers/STM32F4xx_HAL_Driver/Src/stm32f4xx_hal_rcc_ex.c ****   if(pllsaiused == 1U)
 1315              		.loc 1 520 0
 1316 083e D7F81831 		ldr	r3, [r7, #280]
 1317 0842 012B     		cmp	r3, #1
 1318 0844 40F02181 		bne	.L62
 521:Drivers/STM32F4xx_HAL_Driver/Src/stm32f4xx_hal_rcc_ex.c ****   {
 522:Drivers/STM32F4xx_HAL_Driver/Src/stm32f4xx_hal_rcc_ex.c ****     /* Disable PLLSAI Clock */
 523:Drivers/STM32F4xx_HAL_Driver/Src/stm32f4xx_hal_rcc_ex.c ****     __HAL_RCC_PLLSAI_DISABLE(); 
 1319              		.loc 1 523 0
 1320 0848 954B     		ldr	r3, .L86+8
 1321 084a 0022     		movs	r2, #0
 1322 084c 1A60     		str	r2, [r3]
 524:Drivers/STM32F4xx_HAL_Driver/Src/stm32f4xx_hal_rcc_ex.c ****     /* Get tick */
 525:Drivers/STM32F4xx_HAL_Driver/Src/stm32f4xx_hal_rcc_ex.c ****     tickstart = HAL_GetTick();
 1323              		.loc 1 525 0
 1324 084e FFF7FEFF 		bl	HAL_GetTick
 1325 0852 C7F81401 		str	r0, [r7, #276]
 526:Drivers/STM32F4xx_HAL_Driver/Src/stm32f4xx_hal_rcc_ex.c ****     /* Wait till PLLSAI is disabled */
 527:Drivers/STM32F4xx_HAL_Driver/Src/stm32f4xx_hal_rcc_ex.c ****     while(__HAL_RCC_PLLSAI_GET_FLAG() != RESET)
 1326              		.loc 1 527 0
 1327 0856 09E0     		b	.L63
 1328              	.L64:
 528:Drivers/STM32F4xx_HAL_Driver/Src/stm32f4xx_hal_rcc_ex.c ****     {
 529:Drivers/STM32F4xx_HAL_Driver/Src/stm32f4xx_hal_rcc_ex.c ****       if((HAL_GetTick() - tickstart ) > PLLSAI_TIMEOUT_VALUE)
 1329              		.loc 1 529 0
 1330 0858 FFF7FEFF 		bl	HAL_GetTick
 1331 085c 0246     		mov	r2, r0
 1332 085e D7F81431 		ldr	r3, [r7, #276]
 1333 0862 D31A     		subs	r3, r2, r3
 1334 0864 022B     		cmp	r3, #2
 1335 0866 01D9     		bls	.L63
 530:Drivers/STM32F4xx_HAL_Driver/Src/stm32f4xx_hal_rcc_ex.c ****       { 
 531:Drivers/STM32F4xx_HAL_Driver/Src/stm32f4xx_hal_rcc_ex.c ****         /* return in case of Timeout detected */
 532:Drivers/STM32F4xx_HAL_Driver/Src/stm32f4xx_hal_rcc_ex.c ****         return HAL_TIMEOUT;
 1336              		.loc 1 532 0
 1337 0868 0323     		movs	r3, #3
 1338 086a 0FE1     		b	.L13
 1339              	.L63:
 527:Drivers/STM32F4xx_HAL_Driver/Src/stm32f4xx_hal_rcc_ex.c ****     {
 1340              		.loc 1 527 0
 1341 086c 8A4B     		ldr	r3, .L86
 1342 086e 1B68     		ldr	r3, [r3]
 1343 0870 03F00053 		and	r3, r3, #536870912
 1344 0874 002B     		cmp	r3, #0
 1345 0876 EFD1     		bne	.L64
 533:Drivers/STM32F4xx_HAL_Driver/Src/stm32f4xx_hal_rcc_ex.c ****       }
 534:Drivers/STM32F4xx_HAL_Driver/Src/stm32f4xx_hal_rcc_ex.c ****     }
 535:Drivers/STM32F4xx_HAL_Driver/Src/stm32f4xx_hal_rcc_ex.c ****     
 536:Drivers/STM32F4xx_HAL_Driver/Src/stm32f4xx_hal_rcc_ex.c ****     /* Check the PLLSAI division factors */
 537:Drivers/STM32F4xx_HAL_Driver/Src/stm32f4xx_hal_rcc_ex.c ****     assert_param(IS_RCC_PLLSAIM_VALUE(PeriphClkInit->PLLSAI.PLLSAIM));
ARM GAS  /tmp/cctwGTwd.s 			page 44


 538:Drivers/STM32F4xx_HAL_Driver/Src/stm32f4xx_hal_rcc_ex.c ****     assert_param(IS_RCC_PLLSAIN_VALUE(PeriphClkInit->PLLSAI.PLLSAIN));
 539:Drivers/STM32F4xx_HAL_Driver/Src/stm32f4xx_hal_rcc_ex.c ****     
 540:Drivers/STM32F4xx_HAL_Driver/Src/stm32f4xx_hal_rcc_ex.c ****     /*------ In Case of PLLSAI is selected as source clock for SAI -----------*/  
 541:Drivers/STM32F4xx_HAL_Driver/Src/stm32f4xx_hal_rcc_ex.c ****     if(((((PeriphClkInit->PeriphClockSelection) & RCC_PERIPHCLK_SAI1) == RCC_PERIPHCLK_SAI1) && (Pe
 1346              		.loc 1 541 0
 1347 0878 3B1D     		adds	r3, r7, #4
 1348 087a 1B68     		ldr	r3, [r3]
 1349 087c 1B68     		ldr	r3, [r3]
 1350 087e 03F00403 		and	r3, r3, #4
 1351 0882 002B     		cmp	r3, #0
 1352 0884 04D0     		beq	.L65
 1353              		.loc 1 541 0 is_stmt 0 discriminator 1
 1354 0886 3B1D     		adds	r3, r7, #4
 1355 0888 1B68     		ldr	r3, [r3]
 1356 088a 1B6B     		ldr	r3, [r3, #48]
 1357 088c 002B     		cmp	r3, #0
 1358 088e 0BD0     		beq	.L66
 1359              	.L65:
 542:Drivers/STM32F4xx_HAL_Driver/Src/stm32f4xx_hal_rcc_ex.c ****        ((((PeriphClkInit->PeriphClockSelection) & RCC_PERIPHCLK_SAI2) == RCC_PERIPHCLK_SAI2) && (Pe
 1360              		.loc 1 542 0 is_stmt 1 discriminator 3
 1361 0890 3B1D     		adds	r3, r7, #4
 1362 0892 1B68     		ldr	r3, [r3]
 1363 0894 1B68     		ldr	r3, [r3]
 1364 0896 03F00803 		and	r3, r3, #8
 541:Drivers/STM32F4xx_HAL_Driver/Src/stm32f4xx_hal_rcc_ex.c ****        ((((PeriphClkInit->PeriphClockSelection) & RCC_PERIPHCLK_SAI2) == RCC_PERIPHCLK_SAI2) && (Pe
 1365              		.loc 1 541 0 discriminator 3
 1366 089a 002B     		cmp	r3, #0
 1367 089c 6ED0     		beq	.L67
 1368              		.loc 1 542 0
 1369 089e 3B1D     		adds	r3, r7, #4
 1370 08a0 1B68     		ldr	r3, [r3]
 1371 08a2 5B6B     		ldr	r3, [r3, #52]
 1372 08a4 002B     		cmp	r3, #0
 1373 08a6 69D1     		bne	.L67
 1374              	.L66:
 543:Drivers/STM32F4xx_HAL_Driver/Src/stm32f4xx_hal_rcc_ex.c ****     {
 544:Drivers/STM32F4xx_HAL_Driver/Src/stm32f4xx_hal_rcc_ex.c ****       /* check for PLLSAIQ Parameter */
 545:Drivers/STM32F4xx_HAL_Driver/Src/stm32f4xx_hal_rcc_ex.c ****       assert_param(IS_RCC_PLLSAIQ_VALUE(PeriphClkInit->PLLSAI.PLLSAIQ));
 546:Drivers/STM32F4xx_HAL_Driver/Src/stm32f4xx_hal_rcc_ex.c ****       /* check for PLLSAI/DIVQ Parameter */
 547:Drivers/STM32F4xx_HAL_Driver/Src/stm32f4xx_hal_rcc_ex.c ****       assert_param(IS_RCC_PLLSAI_DIVQ_VALUE(PeriphClkInit->PLLSAIDivQ));
 548:Drivers/STM32F4xx_HAL_Driver/Src/stm32f4xx_hal_rcc_ex.c ****     
 549:Drivers/STM32F4xx_HAL_Driver/Src/stm32f4xx_hal_rcc_ex.c ****       /* Read PLLSAIP value from PLLSAICFGR register (this value is not needed for SAI configuratio
 550:Drivers/STM32F4xx_HAL_Driver/Src/stm32f4xx_hal_rcc_ex.c ****       pllsaip = ((((RCC->PLLSAICFGR & RCC_PLLSAICFGR_PLLSAIP) >> POSITION_VAL(RCC_PLLSAICFGR_PLLSAI
 1375              		.loc 1 550 0
 1376 08a8 7B4B     		ldr	r3, .L86
 1377 08aa D3F88830 		ldr	r3, [r3, #136]
 1378 08ae 03F44032 		and	r2, r3, #196608
 1379 08b2 4FF44033 		mov	r3, #196608
 1380 08b6 C7F89C30 		str	r3, [r7, #156]
 1381              	.LBB165:
 1382              	.LBB166:
 531:Drivers/CMSIS/Include/cmsis_gcc.h **** #else
 1383              		.loc 2 531 0
 1384 08ba D7F89C30 		ldr	r3, [r7, #156]
 1385              		.syntax unified
 1386              	@ 531 "Drivers/CMSIS/Include/cmsis_gcc.h" 1
 1387 08be 93FAA3F1 		rbit r1, r3
ARM GAS  /tmp/cctwGTwd.s 			page 45


 1388              	@ 0 "" 2
 1389              		.thumb
 1390              		.syntax unified
 1391 08c2 07F11C03 		add	r3, r7, #28
 1392 08c6 1960     		str	r1, [r3]
 1393              		.loc 2 544 0
 1394 08c8 07F11C03 		add	r3, r7, #28
 1395 08cc 1B68     		ldr	r3, [r3]
 1396              	.LBE166:
 1397              	.LBE165:
 1398              		.loc 1 550 0
 1399 08ce B3FA83F3 		clz	r3, r3
 1400 08d2 22FA03F3 		lsr	r3, r2, r3
 1401 08d6 0133     		adds	r3, r3, #1
 1402 08d8 5B00     		lsls	r3, r3, #1
 1403 08da C7F80031 		str	r3, [r7, #256]
 551:Drivers/STM32F4xx_HAL_Driver/Src/stm32f4xx_hal_rcc_ex.c ****       /* PLLSAI_VCO Input  = PLL_SOURCE/PLLM */
 552:Drivers/STM32F4xx_HAL_Driver/Src/stm32f4xx_hal_rcc_ex.c ****       /* PLLSAI_VCO Output = PLLSAI_VCO Input * PLLSAIN */
 553:Drivers/STM32F4xx_HAL_Driver/Src/stm32f4xx_hal_rcc_ex.c ****       /* SAI_CLK(first level) = PLLSAI_VCO Output/PLLSAIQ */
 554:Drivers/STM32F4xx_HAL_Driver/Src/stm32f4xx_hal_rcc_ex.c ****       __HAL_RCC_PLLSAI_CONFIG(PeriphClkInit->PLLSAI.PLLSAIM, PeriphClkInit->PLLSAI.PLLSAIN , pllsai
 1404              		.loc 1 554 0
 1405 08de 6E4C     		ldr	r4, .L86
 1406 08e0 3B1D     		adds	r3, r7, #4
 1407 08e2 1B68     		ldr	r3, [r3]
 1408 08e4 9A69     		ldr	r2, [r3, #24]
 1409 08e6 3B1D     		adds	r3, r7, #4
 1410 08e8 1B68     		ldr	r3, [r3]
 1411 08ea D969     		ldr	r1, [r3, #28]
 1412 08ec 47F6C073 		movw	r3, #32704
 1413 08f0 C7F89830 		str	r3, [r7, #152]
 1414              	.LBB167:
 1415              	.LBB168:
 531:Drivers/CMSIS/Include/cmsis_gcc.h **** #else
 1416              		.loc 2 531 0
 1417 08f4 D7F89830 		ldr	r3, [r7, #152]
 1418              		.syntax unified
 1419              	@ 531 "Drivers/CMSIS/Include/cmsis_gcc.h" 1
 1420 08f8 93FAA3F0 		rbit r0, r3
 1421              	@ 0 "" 2
 1422              		.thumb
 1423              		.syntax unified
 1424 08fc 07F12003 		add	r3, r7, #32
 1425 0900 1860     		str	r0, [r3]
 1426              		.loc 2 544 0
 1427 0902 07F12003 		add	r3, r7, #32
 1428 0906 1B68     		ldr	r3, [r3]
 1429              	.LBE168:
 1430              	.LBE167:
 1431              		.loc 1 554 0
 1432 0908 B3FA83F3 		clz	r3, r3
 1433 090c 01FA03F3 		lsl	r3, r1, r3
 1434 0910 1A43     		orrs	r2, r2, r3
 1435 0912 D7F80031 		ldr	r3, [r7, #256]
 1436 0916 5B08     		lsrs	r3, r3, #1
 1437 0918 591E     		subs	r1, r3, #1
 1438 091a 4FF44033 		mov	r3, #196608
 1439 091e C7F89430 		str	r3, [r7, #148]
ARM GAS  /tmp/cctwGTwd.s 			page 46


 1440              	.LBB169:
 1441              	.LBB170:
 531:Drivers/CMSIS/Include/cmsis_gcc.h **** #else
 1442              		.loc 2 531 0
 1443 0922 D7F89430 		ldr	r3, [r7, #148]
 1444              		.syntax unified
 1445              	@ 531 "Drivers/CMSIS/Include/cmsis_gcc.h" 1
 1446 0926 93FAA3F3 		rbit r3, r3
 1447              	@ 0 "" 2
 1448              		.thumb
 1449              		.syntax unified
 1450 092a 7B62     		str	r3, [r7, #36]
 1451              		.loc 2 544 0
 1452 092c 7B6A     		ldr	r3, [r7, #36]
 1453              	.LBE170:
 1454              	.LBE169:
 1455              		.loc 1 554 0
 1456 092e B3FA83F3 		clz	r3, r3
 1457 0932 01FA03F3 		lsl	r3, r1, r3
 1458 0936 1A43     		orrs	r2, r2, r3
 1459 0938 3B1D     		adds	r3, r7, #4
 1460 093a 1B68     		ldr	r3, [r3]
 1461 093c 596A     		ldr	r1, [r3, #36]
 1462 093e 4FF07063 		mov	r3, #251658240
 1463 0942 C7F8B030 		str	r3, [r7, #176]
 1464              	.LBB171:
 1465              	.LBB172:
 531:Drivers/CMSIS/Include/cmsis_gcc.h **** #else
 1466              		.loc 2 531 0
 1467 0946 D7F8B030 		ldr	r3, [r7, #176]
 1468              		.syntax unified
 1469              	@ 531 "Drivers/CMSIS/Include/cmsis_gcc.h" 1
 1470 094a 93FAA3F3 		rbit r3, r3
 1471              	@ 0 "" 2
 1472              		.thumb
 1473              		.syntax unified
 1474 094e BB62     		str	r3, [r7, #40]
 1475              		.loc 2 544 0
 1476 0950 BB6A     		ldr	r3, [r7, #40]
 1477              	.LBE172:
 1478              	.LBE171:
 1479              		.loc 1 554 0
 1480 0952 B3FA83F3 		clz	r3, r3
 1481 0956 01FA03F3 		lsl	r3, r1, r3
 1482 095a 1343     		orrs	r3, r3, r2
 1483 095c C4F88830 		str	r3, [r4, #136]
 555:Drivers/STM32F4xx_HAL_Driver/Src/stm32f4xx_hal_rcc_ex.c ****       
 556:Drivers/STM32F4xx_HAL_Driver/Src/stm32f4xx_hal_rcc_ex.c ****       /* SAI_CLK_x = SAI_CLK(first level)/PLLSAIDIVQ */ 
 557:Drivers/STM32F4xx_HAL_Driver/Src/stm32f4xx_hal_rcc_ex.c ****       __HAL_RCC_PLLSAI_PLLSAICLKDIVQ_CONFIG(PeriphClkInit->PLLSAIDivQ);
 1484              		.loc 1 557 0
 1485 0960 4D49     		ldr	r1, .L86
 1486 0962 4D4B     		ldr	r3, .L86
 1487 0964 D3F88C30 		ldr	r3, [r3, #140]
 1488 0968 23F4F852 		bic	r2, r3, #7936
 1489 096c 3B1D     		adds	r3, r7, #4
 1490 096e 1B68     		ldr	r3, [r3]
 1491 0970 DB6A     		ldr	r3, [r3, #44]
ARM GAS  /tmp/cctwGTwd.s 			page 47


 1492 0972 013B     		subs	r3, r3, #1
 1493 0974 1B02     		lsls	r3, r3, #8
 1494 0976 1343     		orrs	r3, r3, r2
 1495 0978 C1F88C30 		str	r3, [r1, #140]
 1496              	.L67:
 558:Drivers/STM32F4xx_HAL_Driver/Src/stm32f4xx_hal_rcc_ex.c ****     }           
 559:Drivers/STM32F4xx_HAL_Driver/Src/stm32f4xx_hal_rcc_ex.c **** 
 560:Drivers/STM32F4xx_HAL_Driver/Src/stm32f4xx_hal_rcc_ex.c ****     /*------ In Case of PLLSAI is selected as source clock for CLK48 ---------*/   
 561:Drivers/STM32F4xx_HAL_Driver/Src/stm32f4xx_hal_rcc_ex.c ****     /* In Case of PLLI2S is selected as source clock for CLK48 */ 
 562:Drivers/STM32F4xx_HAL_Driver/Src/stm32f4xx_hal_rcc_ex.c ****     if((((PeriphClkInit->PeriphClockSelection) & RCC_PERIPHCLK_CLK48) == RCC_PERIPHCLK_CLK48) && (P
 1497              		.loc 1 562 0
 1498 097c 3B1D     		adds	r3, r7, #4
 1499 097e 1B68     		ldr	r3, [r3]
 1500 0980 1B68     		ldr	r3, [r3]
 1501 0982 03F48073 		and	r3, r3, #256
 1502 0986 002B     		cmp	r3, #0
 1503 0988 67D0     		beq	.L72
 1504              		.loc 1 562 0 is_stmt 0 discriminator 1
 1505 098a 3B1D     		adds	r3, r7, #4
 1506 098c 1B68     		ldr	r3, [r3]
 1507 098e 5B6D     		ldr	r3, [r3, #84]
 1508 0990 B3F1006F 		cmp	r3, #134217728
 1509 0994 61D1     		bne	.L72
 563:Drivers/STM32F4xx_HAL_Driver/Src/stm32f4xx_hal_rcc_ex.c ****     {
 564:Drivers/STM32F4xx_HAL_Driver/Src/stm32f4xx_hal_rcc_ex.c ****       /* check for Parameters */
 565:Drivers/STM32F4xx_HAL_Driver/Src/stm32f4xx_hal_rcc_ex.c ****       assert_param(IS_RCC_PLLSAIP_VALUE(PeriphClkInit->PLLSAI.PLLSAIP));
 566:Drivers/STM32F4xx_HAL_Driver/Src/stm32f4xx_hal_rcc_ex.c ****       /* Read PLLSAIQ value from PLLI2SCFGR register (this value is not need for SAI configuration)
 567:Drivers/STM32F4xx_HAL_Driver/Src/stm32f4xx_hal_rcc_ex.c ****       pllsaiq = ((RCC->PLLSAICFGR & RCC_PLLSAICFGR_PLLSAIQ) >> POSITION_VAL(RCC_PLLSAICFGR_PLLSAIQ)
 1510              		.loc 1 567 0 is_stmt 1
 1511 0996 404B     		ldr	r3, .L86
 1512 0998 D3F88830 		ldr	r3, [r3, #136]
 1513 099c 03F07062 		and	r2, r3, #251658240
 1514 09a0 4FF07063 		mov	r3, #251658240
 1515 09a4 C7F89030 		str	r3, [r7, #144]
 1516              	.LBB173:
 1517              	.LBB174:
 531:Drivers/CMSIS/Include/cmsis_gcc.h **** #else
 1518              		.loc 2 531 0
 1519 09a8 D7F89030 		ldr	r3, [r7, #144]
 1520              		.syntax unified
 1521              	@ 531 "Drivers/CMSIS/Include/cmsis_gcc.h" 1
 1522 09ac 93FAA3F1 		rbit r1, r3
 1523              	@ 0 "" 2
 1524              		.thumb
 1525              		.syntax unified
 1526 09b0 07F10C03 		add	r3, r7, #12
 1527 09b4 1960     		str	r1, [r3]
 1528              		.loc 2 544 0
 1529 09b6 07F10C03 		add	r3, r7, #12
 1530 09ba 1B68     		ldr	r3, [r3]
 1531              	.LBE174:
 1532              	.LBE173:
 1533              		.loc 1 567 0
 1534 09bc B3FA83F3 		clz	r3, r3
 1535 09c0 22FA03F3 		lsr	r3, r2, r3
 1536 09c4 C7F8FC30 		str	r3, [r7, #252]
 568:Drivers/STM32F4xx_HAL_Driver/Src/stm32f4xx_hal_rcc_ex.c ****       /* Configure the PLLSAI division factors */
ARM GAS  /tmp/cctwGTwd.s 			page 48


 569:Drivers/STM32F4xx_HAL_Driver/Src/stm32f4xx_hal_rcc_ex.c ****       /* PLLSAI_VCO = f(VCO clock) = f(PLLSAI clock input) * (PLLI2SN/PLLSAIM) */
 570:Drivers/STM32F4xx_HAL_Driver/Src/stm32f4xx_hal_rcc_ex.c ****       /* 48CLK = f(PLLSAI clock output) = f(VCO clock) / PLLSAIP */
 571:Drivers/STM32F4xx_HAL_Driver/Src/stm32f4xx_hal_rcc_ex.c ****       __HAL_RCC_PLLSAI_CONFIG(PeriphClkInit->PLLSAI.PLLSAIM, PeriphClkInit->PLLSAI.PLLSAIN , Periph
 1537              		.loc 1 571 0
 1538 09c8 334C     		ldr	r4, .L86
 1539 09ca 3B1D     		adds	r3, r7, #4
 1540 09cc 1B68     		ldr	r3, [r3]
 1541 09ce 9A69     		ldr	r2, [r3, #24]
 1542 09d0 3B1D     		adds	r3, r7, #4
 1543 09d2 1B68     		ldr	r3, [r3]
 1544 09d4 D969     		ldr	r1, [r3, #28]
 1545 09d6 47F6C073 		movw	r3, #32704
 1546 09da C7F88C30 		str	r3, [r7, #140]
 1547              	.LBB175:
 1548              	.LBB176:
 531:Drivers/CMSIS/Include/cmsis_gcc.h **** #else
 1549              		.loc 2 531 0
 1550 09de D7F88C30 		ldr	r3, [r7, #140]
 1551              		.syntax unified
 1552              	@ 531 "Drivers/CMSIS/Include/cmsis_gcc.h" 1
 1553 09e2 93FAA3F0 		rbit r0, r3
 1554              	@ 0 "" 2
 1555              		.thumb
 1556              		.syntax unified
 1557 09e6 07F11003 		add	r3, r7, #16
 1558 09ea 1860     		str	r0, [r3]
 1559              		.loc 2 544 0
 1560 09ec 07F11003 		add	r3, r7, #16
 1561 09f0 1B68     		ldr	r3, [r3]
 1562              	.LBE176:
 1563              	.LBE175:
 1564              		.loc 1 571 0
 1565 09f2 B3FA83F3 		clz	r3, r3
 1566 09f6 01FA03F3 		lsl	r3, r1, r3
 1567 09fa 1A43     		orrs	r2, r2, r3
 1568 09fc 3B1D     		adds	r3, r7, #4
 1569 09fe 1B68     		ldr	r3, [r3]
 1570 0a00 1B6A     		ldr	r3, [r3, #32]
 1571 0a02 5B08     		lsrs	r3, r3, #1
 1572 0a04 591E     		subs	r1, r3, #1
 1573 0a06 4FF44033 		mov	r3, #196608
 1574 0a0a C7F88830 		str	r3, [r7, #136]
 1575              	.LBB177:
 1576              	.LBB178:
 531:Drivers/CMSIS/Include/cmsis_gcc.h **** #else
 1577              		.loc 2 531 0
 1578 0a0e D7F88830 		ldr	r3, [r7, #136]
 1579              		.syntax unified
 1580              	@ 531 "Drivers/CMSIS/Include/cmsis_gcc.h" 1
 1581 0a12 93FAA3F0 		rbit r0, r3
 1582              	@ 0 "" 2
 1583              		.thumb
 1584              		.syntax unified
 1585 0a16 07F11403 		add	r3, r7, #20
 1586 0a1a 1860     		str	r0, [r3]
 1587              		.loc 2 544 0
 1588 0a1c 07F11403 		add	r3, r7, #20
ARM GAS  /tmp/cctwGTwd.s 			page 49


 1589 0a20 1B68     		ldr	r3, [r3]
 1590              	.LBE178:
 1591              	.LBE177:
 1592              		.loc 1 571 0
 1593 0a22 B3FA83F3 		clz	r3, r3
 1594 0a26 01FA03F3 		lsl	r3, r1, r3
 1595 0a2a 1A43     		orrs	r2, r2, r3
 1596 0a2c 4FF07063 		mov	r3, #251658240
 1597 0a30 C7F8A030 		str	r3, [r7, #160]
 1598              	.LBB179:
 1599              	.LBB180:
 531:Drivers/CMSIS/Include/cmsis_gcc.h **** #else
 1600              		.loc 2 531 0
 1601 0a34 D7F8A030 		ldr	r3, [r7, #160]
 1602              		.syntax unified
 1603              	@ 531 "Drivers/CMSIS/Include/cmsis_gcc.h" 1
 1604 0a38 93FAA3F1 		rbit r1, r3
 1605              	@ 0 "" 2
 1606              		.thumb
 1607              		.syntax unified
 1608 0a3c 07F11803 		add	r3, r7, #24
 1609 0a40 1960     		str	r1, [r3]
 1610              		.loc 2 544 0
 1611 0a42 07F11803 		add	r3, r7, #24
 1612 0a46 1B68     		ldr	r3, [r3]
 1613              	.LBE180:
 1614              	.LBE179:
 1615              		.loc 1 571 0
 1616 0a48 B3FA83F3 		clz	r3, r3
 1617 0a4c D7F8FC10 		ldr	r1, [r7, #252]
 1618 0a50 01FA03F3 		lsl	r3, r1, r3
 1619 0a54 1343     		orrs	r3, r3, r2
 1620 0a56 C4F88830 		str	r3, [r4, #136]
 1621              	.L72:
 572:Drivers/STM32F4xx_HAL_Driver/Src/stm32f4xx_hal_rcc_ex.c ****     }        
 573:Drivers/STM32F4xx_HAL_Driver/Src/stm32f4xx_hal_rcc_ex.c **** 
 574:Drivers/STM32F4xx_HAL_Driver/Src/stm32f4xx_hal_rcc_ex.c ****     /* Enable PLLSAI Clock */
 575:Drivers/STM32F4xx_HAL_Driver/Src/stm32f4xx_hal_rcc_ex.c ****     __HAL_RCC_PLLSAI_ENABLE();
 1622              		.loc 1 575 0
 1623 0a5a 114B     		ldr	r3, .L86+8
 1624 0a5c 0122     		movs	r2, #1
 1625 0a5e 1A60     		str	r2, [r3]
 576:Drivers/STM32F4xx_HAL_Driver/Src/stm32f4xx_hal_rcc_ex.c ****     /* Get tick */
 577:Drivers/STM32F4xx_HAL_Driver/Src/stm32f4xx_hal_rcc_ex.c ****     tickstart = HAL_GetTick();
 1626              		.loc 1 577 0
 1627 0a60 FFF7FEFF 		bl	HAL_GetTick
 1628 0a64 C7F81401 		str	r0, [r7, #276]
 578:Drivers/STM32F4xx_HAL_Driver/Src/stm32f4xx_hal_rcc_ex.c ****     /* Wait till PLLSAI is ready */
 579:Drivers/STM32F4xx_HAL_Driver/Src/stm32f4xx_hal_rcc_ex.c ****     while(__HAL_RCC_PLLSAI_GET_FLAG() == RESET)
 1629              		.loc 1 579 0
 1630 0a68 09E0     		b	.L77
 1631              	.L78:
 580:Drivers/STM32F4xx_HAL_Driver/Src/stm32f4xx_hal_rcc_ex.c ****     {
 581:Drivers/STM32F4xx_HAL_Driver/Src/stm32f4xx_hal_rcc_ex.c ****       if((HAL_GetTick() - tickstart ) > PLLSAI_TIMEOUT_VALUE)
 1632              		.loc 1 581 0
 1633 0a6a FFF7FEFF 		bl	HAL_GetTick
 1634 0a6e 0246     		mov	r2, r0
ARM GAS  /tmp/cctwGTwd.s 			page 50


 1635 0a70 D7F81431 		ldr	r3, [r7, #276]
 1636 0a74 D31A     		subs	r3, r2, r3
 1637 0a76 022B     		cmp	r3, #2
 1638 0a78 01D9     		bls	.L77
 582:Drivers/STM32F4xx_HAL_Driver/Src/stm32f4xx_hal_rcc_ex.c ****       { 
 583:Drivers/STM32F4xx_HAL_Driver/Src/stm32f4xx_hal_rcc_ex.c ****         /* return in case of Timeout detected */
 584:Drivers/STM32F4xx_HAL_Driver/Src/stm32f4xx_hal_rcc_ex.c ****         return HAL_TIMEOUT;
 1639              		.loc 1 584 0
 1640 0a7a 0323     		movs	r3, #3
 1641 0a7c 06E0     		b	.L13
 1642              	.L77:
 579:Drivers/STM32F4xx_HAL_Driver/Src/stm32f4xx_hal_rcc_ex.c ****     {
 1643              		.loc 1 579 0
 1644 0a7e 064B     		ldr	r3, .L86
 1645 0a80 1B68     		ldr	r3, [r3]
 1646 0a82 03F00053 		and	r3, r3, #536870912
 1647 0a86 002B     		cmp	r3, #0
 1648 0a88 EFD0     		beq	.L78
 1649              	.L62:
 585:Drivers/STM32F4xx_HAL_Driver/Src/stm32f4xx_hal_rcc_ex.c ****       }
 586:Drivers/STM32F4xx_HAL_Driver/Src/stm32f4xx_hal_rcc_ex.c ****     }  
 587:Drivers/STM32F4xx_HAL_Driver/Src/stm32f4xx_hal_rcc_ex.c ****   }
 588:Drivers/STM32F4xx_HAL_Driver/Src/stm32f4xx_hal_rcc_ex.c ****   return HAL_OK;
 1650              		.loc 1 588 0
 1651 0a8a 0023     		movs	r3, #0
 1652              	.L13:
 589:Drivers/STM32F4xx_HAL_Driver/Src/stm32f4xx_hal_rcc_ex.c **** }
 1653              		.loc 1 589 0
 1654 0a8c 1846     		mov	r0, r3
 1655 0a8e 07F59277 		add	r7, r7, #292
 1656              	.LCFI7:
 1657              		.cfi_def_cfa_offset 12
 1658 0a92 BD46     		mov	sp, r7
 1659              	.LCFI8:
 1660              		.cfi_def_cfa_register 13
 1661              		@ sp needed
 1662 0a94 90BD     		pop	{r4, r7, pc}
 1663              	.L87:
 1664 0a96 00BF     		.align	2
 1665              	.L86:
 1666 0a98 00380240 		.word	1073887232
 1667 0a9c 68004742 		.word	1111949416
 1668 0aa0 70004742 		.word	1111949424
 1669              		.cfi_endproc
 1670              	.LFE127:
 1672              		.section	.text.HAL_RCCEx_GetPeriphCLKConfig,"ax",%progbits
 1673              		.align	2
 1674              		.global	HAL_RCCEx_GetPeriphCLKConfig
 1675              		.thumb
 1676              		.thumb_func
 1678              	HAL_RCCEx_GetPeriphCLKConfig:
 1679              	.LFB128:
 590:Drivers/STM32F4xx_HAL_Driver/Src/stm32f4xx_hal_rcc_ex.c **** 
 591:Drivers/STM32F4xx_HAL_Driver/Src/stm32f4xx_hal_rcc_ex.c **** /**
 592:Drivers/STM32F4xx_HAL_Driver/Src/stm32f4xx_hal_rcc_ex.c ****   * @brief  Get the RCC_PeriphCLKInitTypeDef according to the internal
 593:Drivers/STM32F4xx_HAL_Driver/Src/stm32f4xx_hal_rcc_ex.c ****   *         RCC configuration registers.
 594:Drivers/STM32F4xx_HAL_Driver/Src/stm32f4xx_hal_rcc_ex.c ****   * @param  PeriphClkInit: pointer to an RCC_PeriphCLKInitTypeDef structure that 
ARM GAS  /tmp/cctwGTwd.s 			page 51


 595:Drivers/STM32F4xx_HAL_Driver/Src/stm32f4xx_hal_rcc_ex.c ****   *         will be configured.
 596:Drivers/STM32F4xx_HAL_Driver/Src/stm32f4xx_hal_rcc_ex.c ****   * @retval None
 597:Drivers/STM32F4xx_HAL_Driver/Src/stm32f4xx_hal_rcc_ex.c ****   */
 598:Drivers/STM32F4xx_HAL_Driver/Src/stm32f4xx_hal_rcc_ex.c **** void HAL_RCCEx_GetPeriphCLKConfig(RCC_PeriphCLKInitTypeDef  *PeriphClkInit)
 599:Drivers/STM32F4xx_HAL_Driver/Src/stm32f4xx_hal_rcc_ex.c **** {
 1680              		.loc 1 599 0
 1681              		.cfi_startproc
 1682              		@ args = 0, pretend = 0, frame = 104
 1683              		@ frame_needed = 1, uses_anonymous_args = 0
 1684              		@ link register save eliminated.
 1685 0000 80B4     		push	{r7}
 1686              	.LCFI9:
 1687              		.cfi_def_cfa_offset 4
 1688              		.cfi_offset 7, -4
 1689 0002 9BB0     		sub	sp, sp, #108
 1690              	.LCFI10:
 1691              		.cfi_def_cfa_offset 112
 1692 0004 00AF     		add	r7, sp, #0
 1693              	.LCFI11:
 1694              		.cfi_def_cfa_register 7
 1695 0006 7860     		str	r0, [r7, #4]
 600:Drivers/STM32F4xx_HAL_Driver/Src/stm32f4xx_hal_rcc_ex.c ****   uint32_t tempreg;
 601:Drivers/STM32F4xx_HAL_Driver/Src/stm32f4xx_hal_rcc_ex.c ****   
 602:Drivers/STM32F4xx_HAL_Driver/Src/stm32f4xx_hal_rcc_ex.c ****   /* Set all possible values for the extended clock type parameter------------*/
 603:Drivers/STM32F4xx_HAL_Driver/Src/stm32f4xx_hal_rcc_ex.c ****   PeriphClkInit->PeriphClockSelection = RCC_PERIPHCLK_I2S_APB1 | RCC_PERIPHCLK_I2S_APB2 |\
 1696              		.loc 1 603 0
 1697 0008 7B68     		ldr	r3, [r7, #4]
 1698 000a 40F2FF72 		movw	r2, #2047
 1699 000e 1A60     		str	r2, [r3]
 604:Drivers/STM32F4xx_HAL_Driver/Src/stm32f4xx_hal_rcc_ex.c ****                                         RCC_PERIPHCLK_SAI1     | RCC_PERIPHCLK_SAI2     |\
 605:Drivers/STM32F4xx_HAL_Driver/Src/stm32f4xx_hal_rcc_ex.c ****                                         RCC_PERIPHCLK_TIM      | RCC_PERIPHCLK_RTC      |\
 606:Drivers/STM32F4xx_HAL_Driver/Src/stm32f4xx_hal_rcc_ex.c ****                                         RCC_PERIPHCLK_CEC      | RCC_PERIPHCLK_FMPI2C1  |\
 607:Drivers/STM32F4xx_HAL_Driver/Src/stm32f4xx_hal_rcc_ex.c ****                                         RCC_PERIPHCLK_CLK48     | RCC_PERIPHCLK_SDIO     |\
 608:Drivers/STM32F4xx_HAL_Driver/Src/stm32f4xx_hal_rcc_ex.c ****                                         RCC_PERIPHCLK_SPDIFRX;
 609:Drivers/STM32F4xx_HAL_Driver/Src/stm32f4xx_hal_rcc_ex.c ****   
 610:Drivers/STM32F4xx_HAL_Driver/Src/stm32f4xx_hal_rcc_ex.c ****   /* Get the PLLI2S Clock configuration --------------------------------------*/
 611:Drivers/STM32F4xx_HAL_Driver/Src/stm32f4xx_hal_rcc_ex.c ****   PeriphClkInit->PLLI2S.PLLI2SM = (uint32_t)((RCC->PLLI2SCFGR & RCC_PLLI2SCFGR_PLLI2SM) >> POSITION
 1700              		.loc 1 611 0
 1701 0010 974B     		ldr	r3, .L103
 1702 0012 D3F88430 		ldr	r3, [r3, #132]
 1703 0016 03F03F02 		and	r2, r3, #63
 1704 001a 3F23     		movs	r3, #63
 1705 001c 7B66     		str	r3, [r7, #100]
 1706              	.LBB181:
 1707              	.LBB182:
 531:Drivers/CMSIS/Include/cmsis_gcc.h **** #else
 1708              		.loc 2 531 0
 1709 001e 7B6E     		ldr	r3, [r7, #100]
 1710              		.syntax unified
 1711              	@ 531 "Drivers/CMSIS/Include/cmsis_gcc.h" 1
 1712 0020 93FAA3F3 		rbit r3, r3
 1713              	@ 0 "" 2
 1714              		.thumb
 1715              		.syntax unified
 1716 0024 FB60     		str	r3, [r7, #12]
 1717              		.loc 2 544 0
 1718 0026 FB68     		ldr	r3, [r7, #12]
ARM GAS  /tmp/cctwGTwd.s 			page 52


 1719              	.LBE182:
 1720              	.LBE181:
 1721              		.loc 1 611 0
 1722 0028 B3FA83F3 		clz	r3, r3
 1723 002c DA40     		lsrs	r2, r2, r3
 1724 002e 7B68     		ldr	r3, [r7, #4]
 1725 0030 5A60     		str	r2, [r3, #4]
 612:Drivers/STM32F4xx_HAL_Driver/Src/stm32f4xx_hal_rcc_ex.c ****   PeriphClkInit->PLLI2S.PLLI2SN = (uint32_t)((RCC->PLLI2SCFGR & RCC_PLLI2SCFGR_PLLI2SN) >> POSITION
 1726              		.loc 1 612 0
 1727 0032 8F4B     		ldr	r3, .L103
 1728 0034 D3F88420 		ldr	r2, [r3, #132]
 1729 0038 47F6C073 		movw	r3, #32704
 1730 003c 1340     		ands	r3, r3, r2
 1731 003e 47F6C072 		movw	r2, #32704
 1732 0042 3A66     		str	r2, [r7, #96]
 1733              	.LBB183:
 1734              	.LBB184:
 531:Drivers/CMSIS/Include/cmsis_gcc.h **** #else
 1735              		.loc 2 531 0
 1736 0044 3A6E     		ldr	r2, [r7, #96]
 1737              		.syntax unified
 1738              	@ 531 "Drivers/CMSIS/Include/cmsis_gcc.h" 1
 1739 0046 92FAA2F2 		rbit r2, r2
 1740              	@ 0 "" 2
 1741              		.thumb
 1742              		.syntax unified
 1743 004a 3A61     		str	r2, [r7, #16]
 1744              		.loc 2 544 0
 1745 004c 3A69     		ldr	r2, [r7, #16]
 1746              	.LBE184:
 1747              	.LBE183:
 1748              		.loc 1 612 0
 1749 004e B2FA82F2 		clz	r2, r2
 1750 0052 23FA02F2 		lsr	r2, r3, r2
 1751 0056 7B68     		ldr	r3, [r7, #4]
 1752 0058 9A60     		str	r2, [r3, #8]
 613:Drivers/STM32F4xx_HAL_Driver/Src/stm32f4xx_hal_rcc_ex.c ****   PeriphClkInit->PLLI2S.PLLI2SP = (uint32_t)((((RCC->PLLI2SCFGR & RCC_PLLI2SCFGR_PLLI2SP) >> POSITI
 1753              		.loc 1 613 0
 1754 005a 854B     		ldr	r3, .L103
 1755 005c D3F88430 		ldr	r3, [r3, #132]
 1756 0060 03F44032 		and	r2, r3, #196608
 1757 0064 4FF44033 		mov	r3, #196608
 1758 0068 FB65     		str	r3, [r7, #92]
 1759              	.LBB185:
 1760              	.LBB186:
 531:Drivers/CMSIS/Include/cmsis_gcc.h **** #else
 1761              		.loc 2 531 0
 1762 006a FB6D     		ldr	r3, [r7, #92]
 1763              		.syntax unified
 1764              	@ 531 "Drivers/CMSIS/Include/cmsis_gcc.h" 1
 1765 006c 93FAA3F3 		rbit r3, r3
 1766              	@ 0 "" 2
 1767              		.thumb
 1768              		.syntax unified
 1769 0070 7B61     		str	r3, [r7, #20]
 1770              		.loc 2 544 0
 1771 0072 7B69     		ldr	r3, [r7, #20]
ARM GAS  /tmp/cctwGTwd.s 			page 53


 1772              	.LBE186:
 1773              	.LBE185:
 1774              		.loc 1 613 0
 1775 0074 B3FA83F3 		clz	r3, r3
 1776 0078 22FA03F3 		lsr	r3, r2, r3
 1777 007c 0133     		adds	r3, r3, #1
 1778 007e 5A00     		lsls	r2, r3, #1
 1779 0080 7B68     		ldr	r3, [r7, #4]
 1780 0082 DA60     		str	r2, [r3, #12]
 614:Drivers/STM32F4xx_HAL_Driver/Src/stm32f4xx_hal_rcc_ex.c ****   PeriphClkInit->PLLI2S.PLLI2SQ = (uint32_t)((RCC->PLLI2SCFGR & RCC_PLLI2SCFGR_PLLI2SQ) >> POSITION
 1781              		.loc 1 614 0
 1782 0084 7A4B     		ldr	r3, .L103
 1783 0086 D3F88430 		ldr	r3, [r3, #132]
 1784 008a 03F07062 		and	r2, r3, #251658240
 1785 008e 4FF07063 		mov	r3, #251658240
 1786 0092 BB65     		str	r3, [r7, #88]
 1787              	.LBB187:
 1788              	.LBB188:
 531:Drivers/CMSIS/Include/cmsis_gcc.h **** #else
 1789              		.loc 2 531 0
 1790 0094 BB6D     		ldr	r3, [r7, #88]
 1791              		.syntax unified
 1792              	@ 531 "Drivers/CMSIS/Include/cmsis_gcc.h" 1
 1793 0096 93FAA3F3 		rbit r3, r3
 1794              	@ 0 "" 2
 1795              		.thumb
 1796              		.syntax unified
 1797 009a BB61     		str	r3, [r7, #24]
 1798              		.loc 2 544 0
 1799 009c BB69     		ldr	r3, [r7, #24]
 1800              	.LBE188:
 1801              	.LBE187:
 1802              		.loc 1 614 0
 1803 009e B3FA83F3 		clz	r3, r3
 1804 00a2 DA40     		lsrs	r2, r2, r3
 1805 00a4 7B68     		ldr	r3, [r7, #4]
 1806 00a6 1A61     		str	r2, [r3, #16]
 615:Drivers/STM32F4xx_HAL_Driver/Src/stm32f4xx_hal_rcc_ex.c ****   PeriphClkInit->PLLI2S.PLLI2SR = (uint32_t)((RCC->PLLI2SCFGR & RCC_PLLI2SCFGR_PLLI2SR) >> POSITION
 1807              		.loc 1 615 0
 1808 00a8 714B     		ldr	r3, .L103
 1809 00aa D3F88430 		ldr	r3, [r3, #132]
 1810 00ae 03F0E042 		and	r2, r3, #1879048192
 1811 00b2 4FF0E043 		mov	r3, #1879048192
 1812 00b6 7B65     		str	r3, [r7, #84]
 1813              	.LBB189:
 1814              	.LBB190:
 531:Drivers/CMSIS/Include/cmsis_gcc.h **** #else
 1815              		.loc 2 531 0
 1816 00b8 7B6D     		ldr	r3, [r7, #84]
 1817              		.syntax unified
 1818              	@ 531 "Drivers/CMSIS/Include/cmsis_gcc.h" 1
 1819 00ba 93FAA3F3 		rbit r3, r3
 1820              	@ 0 "" 2
 1821              		.thumb
 1822              		.syntax unified
 1823 00be FB61     		str	r3, [r7, #28]
 1824              		.loc 2 544 0
ARM GAS  /tmp/cctwGTwd.s 			page 54


 1825 00c0 FB69     		ldr	r3, [r7, #28]
 1826              	.LBE190:
 1827              	.LBE189:
 1828              		.loc 1 615 0
 1829 00c2 B3FA83F3 		clz	r3, r3
 1830 00c6 DA40     		lsrs	r2, r2, r3
 1831 00c8 7B68     		ldr	r3, [r7, #4]
 1832 00ca 5A61     		str	r2, [r3, #20]
 616:Drivers/STM32F4xx_HAL_Driver/Src/stm32f4xx_hal_rcc_ex.c ****   /* Get the PLLSAI Clock configuration --------------------------------------*/
 617:Drivers/STM32F4xx_HAL_Driver/Src/stm32f4xx_hal_rcc_ex.c ****   PeriphClkInit->PLLSAI.PLLSAIM = (uint32_t)((RCC->PLLSAICFGR & RCC_PLLSAICFGR_PLLSAIM) >> POSITION
 1833              		.loc 1 617 0
 1834 00cc 684B     		ldr	r3, .L103
 1835 00ce D3F88830 		ldr	r3, [r3, #136]
 1836 00d2 03F03F02 		and	r2, r3, #63
 1837 00d6 3F23     		movs	r3, #63
 1838 00d8 3B65     		str	r3, [r7, #80]
 1839              	.LBB191:
 1840              	.LBB192:
 531:Drivers/CMSIS/Include/cmsis_gcc.h **** #else
 1841              		.loc 2 531 0
 1842 00da 3B6D     		ldr	r3, [r7, #80]
 1843              		.syntax unified
 1844              	@ 531 "Drivers/CMSIS/Include/cmsis_gcc.h" 1
 1845 00dc 93FAA3F3 		rbit r3, r3
 1846              	@ 0 "" 2
 1847              		.thumb
 1848              		.syntax unified
 1849 00e0 3B62     		str	r3, [r7, #32]
 1850              		.loc 2 544 0
 1851 00e2 3B6A     		ldr	r3, [r7, #32]
 1852              	.LBE192:
 1853              	.LBE191:
 1854              		.loc 1 617 0
 1855 00e4 B3FA83F3 		clz	r3, r3
 1856 00e8 DA40     		lsrs	r2, r2, r3
 1857 00ea 7B68     		ldr	r3, [r7, #4]
 1858 00ec 9A61     		str	r2, [r3, #24]
 618:Drivers/STM32F4xx_HAL_Driver/Src/stm32f4xx_hal_rcc_ex.c ****   PeriphClkInit->PLLSAI.PLLSAIN = (uint32_t)((RCC->PLLSAICFGR & RCC_PLLSAICFGR_PLLSAIN) >> POSITION
 1859              		.loc 1 618 0
 1860 00ee 604B     		ldr	r3, .L103
 1861 00f0 D3F88820 		ldr	r2, [r3, #136]
 1862 00f4 47F6C073 		movw	r3, #32704
 1863 00f8 1340     		ands	r3, r3, r2
 1864 00fa 47F6C072 		movw	r2, #32704
 1865 00fe FA64     		str	r2, [r7, #76]
 1866              	.LBB193:
 1867              	.LBB194:
 531:Drivers/CMSIS/Include/cmsis_gcc.h **** #else
 1868              		.loc 2 531 0
 1869 0100 FA6C     		ldr	r2, [r7, #76]
 1870              		.syntax unified
 1871              	@ 531 "Drivers/CMSIS/Include/cmsis_gcc.h" 1
 1872 0102 92FAA2F2 		rbit r2, r2
 1873              	@ 0 "" 2
 1874              		.thumb
 1875              		.syntax unified
 1876 0106 7A62     		str	r2, [r7, #36]
ARM GAS  /tmp/cctwGTwd.s 			page 55


 1877              		.loc 2 544 0
 1878 0108 7A6A     		ldr	r2, [r7, #36]
 1879              	.LBE194:
 1880              	.LBE193:
 1881              		.loc 1 618 0
 1882 010a B2FA82F2 		clz	r2, r2
 1883 010e 23FA02F2 		lsr	r2, r3, r2
 1884 0112 7B68     		ldr	r3, [r7, #4]
 1885 0114 DA61     		str	r2, [r3, #28]
 619:Drivers/STM32F4xx_HAL_Driver/Src/stm32f4xx_hal_rcc_ex.c ****   PeriphClkInit->PLLSAI.PLLSAIP = (uint32_t)((((RCC->PLLSAICFGR & RCC_PLLSAICFGR_PLLSAIP) >> POSITI
 1886              		.loc 1 619 0
 1887 0116 564B     		ldr	r3, .L103
 1888 0118 D3F88830 		ldr	r3, [r3, #136]
 1889 011c 03F44032 		and	r2, r3, #196608
 1890 0120 4FF44033 		mov	r3, #196608
 1891 0124 BB64     		str	r3, [r7, #72]
 1892              	.LBB195:
 1893              	.LBB196:
 531:Drivers/CMSIS/Include/cmsis_gcc.h **** #else
 1894              		.loc 2 531 0
 1895 0126 BB6C     		ldr	r3, [r7, #72]
 1896              		.syntax unified
 1897              	@ 531 "Drivers/CMSIS/Include/cmsis_gcc.h" 1
 1898 0128 93FAA3F3 		rbit r3, r3
 1899              	@ 0 "" 2
 1900              		.thumb
 1901              		.syntax unified
 1902 012c BB62     		str	r3, [r7, #40]
 1903              		.loc 2 544 0
 1904 012e BB6A     		ldr	r3, [r7, #40]
 1905              	.LBE196:
 1906              	.LBE195:
 1907              		.loc 1 619 0
 1908 0130 B3FA83F3 		clz	r3, r3
 1909 0134 22FA03F3 		lsr	r3, r2, r3
 1910 0138 0133     		adds	r3, r3, #1
 1911 013a 5A00     		lsls	r2, r3, #1
 1912 013c 7B68     		ldr	r3, [r7, #4]
 1913 013e 1A62     		str	r2, [r3, #32]
 620:Drivers/STM32F4xx_HAL_Driver/Src/stm32f4xx_hal_rcc_ex.c ****   PeriphClkInit->PLLSAI.PLLSAIQ = (uint32_t)((RCC->PLLSAICFGR & RCC_PLLSAICFGR_PLLSAIQ) >> POSITION
 1914              		.loc 1 620 0
 1915 0140 4B4B     		ldr	r3, .L103
 1916 0142 D3F88830 		ldr	r3, [r3, #136]
 1917 0146 03F07062 		and	r2, r3, #251658240
 1918 014a 4FF07063 		mov	r3, #251658240
 1919 014e 7B64     		str	r3, [r7, #68]
 1920              	.LBB197:
 1921              	.LBB198:
 531:Drivers/CMSIS/Include/cmsis_gcc.h **** #else
 1922              		.loc 2 531 0
 1923 0150 7B6C     		ldr	r3, [r7, #68]
 1924              		.syntax unified
 1925              	@ 531 "Drivers/CMSIS/Include/cmsis_gcc.h" 1
 1926 0152 93FAA3F3 		rbit r3, r3
 1927              	@ 0 "" 2
 1928              		.thumb
 1929              		.syntax unified
ARM GAS  /tmp/cctwGTwd.s 			page 56


 1930 0156 FB62     		str	r3, [r7, #44]
 1931              		.loc 2 544 0
 1932 0158 FB6A     		ldr	r3, [r7, #44]
 1933              	.LBE198:
 1934              	.LBE197:
 1935              		.loc 1 620 0
 1936 015a B3FA83F3 		clz	r3, r3
 1937 015e DA40     		lsrs	r2, r2, r3
 1938 0160 7B68     		ldr	r3, [r7, #4]
 1939 0162 5A62     		str	r2, [r3, #36]
 621:Drivers/STM32F4xx_HAL_Driver/Src/stm32f4xx_hal_rcc_ex.c ****   /* Get the PLLSAI/PLLI2S division factors ----------------------------------*/
 622:Drivers/STM32F4xx_HAL_Driver/Src/stm32f4xx_hal_rcc_ex.c ****   PeriphClkInit->PLLI2SDivQ = (uint32_t)((RCC->DCKCFGR & RCC_DCKCFGR_PLLI2SDIVQ) >> POSITION_VAL(RC
 1940              		.loc 1 622 0
 1941 0164 424B     		ldr	r3, .L103
 1942 0166 D3F88C30 		ldr	r3, [r3, #140]
 1943 016a 03F01F02 		and	r2, r3, #31
 1944 016e 1F23     		movs	r3, #31
 1945 0170 3B64     		str	r3, [r7, #64]
 1946              	.LBB199:
 1947              	.LBB200:
 531:Drivers/CMSIS/Include/cmsis_gcc.h **** #else
 1948              		.loc 2 531 0
 1949 0172 3B6C     		ldr	r3, [r7, #64]
 1950              		.syntax unified
 1951              	@ 531 "Drivers/CMSIS/Include/cmsis_gcc.h" 1
 1952 0174 93FAA3F3 		rbit r3, r3
 1953              	@ 0 "" 2
 1954              		.thumb
 1955              		.syntax unified
 1956 0178 3B63     		str	r3, [r7, #48]
 1957              		.loc 2 544 0
 1958 017a 3B6B     		ldr	r3, [r7, #48]
 1959              	.LBE200:
 1960              	.LBE199:
 1961              		.loc 1 622 0
 1962 017c B3FA83F3 		clz	r3, r3
 1963 0180 DA40     		lsrs	r2, r2, r3
 1964 0182 7B68     		ldr	r3, [r7, #4]
 1965 0184 9A62     		str	r2, [r3, #40]
 623:Drivers/STM32F4xx_HAL_Driver/Src/stm32f4xx_hal_rcc_ex.c ****   PeriphClkInit->PLLSAIDivQ = (uint32_t)((RCC->DCKCFGR & RCC_DCKCFGR_PLLSAIDIVQ) >> POSITION_VAL(RC
 1966              		.loc 1 623 0
 1967 0186 3A4B     		ldr	r3, .L103
 1968 0188 D3F88C30 		ldr	r3, [r3, #140]
 1969 018c 03F4F852 		and	r2, r3, #7936
 1970 0190 4FF4F853 		mov	r3, #7936
 1971 0194 BB63     		str	r3, [r7, #56]
 1972              	.LBB201:
 1973              	.LBB202:
 531:Drivers/CMSIS/Include/cmsis_gcc.h **** #else
 1974              		.loc 2 531 0
 1975 0196 BB6B     		ldr	r3, [r7, #56]
 1976              		.syntax unified
 1977              	@ 531 "Drivers/CMSIS/Include/cmsis_gcc.h" 1
 1978 0198 93FAA3F3 		rbit r3, r3
 1979              	@ 0 "" 2
 1980              		.thumb
 1981              		.syntax unified
ARM GAS  /tmp/cctwGTwd.s 			page 57


 1982 019c 7B63     		str	r3, [r7, #52]
 1983              		.loc 2 544 0
 1984 019e 7B6B     		ldr	r3, [r7, #52]
 1985              	.LBE202:
 1986              	.LBE201:
 1987              		.loc 1 623 0
 1988 01a0 B3FA83F3 		clz	r3, r3
 1989 01a4 DA40     		lsrs	r2, r2, r3
 1990 01a6 7B68     		ldr	r3, [r7, #4]
 1991 01a8 DA62     		str	r2, [r3, #44]
 624:Drivers/STM32F4xx_HAL_Driver/Src/stm32f4xx_hal_rcc_ex.c **** 
 625:Drivers/STM32F4xx_HAL_Driver/Src/stm32f4xx_hal_rcc_ex.c ****   /* Get the SAI1 clock configuration ----------------------------------------*/
 626:Drivers/STM32F4xx_HAL_Driver/Src/stm32f4xx_hal_rcc_ex.c ****   PeriphClkInit->Sai1ClockSelection = __HAL_RCC_GET_SAI1_SOURCE();
 1992              		.loc 1 626 0
 1993 01aa 314B     		ldr	r3, .L103
 1994 01ac D3F88C30 		ldr	r3, [r3, #140]
 1995 01b0 03F44012 		and	r2, r3, #3145728
 1996 01b4 7B68     		ldr	r3, [r7, #4]
 1997 01b6 1A63     		str	r2, [r3, #48]
 627:Drivers/STM32F4xx_HAL_Driver/Src/stm32f4xx_hal_rcc_ex.c ****   
 628:Drivers/STM32F4xx_HAL_Driver/Src/stm32f4xx_hal_rcc_ex.c ****   /* Get the SAI2 clock configuration ----------------------------------------*/
 629:Drivers/STM32F4xx_HAL_Driver/Src/stm32f4xx_hal_rcc_ex.c ****   PeriphClkInit->Sai2ClockSelection = __HAL_RCC_GET_SAI2_SOURCE();
 1998              		.loc 1 629 0
 1999 01b8 2D4B     		ldr	r3, .L103
 2000 01ba D3F88C30 		ldr	r3, [r3, #140]
 2001 01be 03F44002 		and	r2, r3, #12582912
 2002 01c2 7B68     		ldr	r3, [r7, #4]
 2003 01c4 5A63     		str	r2, [r3, #52]
 630:Drivers/STM32F4xx_HAL_Driver/Src/stm32f4xx_hal_rcc_ex.c ****   
 631:Drivers/STM32F4xx_HAL_Driver/Src/stm32f4xx_hal_rcc_ex.c ****   /* Get the I2S APB1 clock configuration ------------------------------------*/
 632:Drivers/STM32F4xx_HAL_Driver/Src/stm32f4xx_hal_rcc_ex.c ****   PeriphClkInit->I2sApb1ClockSelection = __HAL_RCC_GET_I2S_APB1_SOURCE();
 2004              		.loc 1 632 0
 2005 01c6 2A4B     		ldr	r3, .L103
 2006 01c8 D3F88C30 		ldr	r3, [r3, #140]
 2007 01cc 03F0C062 		and	r2, r3, #100663296
 2008 01d0 7B68     		ldr	r3, [r7, #4]
 2009 01d2 9A63     		str	r2, [r3, #56]
 633:Drivers/STM32F4xx_HAL_Driver/Src/stm32f4xx_hal_rcc_ex.c ****   
 634:Drivers/STM32F4xx_HAL_Driver/Src/stm32f4xx_hal_rcc_ex.c ****   /* Get the I2S APB2 clock configuration ------------------------------------*/
 635:Drivers/STM32F4xx_HAL_Driver/Src/stm32f4xx_hal_rcc_ex.c ****   PeriphClkInit->I2sApb2ClockSelection = __HAL_RCC_GET_I2S_APB2_SOURCE();
 2010              		.loc 1 635 0
 2011 01d4 264B     		ldr	r3, .L103
 2012 01d6 D3F88C30 		ldr	r3, [r3, #140]
 2013 01da 03F0C052 		and	r2, r3, #402653184
 2014 01de 7B68     		ldr	r3, [r7, #4]
 2015 01e0 DA63     		str	r2, [r3, #60]
 636:Drivers/STM32F4xx_HAL_Driver/Src/stm32f4xx_hal_rcc_ex.c ****   
 637:Drivers/STM32F4xx_HAL_Driver/Src/stm32f4xx_hal_rcc_ex.c ****   /* Get the RTC Clock configuration -----------------------------------------*/
 638:Drivers/STM32F4xx_HAL_Driver/Src/stm32f4xx_hal_rcc_ex.c ****   tempreg = (RCC->CFGR & RCC_CFGR_RTCPRE);
 2016              		.loc 1 638 0
 2017 01e2 234B     		ldr	r3, .L103
 2018 01e4 9B68     		ldr	r3, [r3, #8]
 2019 01e6 03F4F813 		and	r3, r3, #2031616
 2020 01ea FB63     		str	r3, [r7, #60]
 639:Drivers/STM32F4xx_HAL_Driver/Src/stm32f4xx_hal_rcc_ex.c ****   PeriphClkInit->RTCClockSelection = (uint32_t)((tempreg) | (RCC->BDCR & RCC_BDCR_RTCSEL));
 2021              		.loc 1 639 0
 2022 01ec 204B     		ldr	r3, .L103
ARM GAS  /tmp/cctwGTwd.s 			page 58


 2023 01ee 1B6F     		ldr	r3, [r3, #112]
 2024 01f0 03F44072 		and	r2, r3, #768
 2025 01f4 FB6B     		ldr	r3, [r7, #60]
 2026 01f6 1A43     		orrs	r2, r2, r3
 2027 01f8 7B68     		ldr	r3, [r7, #4]
 2028 01fa 1A64     		str	r2, [r3, #64]
 640:Drivers/STM32F4xx_HAL_Driver/Src/stm32f4xx_hal_rcc_ex.c ****   
 641:Drivers/STM32F4xx_HAL_Driver/Src/stm32f4xx_hal_rcc_ex.c ****   /* Get the CEC clock configuration -----------------------------------------*/
 642:Drivers/STM32F4xx_HAL_Driver/Src/stm32f4xx_hal_rcc_ex.c ****   PeriphClkInit->CecClockSelection = __HAL_RCC_GET_CEC_SOURCE();
 2029              		.loc 1 642 0
 2030 01fc 1C4B     		ldr	r3, .L103
 2031 01fe D3F89430 		ldr	r3, [r3, #148]
 2032 0202 03F08062 		and	r2, r3, #67108864
 2033 0206 7B68     		ldr	r3, [r7, #4]
 2034 0208 9A64     		str	r2, [r3, #72]
 643:Drivers/STM32F4xx_HAL_Driver/Src/stm32f4xx_hal_rcc_ex.c ****   
 644:Drivers/STM32F4xx_HAL_Driver/Src/stm32f4xx_hal_rcc_ex.c ****   /* Get the FMPI2C1 clock configuration -------------------------------------*/
 645:Drivers/STM32F4xx_HAL_Driver/Src/stm32f4xx_hal_rcc_ex.c ****   PeriphClkInit->Fmpi2c1ClockSelection = __HAL_RCC_GET_FMPI2C1_SOURCE();
 2035              		.loc 1 645 0
 2036 020a 194B     		ldr	r3, .L103
 2037 020c D3F89430 		ldr	r3, [r3, #148]
 2038 0210 03F44002 		and	r2, r3, #12582912
 2039 0214 7B68     		ldr	r3, [r7, #4]
 2040 0216 DA64     		str	r2, [r3, #76]
 646:Drivers/STM32F4xx_HAL_Driver/Src/stm32f4xx_hal_rcc_ex.c ****   
 647:Drivers/STM32F4xx_HAL_Driver/Src/stm32f4xx_hal_rcc_ex.c ****   /* Get the CLK48 clock configuration ----------------------------------------*/
 648:Drivers/STM32F4xx_HAL_Driver/Src/stm32f4xx_hal_rcc_ex.c ****   PeriphClkInit->Clk48ClockSelection = __HAL_RCC_GET_CLK48_SOURCE();
 2041              		.loc 1 648 0
 2042 0218 154B     		ldr	r3, .L103
 2043 021a D3F89430 		ldr	r3, [r3, #148]
 2044 021e 03F00062 		and	r2, r3, #134217728
 2045 0222 7B68     		ldr	r3, [r7, #4]
 2046 0224 5A65     		str	r2, [r3, #84]
 649:Drivers/STM32F4xx_HAL_Driver/Src/stm32f4xx_hal_rcc_ex.c ****   
 650:Drivers/STM32F4xx_HAL_Driver/Src/stm32f4xx_hal_rcc_ex.c ****   /* Get the SDIO clock configuration ----------------------------------------*/
 651:Drivers/STM32F4xx_HAL_Driver/Src/stm32f4xx_hal_rcc_ex.c ****   PeriphClkInit->SdioClockSelection = __HAL_RCC_GET_SDIO_SOURCE();
 2047              		.loc 1 651 0
 2048 0226 124B     		ldr	r3, .L103
 2049 0228 D3F89430 		ldr	r3, [r3, #148]
 2050 022c 03F08052 		and	r2, r3, #268435456
 2051 0230 7B68     		ldr	r3, [r7, #4]
 2052 0232 5A64     		str	r2, [r3, #68]
 652:Drivers/STM32F4xx_HAL_Driver/Src/stm32f4xx_hal_rcc_ex.c ****   
 653:Drivers/STM32F4xx_HAL_Driver/Src/stm32f4xx_hal_rcc_ex.c ****   /* Get the SPDIFRX clock configuration -------------------------------------*/
 654:Drivers/STM32F4xx_HAL_Driver/Src/stm32f4xx_hal_rcc_ex.c ****   PeriphClkInit->SpdifClockSelection = __HAL_RCC_GET_SPDIFRX_SOURCE();
 2053              		.loc 1 654 0
 2054 0234 0E4B     		ldr	r3, .L103
 2055 0236 D3F89430 		ldr	r3, [r3, #148]
 2056 023a 03F00052 		and	r2, r3, #536870912
 2057 023e 7B68     		ldr	r3, [r7, #4]
 2058 0240 1A65     		str	r2, [r3, #80]
 655:Drivers/STM32F4xx_HAL_Driver/Src/stm32f4xx_hal_rcc_ex.c ****   
 656:Drivers/STM32F4xx_HAL_Driver/Src/stm32f4xx_hal_rcc_ex.c ****   /* Get the TIM Prescaler configuration -------------------------------------*/
 657:Drivers/STM32F4xx_HAL_Driver/Src/stm32f4xx_hal_rcc_ex.c ****   if ((RCC->DCKCFGR & RCC_DCKCFGR_TIMPRE) == RESET)
 2059              		.loc 1 657 0
 2060 0242 0B4B     		ldr	r3, .L103
 2061 0244 D3F88C30 		ldr	r3, [r3, #140]
ARM GAS  /tmp/cctwGTwd.s 			page 59


 2062 0248 03F08073 		and	r3, r3, #16777216
 2063 024c 002B     		cmp	r3, #0
 2064 024e 04D1     		bne	.L100
 658:Drivers/STM32F4xx_HAL_Driver/Src/stm32f4xx_hal_rcc_ex.c ****   {
 659:Drivers/STM32F4xx_HAL_Driver/Src/stm32f4xx_hal_rcc_ex.c ****     PeriphClkInit->TIMPresSelection = RCC_TIMPRES_DESACTIVATED;
 2065              		.loc 1 659 0
 2066 0250 7B68     		ldr	r3, [r7, #4]
 2067 0252 0022     		movs	r2, #0
 2068 0254 83F85820 		strb	r2, [r3, #88]
 660:Drivers/STM32F4xx_HAL_Driver/Src/stm32f4xx_hal_rcc_ex.c ****   }
 661:Drivers/STM32F4xx_HAL_Driver/Src/stm32f4xx_hal_rcc_ex.c ****   else
 662:Drivers/STM32F4xx_HAL_Driver/Src/stm32f4xx_hal_rcc_ex.c ****   {
 663:Drivers/STM32F4xx_HAL_Driver/Src/stm32f4xx_hal_rcc_ex.c ****     PeriphClkInit->TIMPresSelection = RCC_TIMPRES_ACTIVATED;
 664:Drivers/STM32F4xx_HAL_Driver/Src/stm32f4xx_hal_rcc_ex.c ****   }
 665:Drivers/STM32F4xx_HAL_Driver/Src/stm32f4xx_hal_rcc_ex.c **** }
 2069              		.loc 1 665 0
 2070 0258 03E0     		b	.L102
 2071              	.L100:
 663:Drivers/STM32F4xx_HAL_Driver/Src/stm32f4xx_hal_rcc_ex.c ****   }
 2072              		.loc 1 663 0
 2073 025a 7B68     		ldr	r3, [r7, #4]
 2074 025c 0122     		movs	r2, #1
 2075 025e 83F85820 		strb	r2, [r3, #88]
 2076              	.L102:
 2077              		.loc 1 665 0
 2078 0262 00BF     		nop
 2079 0264 6C37     		adds	r7, r7, #108
 2080              	.LCFI12:
 2081              		.cfi_def_cfa_offset 4
 2082 0266 BD46     		mov	sp, r7
 2083              	.LCFI13:
 2084              		.cfi_def_cfa_register 13
 2085              		@ sp needed
 2086 0268 5DF8047B 		ldr	r7, [sp], #4
 2087              	.LCFI14:
 2088              		.cfi_restore 7
 2089              		.cfi_def_cfa_offset 0
 2090 026c 7047     		bx	lr
 2091              	.L104:
 2092 026e 00BF     		.align	2
 2093              	.L103:
 2094 0270 00380240 		.word	1073887232
 2095              		.cfi_endproc
 2096              	.LFE128:
 2098              		.section	.text.HAL_RCCEx_GetPeriphCLKFreq,"ax",%progbits
 2099              		.align	2
 2100              		.global	HAL_RCCEx_GetPeriphCLKFreq
 2101              		.thumb
 2102              		.thumb_func
 2104              	HAL_RCCEx_GetPeriphCLKFreq:
 2105              	.LFB129:
 666:Drivers/STM32F4xx_HAL_Driver/Src/stm32f4xx_hal_rcc_ex.c **** 
 667:Drivers/STM32F4xx_HAL_Driver/Src/stm32f4xx_hal_rcc_ex.c **** /**
 668:Drivers/STM32F4xx_HAL_Driver/Src/stm32f4xx_hal_rcc_ex.c ****   * @brief  Return the peripheral clock frequency for a given peripheral(SAI..) 
 669:Drivers/STM32F4xx_HAL_Driver/Src/stm32f4xx_hal_rcc_ex.c ****   * @note   Return 0 if peripheral clock identifier not managed by this API
 670:Drivers/STM32F4xx_HAL_Driver/Src/stm32f4xx_hal_rcc_ex.c ****   * @param  PeriphClk: Peripheral clock identifier
 671:Drivers/STM32F4xx_HAL_Driver/Src/stm32f4xx_hal_rcc_ex.c ****   *         This parameter can be one of the following values:
ARM GAS  /tmp/cctwGTwd.s 			page 60


 672:Drivers/STM32F4xx_HAL_Driver/Src/stm32f4xx_hal_rcc_ex.c ****   *            @arg RCC_PERIPHCLK_SAI1: SAI1 peripheral clock
 673:Drivers/STM32F4xx_HAL_Driver/Src/stm32f4xx_hal_rcc_ex.c ****   *            @arg RCC_PERIPHCLK_SAI2: SAI2 peripheral clock
 674:Drivers/STM32F4xx_HAL_Driver/Src/stm32f4xx_hal_rcc_ex.c ****   * @retval Frequency in KHz
 675:Drivers/STM32F4xx_HAL_Driver/Src/stm32f4xx_hal_rcc_ex.c ****   */
 676:Drivers/STM32F4xx_HAL_Driver/Src/stm32f4xx_hal_rcc_ex.c **** uint32_t HAL_RCCEx_GetPeriphCLKFreq(uint32_t PeriphClk)
 677:Drivers/STM32F4xx_HAL_Driver/Src/stm32f4xx_hal_rcc_ex.c **** {
 2106              		.loc 1 677 0
 2107              		.cfi_startproc
 2108              		@ args = 0, pretend = 0, frame = 24
 2109              		@ frame_needed = 1, uses_anonymous_args = 0
 2110              		@ link register save eliminated.
 2111 0000 80B4     		push	{r7}
 2112              	.LCFI15:
 2113              		.cfi_def_cfa_offset 4
 2114              		.cfi_offset 7, -4
 2115 0002 87B0     		sub	sp, sp, #28
 2116              	.LCFI16:
 2117              		.cfi_def_cfa_offset 32
 2118 0004 00AF     		add	r7, sp, #0
 2119              	.LCFI17:
 2120              		.cfi_def_cfa_register 7
 2121 0006 7860     		str	r0, [r7, #4]
 678:Drivers/STM32F4xx_HAL_Driver/Src/stm32f4xx_hal_rcc_ex.c ****   uint32_t tmpreg1 = 0U;
 2122              		.loc 1 678 0
 2123 0008 0023     		movs	r3, #0
 2124 000a FB60     		str	r3, [r7, #12]
 679:Drivers/STM32F4xx_HAL_Driver/Src/stm32f4xx_hal_rcc_ex.c ****   /* This variable used to store the SAI clock frequency (value in Hz) */
 680:Drivers/STM32F4xx_HAL_Driver/Src/stm32f4xx_hal_rcc_ex.c ****   uint32_t frequency = 0U;
 2125              		.loc 1 680 0
 2126 000c 0023     		movs	r3, #0
 2127 000e 7B61     		str	r3, [r7, #20]
 681:Drivers/STM32F4xx_HAL_Driver/Src/stm32f4xx_hal_rcc_ex.c ****   /* This variable used to store the VCO Input (value in Hz) */
 682:Drivers/STM32F4xx_HAL_Driver/Src/stm32f4xx_hal_rcc_ex.c ****   uint32_t vcoinput = 0U;
 2128              		.loc 1 682 0
 2129 0010 0023     		movs	r3, #0
 2130 0012 3B61     		str	r3, [r7, #16]
 683:Drivers/STM32F4xx_HAL_Driver/Src/stm32f4xx_hal_rcc_ex.c ****   /* This variable used to store the SAI clock source */
 684:Drivers/STM32F4xx_HAL_Driver/Src/stm32f4xx_hal_rcc_ex.c ****   uint32_t saiclocksource = 0U;
 2131              		.loc 1 684 0
 2132 0014 0023     		movs	r3, #0
 2133 0016 BB60     		str	r3, [r7, #8]
 685:Drivers/STM32F4xx_HAL_Driver/Src/stm32f4xx_hal_rcc_ex.c ****   if ((PeriphClk == RCC_PERIPHCLK_SAI1) || (PeriphClk == RCC_PERIPHCLK_SAI2))
 2134              		.loc 1 685 0
 2135 0018 7B68     		ldr	r3, [r7, #4]
 2136 001a 042B     		cmp	r3, #4
 2137 001c 03D0     		beq	.L106
 2138              		.loc 1 685 0 is_stmt 0 discriminator 1
 2139 001e 7B68     		ldr	r3, [r7, #4]
 2140 0020 082B     		cmp	r3, #8
 2141 0022 40F0D680 		bne	.L107
 2142              	.L106:
 686:Drivers/STM32F4xx_HAL_Driver/Src/stm32f4xx_hal_rcc_ex.c ****   {
 687:Drivers/STM32F4xx_HAL_Driver/Src/stm32f4xx_hal_rcc_ex.c ****     saiclocksource = RCC->DCKCFGR;   
 2143              		.loc 1 687 0 is_stmt 1
 2144 0026 6E4B     		ldr	r3, .L125
 2145 0028 D3F88C30 		ldr	r3, [r3, #140]
 2146 002c BB60     		str	r3, [r7, #8]
ARM GAS  /tmp/cctwGTwd.s 			page 61


 688:Drivers/STM32F4xx_HAL_Driver/Src/stm32f4xx_hal_rcc_ex.c ****     saiclocksource &= (RCC_DCKCFGR_SAI1SRC | RCC_DCKCFGR_SAI2SRC);
 2147              		.loc 1 688 0
 2148 002e BB68     		ldr	r3, [r7, #8]
 2149 0030 03F47003 		and	r3, r3, #15728640
 2150 0034 BB60     		str	r3, [r7, #8]
 689:Drivers/STM32F4xx_HAL_Driver/Src/stm32f4xx_hal_rcc_ex.c ****     switch (saiclocksource)
 2151              		.loc 1 689 0
 2152 0036 BB68     		ldr	r3, [r7, #8]
 2153 0038 B3F5401F 		cmp	r3, #3145728
 2154 003c 00F0BA80 		beq	.L109
 2155 0040 B3F5401F 		cmp	r3, #3145728
 2156 0044 09D8     		bhi	.L110
 2157 0046 B3F5801F 		cmp	r3, #1048576
 2158 004a 4DD0     		beq	.L111
 2159 004c B3F5001F 		cmp	r3, #2097152
 2160 0050 00F08580 		beq	.L112
 2161 0054 002B     		cmp	r3, #0
 2162 0056 0BD0     		beq	.L113
 690:Drivers/STM32F4xx_HAL_Driver/Src/stm32f4xx_hal_rcc_ex.c ****     {
 691:Drivers/STM32F4xx_HAL_Driver/Src/stm32f4xx_hal_rcc_ex.c ****     case 0U: /* PLLSAI is the clock source for SAI*/ 
 692:Drivers/STM32F4xx_HAL_Driver/Src/stm32f4xx_hal_rcc_ex.c ****       {
 693:Drivers/STM32F4xx_HAL_Driver/Src/stm32f4xx_hal_rcc_ex.c ****         /* Configure the PLLSAI division factor */
 694:Drivers/STM32F4xx_HAL_Driver/Src/stm32f4xx_hal_rcc_ex.c ****         /* PLLSAI_VCO Input  = PLL_SOURCE/PLLSAIM */ 
 695:Drivers/STM32F4xx_HAL_Driver/Src/stm32f4xx_hal_rcc_ex.c ****         if((RCC->PLLCFGR & RCC_PLLCFGR_PLLSRC) == RCC_PLLSOURCE_HSI)
 696:Drivers/STM32F4xx_HAL_Driver/Src/stm32f4xx_hal_rcc_ex.c ****         {
 697:Drivers/STM32F4xx_HAL_Driver/Src/stm32f4xx_hal_rcc_ex.c ****           /* In Case the PLL Source is HSI (Internal Clock) */
 698:Drivers/STM32F4xx_HAL_Driver/Src/stm32f4xx_hal_rcc_ex.c ****           vcoinput = (HSI_VALUE / (uint32_t)(RCC->PLLSAICFGR & RCC_PLLSAICFGR_PLLSAIM));
 699:Drivers/STM32F4xx_HAL_Driver/Src/stm32f4xx_hal_rcc_ex.c ****         }
 700:Drivers/STM32F4xx_HAL_Driver/Src/stm32f4xx_hal_rcc_ex.c ****         else
 701:Drivers/STM32F4xx_HAL_Driver/Src/stm32f4xx_hal_rcc_ex.c ****         {
 702:Drivers/STM32F4xx_HAL_Driver/Src/stm32f4xx_hal_rcc_ex.c ****           /* In Case the PLL Source is HSE (External Clock) */
 703:Drivers/STM32F4xx_HAL_Driver/Src/stm32f4xx_hal_rcc_ex.c ****           vcoinput = ((HSE_VALUE / (uint32_t)(RCC->PLLSAICFGR & RCC_PLLSAICFGR_PLLSAIM)));
 704:Drivers/STM32F4xx_HAL_Driver/Src/stm32f4xx_hal_rcc_ex.c ****         }   
 705:Drivers/STM32F4xx_HAL_Driver/Src/stm32f4xx_hal_rcc_ex.c ****         /* PLLSAI_VCO Output = PLLSAI_VCO Input * PLLSAIN */
 706:Drivers/STM32F4xx_HAL_Driver/Src/stm32f4xx_hal_rcc_ex.c ****         /* SAI_CLK(first level) = PLLSAI_VCO Output/PLLSAIQ */
 707:Drivers/STM32F4xx_HAL_Driver/Src/stm32f4xx_hal_rcc_ex.c ****         tmpreg1 = (RCC->PLLSAICFGR & RCC_PLLSAICFGR_PLLSAIQ) >> 24U;
 708:Drivers/STM32F4xx_HAL_Driver/Src/stm32f4xx_hal_rcc_ex.c ****         frequency = (vcoinput * ((RCC->PLLSAICFGR & RCC_PLLSAICFGR_PLLSAIN) >> 6U))/(tmpreg1);
 709:Drivers/STM32F4xx_HAL_Driver/Src/stm32f4xx_hal_rcc_ex.c ****         
 710:Drivers/STM32F4xx_HAL_Driver/Src/stm32f4xx_hal_rcc_ex.c ****         /* SAI_CLK_x = SAI_CLK(first level)/PLLSAIDIVQ */
 711:Drivers/STM32F4xx_HAL_Driver/Src/stm32f4xx_hal_rcc_ex.c ****         tmpreg1 = (((RCC->DCKCFGR & RCC_DCKCFGR_PLLSAIDIVQ) >> 8U) + 1U);
 712:Drivers/STM32F4xx_HAL_Driver/Src/stm32f4xx_hal_rcc_ex.c ****         frequency = frequency/(tmpreg1); 
 713:Drivers/STM32F4xx_HAL_Driver/Src/stm32f4xx_hal_rcc_ex.c ****         break;       
 714:Drivers/STM32F4xx_HAL_Driver/Src/stm32f4xx_hal_rcc_ex.c ****       }
 715:Drivers/STM32F4xx_HAL_Driver/Src/stm32f4xx_hal_rcc_ex.c ****     case RCC_DCKCFGR_SAI1SRC_0: /* PLLI2S is the clock source for SAI*/
 716:Drivers/STM32F4xx_HAL_Driver/Src/stm32f4xx_hal_rcc_ex.c ****     case RCC_DCKCFGR_SAI2SRC_0: /* PLLI2S is the clock source for SAI*/
 717:Drivers/STM32F4xx_HAL_Driver/Src/stm32f4xx_hal_rcc_ex.c ****       {  
 718:Drivers/STM32F4xx_HAL_Driver/Src/stm32f4xx_hal_rcc_ex.c ****         /* Configure the PLLI2S division factor */
 719:Drivers/STM32F4xx_HAL_Driver/Src/stm32f4xx_hal_rcc_ex.c ****         /* PLLI2S_VCO Input  = PLL_SOURCE/PLLI2SM */ 
 720:Drivers/STM32F4xx_HAL_Driver/Src/stm32f4xx_hal_rcc_ex.c ****         if((RCC->PLLCFGR & RCC_PLLCFGR_PLLSRC) == RCC_PLLSOURCE_HSI)
 721:Drivers/STM32F4xx_HAL_Driver/Src/stm32f4xx_hal_rcc_ex.c ****         {
 722:Drivers/STM32F4xx_HAL_Driver/Src/stm32f4xx_hal_rcc_ex.c ****           /* In Case the PLL Source is HSI (Internal Clock) */
 723:Drivers/STM32F4xx_HAL_Driver/Src/stm32f4xx_hal_rcc_ex.c ****           vcoinput = (HSI_VALUE / (uint32_t)(RCC->PLLI2SCFGR & RCC_PLLI2SCFGR_PLLI2SM));
 724:Drivers/STM32F4xx_HAL_Driver/Src/stm32f4xx_hal_rcc_ex.c ****         }
 725:Drivers/STM32F4xx_HAL_Driver/Src/stm32f4xx_hal_rcc_ex.c ****         else
 726:Drivers/STM32F4xx_HAL_Driver/Src/stm32f4xx_hal_rcc_ex.c ****         {
 727:Drivers/STM32F4xx_HAL_Driver/Src/stm32f4xx_hal_rcc_ex.c ****           /* In Case the PLL Source is HSE (External Clock) */
 728:Drivers/STM32F4xx_HAL_Driver/Src/stm32f4xx_hal_rcc_ex.c ****           vcoinput = ((HSE_VALUE / (uint32_t)(RCC->PLLI2SCFGR & RCC_PLLI2SCFGR_PLLI2SM)));
ARM GAS  /tmp/cctwGTwd.s 			page 62


 729:Drivers/STM32F4xx_HAL_Driver/Src/stm32f4xx_hal_rcc_ex.c ****         }
 730:Drivers/STM32F4xx_HAL_Driver/Src/stm32f4xx_hal_rcc_ex.c ****         
 731:Drivers/STM32F4xx_HAL_Driver/Src/stm32f4xx_hal_rcc_ex.c ****         /* PLLI2S_VCO Output = PLLI2S_VCO Input * PLLI2SN */
 732:Drivers/STM32F4xx_HAL_Driver/Src/stm32f4xx_hal_rcc_ex.c ****         /* SAI_CLK(first level) = PLLI2S_VCO Output/PLLI2SQ */
 733:Drivers/STM32F4xx_HAL_Driver/Src/stm32f4xx_hal_rcc_ex.c ****         tmpreg1 = (RCC->PLLI2SCFGR & RCC_PLLI2SCFGR_PLLI2SQ) >> 24U;
 734:Drivers/STM32F4xx_HAL_Driver/Src/stm32f4xx_hal_rcc_ex.c ****         frequency = (vcoinput * ((RCC->PLLI2SCFGR & RCC_PLLI2SCFGR_PLLI2SN) >> 6U))/(tmpreg1);
 735:Drivers/STM32F4xx_HAL_Driver/Src/stm32f4xx_hal_rcc_ex.c ****         
 736:Drivers/STM32F4xx_HAL_Driver/Src/stm32f4xx_hal_rcc_ex.c ****         /* SAI_CLK_x = SAI_CLK(first level)/PLLI2SDIVQ */
 737:Drivers/STM32F4xx_HAL_Driver/Src/stm32f4xx_hal_rcc_ex.c ****         tmpreg1 = ((RCC->DCKCFGR & RCC_DCKCFGR_PLLI2SDIVQ) + 1U); 
 738:Drivers/STM32F4xx_HAL_Driver/Src/stm32f4xx_hal_rcc_ex.c ****         frequency = frequency/(tmpreg1);
 739:Drivers/STM32F4xx_HAL_Driver/Src/stm32f4xx_hal_rcc_ex.c ****         break;   
 740:Drivers/STM32F4xx_HAL_Driver/Src/stm32f4xx_hal_rcc_ex.c ****       }
 741:Drivers/STM32F4xx_HAL_Driver/Src/stm32f4xx_hal_rcc_ex.c ****     case RCC_DCKCFGR_SAI1SRC_1: /* PLLR is the clock source for SAI*/
 742:Drivers/STM32F4xx_HAL_Driver/Src/stm32f4xx_hal_rcc_ex.c ****     case RCC_DCKCFGR_SAI2SRC_1: /* PLLR is the clock source for SAI*/
 743:Drivers/STM32F4xx_HAL_Driver/Src/stm32f4xx_hal_rcc_ex.c ****       {
 744:Drivers/STM32F4xx_HAL_Driver/Src/stm32f4xx_hal_rcc_ex.c ****         /* Configure the PLLI2S division factor */
 745:Drivers/STM32F4xx_HAL_Driver/Src/stm32f4xx_hal_rcc_ex.c ****         /* PLL_VCO Input  = PLL_SOURCE/PLLM */ 
 746:Drivers/STM32F4xx_HAL_Driver/Src/stm32f4xx_hal_rcc_ex.c ****         if((RCC->PLLCFGR & RCC_PLLCFGR_PLLSRC) == RCC_PLLSOURCE_HSI)
 747:Drivers/STM32F4xx_HAL_Driver/Src/stm32f4xx_hal_rcc_ex.c ****         {
 748:Drivers/STM32F4xx_HAL_Driver/Src/stm32f4xx_hal_rcc_ex.c ****           /* In Case the PLL Source is HSI (Internal Clock) */
 749:Drivers/STM32F4xx_HAL_Driver/Src/stm32f4xx_hal_rcc_ex.c ****           vcoinput = (HSI_VALUE / (uint32_t)(RCC->PLLCFGR & RCC_PLLCFGR_PLLM));
 750:Drivers/STM32F4xx_HAL_Driver/Src/stm32f4xx_hal_rcc_ex.c ****         }
 751:Drivers/STM32F4xx_HAL_Driver/Src/stm32f4xx_hal_rcc_ex.c ****         else
 752:Drivers/STM32F4xx_HAL_Driver/Src/stm32f4xx_hal_rcc_ex.c ****         {
 753:Drivers/STM32F4xx_HAL_Driver/Src/stm32f4xx_hal_rcc_ex.c ****           /* In Case the PLL Source is HSE (External Clock) */
 754:Drivers/STM32F4xx_HAL_Driver/Src/stm32f4xx_hal_rcc_ex.c ****           vcoinput = ((HSE_VALUE / (uint32_t)(RCC->PLLCFGR & RCC_PLLCFGR_PLLM)));
 755:Drivers/STM32F4xx_HAL_Driver/Src/stm32f4xx_hal_rcc_ex.c ****         }
 756:Drivers/STM32F4xx_HAL_Driver/Src/stm32f4xx_hal_rcc_ex.c ****         
 757:Drivers/STM32F4xx_HAL_Driver/Src/stm32f4xx_hal_rcc_ex.c ****         /* PLL_VCO Output = PLL_VCO Input * PLLN */
 758:Drivers/STM32F4xx_HAL_Driver/Src/stm32f4xx_hal_rcc_ex.c ****         /* SAI_CLK_x = PLL_VCO Output/PLLR */
 759:Drivers/STM32F4xx_HAL_Driver/Src/stm32f4xx_hal_rcc_ex.c ****         tmpreg1 = (RCC->PLLCFGR & RCC_PLLCFGR_PLLR) >> 28U;
 760:Drivers/STM32F4xx_HAL_Driver/Src/stm32f4xx_hal_rcc_ex.c ****         frequency = (vcoinput * ((RCC->PLLCFGR & RCC_PLLCFGR_PLLN) >> 6U))/(tmpreg1);
 761:Drivers/STM32F4xx_HAL_Driver/Src/stm32f4xx_hal_rcc_ex.c ****         break;       
 762:Drivers/STM32F4xx_HAL_Driver/Src/stm32f4xx_hal_rcc_ex.c ****       }
 763:Drivers/STM32F4xx_HAL_Driver/Src/stm32f4xx_hal_rcc_ex.c ****     case RCC_DCKCFGR_SAI1SRC: /* External clock is the clock source for SAI*/
 764:Drivers/STM32F4xx_HAL_Driver/Src/stm32f4xx_hal_rcc_ex.c ****       {
 765:Drivers/STM32F4xx_HAL_Driver/Src/stm32f4xx_hal_rcc_ex.c ****         frequency = EXTERNAL_CLOCK_VALUE;
 766:Drivers/STM32F4xx_HAL_Driver/Src/stm32f4xx_hal_rcc_ex.c ****         break;      
 767:Drivers/STM32F4xx_HAL_Driver/Src/stm32f4xx_hal_rcc_ex.c ****       }
 768:Drivers/STM32F4xx_HAL_Driver/Src/stm32f4xx_hal_rcc_ex.c ****     case RCC_DCKCFGR_SAI2SRC: /* PLLSRC(HSE or HSI) is the clock source for SAI*/
 769:Drivers/STM32F4xx_HAL_Driver/Src/stm32f4xx_hal_rcc_ex.c ****       {
 770:Drivers/STM32F4xx_HAL_Driver/Src/stm32f4xx_hal_rcc_ex.c ****         if((RCC->PLLCFGR & RCC_PLLCFGR_PLLSRC) == RCC_PLLSOURCE_HSI)
 771:Drivers/STM32F4xx_HAL_Driver/Src/stm32f4xx_hal_rcc_ex.c ****         {
 772:Drivers/STM32F4xx_HAL_Driver/Src/stm32f4xx_hal_rcc_ex.c ****           /* In Case the PLL Source is HSI (Internal Clock) */
 773:Drivers/STM32F4xx_HAL_Driver/Src/stm32f4xx_hal_rcc_ex.c ****           frequency = (uint32_t)(HSI_VALUE);
 774:Drivers/STM32F4xx_HAL_Driver/Src/stm32f4xx_hal_rcc_ex.c ****         }
 775:Drivers/STM32F4xx_HAL_Driver/Src/stm32f4xx_hal_rcc_ex.c ****         else
 776:Drivers/STM32F4xx_HAL_Driver/Src/stm32f4xx_hal_rcc_ex.c ****         {
 777:Drivers/STM32F4xx_HAL_Driver/Src/stm32f4xx_hal_rcc_ex.c ****           /* In Case the PLL Source is HSE (External Clock) */
 778:Drivers/STM32F4xx_HAL_Driver/Src/stm32f4xx_hal_rcc_ex.c ****           frequency = (uint32_t)(HSE_VALUE);
 779:Drivers/STM32F4xx_HAL_Driver/Src/stm32f4xx_hal_rcc_ex.c ****         }
 780:Drivers/STM32F4xx_HAL_Driver/Src/stm32f4xx_hal_rcc_ex.c ****         break;      
 781:Drivers/STM32F4xx_HAL_Driver/Src/stm32f4xx_hal_rcc_ex.c ****       }     
 782:Drivers/STM32F4xx_HAL_Driver/Src/stm32f4xx_hal_rcc_ex.c ****     default :
 783:Drivers/STM32F4xx_HAL_Driver/Src/stm32f4xx_hal_rcc_ex.c ****       {
 784:Drivers/STM32F4xx_HAL_Driver/Src/stm32f4xx_hal_rcc_ex.c ****         break;
 2163              		.loc 1 784 0
ARM GAS  /tmp/cctwGTwd.s 			page 63


 2164 0058 BBE0     		b	.L107
 2165              	.L110:
 689:Drivers/STM32F4xx_HAL_Driver/Src/stm32f4xx_hal_rcc_ex.c ****     switch (saiclocksource)
 2166              		.loc 1 689 0
 2167 005a B3F5000F 		cmp	r3, #8388608
 2168 005e 7ED0     		beq	.L112
 2169 0060 B3F5400F 		cmp	r3, #12582912
 2170 0064 00F0A980 		beq	.L114
 2171 0068 B3F5800F 		cmp	r3, #4194304
 2172 006c 3CD0     		beq	.L111
 2173              		.loc 1 784 0
 2174 006e B0E0     		b	.L107
 2175              	.L113:
 695:Drivers/STM32F4xx_HAL_Driver/Src/stm32f4xx_hal_rcc_ex.c ****         {
 2176              		.loc 1 695 0
 2177 0070 5B4B     		ldr	r3, .L125
 2178 0072 5B68     		ldr	r3, [r3, #4]
 2179 0074 03F48003 		and	r3, r3, #4194304
 2180 0078 002B     		cmp	r3, #0
 2181 007a 09D1     		bne	.L115
 698:Drivers/STM32F4xx_HAL_Driver/Src/stm32f4xx_hal_rcc_ex.c ****         }
 2182              		.loc 1 698 0
 2183 007c 584B     		ldr	r3, .L125
 2184 007e D3F88830 		ldr	r3, [r3, #136]
 2185 0082 03F03F03 		and	r3, r3, #63
 2186 0086 574A     		ldr	r2, .L125+4
 2187 0088 B2FBF3F3 		udiv	r3, r2, r3
 2188 008c 3B61     		str	r3, [r7, #16]
 2189 008e 08E0     		b	.L116
 2190              	.L115:
 703:Drivers/STM32F4xx_HAL_Driver/Src/stm32f4xx_hal_rcc_ex.c ****         }   
 2191              		.loc 1 703 0
 2192 0090 534B     		ldr	r3, .L125
 2193 0092 D3F88830 		ldr	r3, [r3, #136]
 2194 0096 03F03F03 		and	r3, r3, #63
 2195 009a 534A     		ldr	r2, .L125+8
 2196 009c B2FBF3F3 		udiv	r3, r2, r3
 2197 00a0 3B61     		str	r3, [r7, #16]
 2198              	.L116:
 707:Drivers/STM32F4xx_HAL_Driver/Src/stm32f4xx_hal_rcc_ex.c ****         frequency = (vcoinput * ((RCC->PLLSAICFGR & RCC_PLLSAICFGR_PLLSAIN) >> 6U))/(tmpreg1);
 2199              		.loc 1 707 0
 2200 00a2 4F4B     		ldr	r3, .L125
 2201 00a4 D3F88830 		ldr	r3, [r3, #136]
 2202 00a8 03F07063 		and	r3, r3, #251658240
 2203 00ac 1B0E     		lsrs	r3, r3, #24
 2204 00ae FB60     		str	r3, [r7, #12]
 708:Drivers/STM32F4xx_HAL_Driver/Src/stm32f4xx_hal_rcc_ex.c ****         
 2205              		.loc 1 708 0
 2206 00b0 4B4B     		ldr	r3, .L125
 2207 00b2 D3F88820 		ldr	r2, [r3, #136]
 2208 00b6 47F6C073 		movw	r3, #32704
 2209 00ba 1340     		ands	r3, r3, r2
 2210 00bc 9B09     		lsrs	r3, r3, #6
 2211 00be 3A69     		ldr	r2, [r7, #16]
 2212 00c0 02FB03F2 		mul	r2, r2, r3
 2213 00c4 FB68     		ldr	r3, [r7, #12]
 2214 00c6 B2FBF3F3 		udiv	r3, r2, r3
ARM GAS  /tmp/cctwGTwd.s 			page 64


 2215 00ca 7B61     		str	r3, [r7, #20]
 711:Drivers/STM32F4xx_HAL_Driver/Src/stm32f4xx_hal_rcc_ex.c ****         frequency = frequency/(tmpreg1); 
 2216              		.loc 1 711 0
 2217 00cc 444B     		ldr	r3, .L125
 2218 00ce D3F88C30 		ldr	r3, [r3, #140]
 2219 00d2 03F4F853 		and	r3, r3, #7936
 2220 00d6 1B0A     		lsrs	r3, r3, #8
 2221 00d8 0133     		adds	r3, r3, #1
 2222 00da FB60     		str	r3, [r7, #12]
 712:Drivers/STM32F4xx_HAL_Driver/Src/stm32f4xx_hal_rcc_ex.c ****         break;       
 2223              		.loc 1 712 0
 2224 00dc 7A69     		ldr	r2, [r7, #20]
 2225 00de FB68     		ldr	r3, [r7, #12]
 2226 00e0 B2FBF3F3 		udiv	r3, r2, r3
 2227 00e4 7B61     		str	r3, [r7, #20]
 713:Drivers/STM32F4xx_HAL_Driver/Src/stm32f4xx_hal_rcc_ex.c ****       }
 2228              		.loc 1 713 0
 2229 00e6 74E0     		b	.L107
 2230              	.L111:
 720:Drivers/STM32F4xx_HAL_Driver/Src/stm32f4xx_hal_rcc_ex.c ****         {
 2231              		.loc 1 720 0
 2232 00e8 3D4B     		ldr	r3, .L125
 2233 00ea 5B68     		ldr	r3, [r3, #4]
 2234 00ec 03F48003 		and	r3, r3, #4194304
 2235 00f0 002B     		cmp	r3, #0
 2236 00f2 09D1     		bne	.L117
 723:Drivers/STM32F4xx_HAL_Driver/Src/stm32f4xx_hal_rcc_ex.c ****         }
 2237              		.loc 1 723 0
 2238 00f4 3A4B     		ldr	r3, .L125
 2239 00f6 D3F88430 		ldr	r3, [r3, #132]
 2240 00fa 03F03F03 		and	r3, r3, #63
 2241 00fe 394A     		ldr	r2, .L125+4
 2242 0100 B2FBF3F3 		udiv	r3, r2, r3
 2243 0104 3B61     		str	r3, [r7, #16]
 2244 0106 08E0     		b	.L118
 2245              	.L117:
 728:Drivers/STM32F4xx_HAL_Driver/Src/stm32f4xx_hal_rcc_ex.c ****         }
 2246              		.loc 1 728 0
 2247 0108 354B     		ldr	r3, .L125
 2248 010a D3F88430 		ldr	r3, [r3, #132]
 2249 010e 03F03F03 		and	r3, r3, #63
 2250 0112 354A     		ldr	r2, .L125+8
 2251 0114 B2FBF3F3 		udiv	r3, r2, r3
 2252 0118 3B61     		str	r3, [r7, #16]
 2253              	.L118:
 733:Drivers/STM32F4xx_HAL_Driver/Src/stm32f4xx_hal_rcc_ex.c ****         frequency = (vcoinput * ((RCC->PLLI2SCFGR & RCC_PLLI2SCFGR_PLLI2SN) >> 6U))/(tmpreg1);
 2254              		.loc 1 733 0
 2255 011a 314B     		ldr	r3, .L125
 2256 011c D3F88430 		ldr	r3, [r3, #132]
 2257 0120 03F07063 		and	r3, r3, #251658240
 2258 0124 1B0E     		lsrs	r3, r3, #24
 2259 0126 FB60     		str	r3, [r7, #12]
 734:Drivers/STM32F4xx_HAL_Driver/Src/stm32f4xx_hal_rcc_ex.c ****         
 2260              		.loc 1 734 0
 2261 0128 2D4B     		ldr	r3, .L125
 2262 012a D3F88420 		ldr	r2, [r3, #132]
 2263 012e 47F6C073 		movw	r3, #32704
ARM GAS  /tmp/cctwGTwd.s 			page 65


 2264 0132 1340     		ands	r3, r3, r2
 2265 0134 9B09     		lsrs	r3, r3, #6
 2266 0136 3A69     		ldr	r2, [r7, #16]
 2267 0138 02FB03F2 		mul	r2, r2, r3
 2268 013c FB68     		ldr	r3, [r7, #12]
 2269 013e B2FBF3F3 		udiv	r3, r2, r3
 2270 0142 7B61     		str	r3, [r7, #20]
 737:Drivers/STM32F4xx_HAL_Driver/Src/stm32f4xx_hal_rcc_ex.c ****         frequency = frequency/(tmpreg1);
 2271              		.loc 1 737 0
 2272 0144 264B     		ldr	r3, .L125
 2273 0146 D3F88C30 		ldr	r3, [r3, #140]
 2274 014a 03F01F03 		and	r3, r3, #31
 2275 014e 0133     		adds	r3, r3, #1
 2276 0150 FB60     		str	r3, [r7, #12]
 738:Drivers/STM32F4xx_HAL_Driver/Src/stm32f4xx_hal_rcc_ex.c ****         break;   
 2277              		.loc 1 738 0
 2278 0152 7A69     		ldr	r2, [r7, #20]
 2279 0154 FB68     		ldr	r3, [r7, #12]
 2280 0156 B2FBF3F3 		udiv	r3, r2, r3
 2281 015a 7B61     		str	r3, [r7, #20]
 739:Drivers/STM32F4xx_HAL_Driver/Src/stm32f4xx_hal_rcc_ex.c ****       }
 2282              		.loc 1 739 0
 2283 015c 39E0     		b	.L107
 2284              	.L112:
 746:Drivers/STM32F4xx_HAL_Driver/Src/stm32f4xx_hal_rcc_ex.c ****         {
 2285              		.loc 1 746 0
 2286 015e 204B     		ldr	r3, .L125
 2287 0160 5B68     		ldr	r3, [r3, #4]
 2288 0162 03F48003 		and	r3, r3, #4194304
 2289 0166 002B     		cmp	r3, #0
 2290 0168 08D1     		bne	.L119
 749:Drivers/STM32F4xx_HAL_Driver/Src/stm32f4xx_hal_rcc_ex.c ****         }
 2291              		.loc 1 749 0
 2292 016a 1D4B     		ldr	r3, .L125
 2293 016c 5B68     		ldr	r3, [r3, #4]
 2294 016e 03F03F03 		and	r3, r3, #63
 2295 0172 1C4A     		ldr	r2, .L125+4
 2296 0174 B2FBF3F3 		udiv	r3, r2, r3
 2297 0178 3B61     		str	r3, [r7, #16]
 2298 017a 07E0     		b	.L120
 2299              	.L119:
 754:Drivers/STM32F4xx_HAL_Driver/Src/stm32f4xx_hal_rcc_ex.c ****         }
 2300              		.loc 1 754 0
 2301 017c 184B     		ldr	r3, .L125
 2302 017e 5B68     		ldr	r3, [r3, #4]
 2303 0180 03F03F03 		and	r3, r3, #63
 2304 0184 184A     		ldr	r2, .L125+8
 2305 0186 B2FBF3F3 		udiv	r3, r2, r3
 2306 018a 3B61     		str	r3, [r7, #16]
 2307              	.L120:
 759:Drivers/STM32F4xx_HAL_Driver/Src/stm32f4xx_hal_rcc_ex.c ****         frequency = (vcoinput * ((RCC->PLLCFGR & RCC_PLLCFGR_PLLN) >> 6U))/(tmpreg1);
 2308              		.loc 1 759 0
 2309 018c 144B     		ldr	r3, .L125
 2310 018e 5B68     		ldr	r3, [r3, #4]
 2311 0190 03F0E043 		and	r3, r3, #1879048192
 2312 0194 1B0F     		lsrs	r3, r3, #28
 2313 0196 FB60     		str	r3, [r7, #12]
ARM GAS  /tmp/cctwGTwd.s 			page 66


 760:Drivers/STM32F4xx_HAL_Driver/Src/stm32f4xx_hal_rcc_ex.c ****         break;       
 2314              		.loc 1 760 0
 2315 0198 114B     		ldr	r3, .L125
 2316 019a 5A68     		ldr	r2, [r3, #4]
 2317 019c 47F6C073 		movw	r3, #32704
 2318 01a0 1340     		ands	r3, r3, r2
 2319 01a2 9B09     		lsrs	r3, r3, #6
 2320 01a4 3A69     		ldr	r2, [r7, #16]
 2321 01a6 02FB03F2 		mul	r2, r2, r3
 2322 01aa FB68     		ldr	r3, [r7, #12]
 2323 01ac B2FBF3F3 		udiv	r3, r2, r3
 2324 01b0 7B61     		str	r3, [r7, #20]
 761:Drivers/STM32F4xx_HAL_Driver/Src/stm32f4xx_hal_rcc_ex.c ****       }
 2325              		.loc 1 761 0
 2326 01b2 0EE0     		b	.L107
 2327              	.L109:
 765:Drivers/STM32F4xx_HAL_Driver/Src/stm32f4xx_hal_rcc_ex.c ****         break;      
 2328              		.loc 1 765 0
 2329 01b4 0D4B     		ldr	r3, .L125+12
 2330 01b6 7B61     		str	r3, [r7, #20]
 766:Drivers/STM32F4xx_HAL_Driver/Src/stm32f4xx_hal_rcc_ex.c ****       }
 2331              		.loc 1 766 0
 2332 01b8 0BE0     		b	.L107
 2333              	.L114:
 770:Drivers/STM32F4xx_HAL_Driver/Src/stm32f4xx_hal_rcc_ex.c ****         {
 2334              		.loc 1 770 0
 2335 01ba 094B     		ldr	r3, .L125
 2336 01bc 5B68     		ldr	r3, [r3, #4]
 2337 01be 03F48003 		and	r3, r3, #4194304
 2338 01c2 002B     		cmp	r3, #0
 2339 01c4 02D1     		bne	.L121
 773:Drivers/STM32F4xx_HAL_Driver/Src/stm32f4xx_hal_rcc_ex.c ****         }
 2340              		.loc 1 773 0
 2341 01c6 074B     		ldr	r3, .L125+4
 2342 01c8 7B61     		str	r3, [r7, #20]
 780:Drivers/STM32F4xx_HAL_Driver/Src/stm32f4xx_hal_rcc_ex.c ****       }     
 2343              		.loc 1 780 0
 2344 01ca 01E0     		b	.L124
 2345              	.L121:
 778:Drivers/STM32F4xx_HAL_Driver/Src/stm32f4xx_hal_rcc_ex.c ****         }
 2346              		.loc 1 778 0
 2347 01cc 064B     		ldr	r3, .L125+8
 2348 01ce 7B61     		str	r3, [r7, #20]
 2349              	.L124:
 780:Drivers/STM32F4xx_HAL_Driver/Src/stm32f4xx_hal_rcc_ex.c ****       }     
 2350              		.loc 1 780 0
 2351 01d0 00BF     		nop
 2352              	.L107:
 785:Drivers/STM32F4xx_HAL_Driver/Src/stm32f4xx_hal_rcc_ex.c ****       }     
 786:Drivers/STM32F4xx_HAL_Driver/Src/stm32f4xx_hal_rcc_ex.c ****     }
 787:Drivers/STM32F4xx_HAL_Driver/Src/stm32f4xx_hal_rcc_ex.c ****   }
 788:Drivers/STM32F4xx_HAL_Driver/Src/stm32f4xx_hal_rcc_ex.c ****   return frequency;  
 2353              		.loc 1 788 0
 2354 01d2 7B69     		ldr	r3, [r7, #20]
 789:Drivers/STM32F4xx_HAL_Driver/Src/stm32f4xx_hal_rcc_ex.c **** }
 2355              		.loc 1 789 0
 2356 01d4 1846     		mov	r0, r3
ARM GAS  /tmp/cctwGTwd.s 			page 67


 2357 01d6 1C37     		adds	r7, r7, #28
 2358              	.LCFI18:
 2359              		.cfi_def_cfa_offset 4
 2360 01d8 BD46     		mov	sp, r7
 2361              	.LCFI19:
 2362              		.cfi_def_cfa_register 13
 2363              		@ sp needed
 2364 01da 5DF8047B 		ldr	r7, [sp], #4
 2365              	.LCFI20:
 2366              		.cfi_restore 7
 2367              		.cfi_def_cfa_offset 0
 2368 01de 7047     		bx	lr
 2369              	.L126:
 2370              		.align	2
 2371              	.L125:
 2372 01e0 00380240 		.word	1073887232
 2373 01e4 0024F400 		.word	16000000
 2374 01e8 00127A00 		.word	8000000
 2375 01ec 0080BB00 		.word	12288000
 2376              		.cfi_endproc
 2377              	.LFE129:
 2379              		.section	.text.HAL_RCC_OscConfig,"ax",%progbits
 2380              		.align	2
 2381              		.global	HAL_RCC_OscConfig
 2382              		.thumb
 2383              		.thumb_func
 2385              	HAL_RCC_OscConfig:
 2386              	.LFB130:
 790:Drivers/STM32F4xx_HAL_Driver/Src/stm32f4xx_hal_rcc_ex.c **** 
 791:Drivers/STM32F4xx_HAL_Driver/Src/stm32f4xx_hal_rcc_ex.c **** #endif /* STM32F446xx */
 792:Drivers/STM32F4xx_HAL_Driver/Src/stm32f4xx_hal_rcc_ex.c **** 
 793:Drivers/STM32F4xx_HAL_Driver/Src/stm32f4xx_hal_rcc_ex.c **** #if defined(STM32F469xx) || defined(STM32F479xx)
 794:Drivers/STM32F4xx_HAL_Driver/Src/stm32f4xx_hal_rcc_ex.c **** /**
 795:Drivers/STM32F4xx_HAL_Driver/Src/stm32f4xx_hal_rcc_ex.c ****   * @brief  Initializes the RCC extended peripherals clocks according to the specified
 796:Drivers/STM32F4xx_HAL_Driver/Src/stm32f4xx_hal_rcc_ex.c ****   *         parameters in the RCC_PeriphCLKInitTypeDef.
 797:Drivers/STM32F4xx_HAL_Driver/Src/stm32f4xx_hal_rcc_ex.c ****   * @param  PeriphClkInit: pointer to an RCC_PeriphCLKInitTypeDef structure that
 798:Drivers/STM32F4xx_HAL_Driver/Src/stm32f4xx_hal_rcc_ex.c ****   *         contains the configuration information for the Extended Peripherals
 799:Drivers/STM32F4xx_HAL_Driver/Src/stm32f4xx_hal_rcc_ex.c ****   *         clocks(I2S, SAI, LTDC, RTC and TIM).
 800:Drivers/STM32F4xx_HAL_Driver/Src/stm32f4xx_hal_rcc_ex.c ****   *         
 801:Drivers/STM32F4xx_HAL_Driver/Src/stm32f4xx_hal_rcc_ex.c ****   * @note   Care must be taken when HAL_RCCEx_PeriphCLKConfig() is used to select 
 802:Drivers/STM32F4xx_HAL_Driver/Src/stm32f4xx_hal_rcc_ex.c ****   *         the RTC clock source; in this case the Backup domain will be reset in  
 803:Drivers/STM32F4xx_HAL_Driver/Src/stm32f4xx_hal_rcc_ex.c ****   *         order to modify the RTC Clock source, as consequence RTC registers (including 
 804:Drivers/STM32F4xx_HAL_Driver/Src/stm32f4xx_hal_rcc_ex.c ****   *         the backup registers) and RCC_BDCR register are set to their reset values.
 805:Drivers/STM32F4xx_HAL_Driver/Src/stm32f4xx_hal_rcc_ex.c ****   *
 806:Drivers/STM32F4xx_HAL_Driver/Src/stm32f4xx_hal_rcc_ex.c ****   * @retval HAL status
 807:Drivers/STM32F4xx_HAL_Driver/Src/stm32f4xx_hal_rcc_ex.c ****   */
 808:Drivers/STM32F4xx_HAL_Driver/Src/stm32f4xx_hal_rcc_ex.c **** HAL_StatusTypeDef HAL_RCCEx_PeriphCLKConfig(RCC_PeriphCLKInitTypeDef  *PeriphClkInit)
 809:Drivers/STM32F4xx_HAL_Driver/Src/stm32f4xx_hal_rcc_ex.c **** {
 810:Drivers/STM32F4xx_HAL_Driver/Src/stm32f4xx_hal_rcc_ex.c ****   uint32_t tickstart = 0U;
 811:Drivers/STM32F4xx_HAL_Driver/Src/stm32f4xx_hal_rcc_ex.c ****   uint32_t tmpreg1 = 0U;
 812:Drivers/STM32F4xx_HAL_Driver/Src/stm32f4xx_hal_rcc_ex.c ****   uint32_t pllsaip = 0U;
 813:Drivers/STM32F4xx_HAL_Driver/Src/stm32f4xx_hal_rcc_ex.c ****   uint32_t pllsaiq = 0U;
 814:Drivers/STM32F4xx_HAL_Driver/Src/stm32f4xx_hal_rcc_ex.c ****   uint32_t pllsair = 0U;
 815:Drivers/STM32F4xx_HAL_Driver/Src/stm32f4xx_hal_rcc_ex.c ****     
 816:Drivers/STM32F4xx_HAL_Driver/Src/stm32f4xx_hal_rcc_ex.c ****   /* Check the parameters */
 817:Drivers/STM32F4xx_HAL_Driver/Src/stm32f4xx_hal_rcc_ex.c ****   assert_param(IS_RCC_PERIPHCLOCK(PeriphClkInit->PeriphClockSelection));
 818:Drivers/STM32F4xx_HAL_Driver/Src/stm32f4xx_hal_rcc_ex.c ****                                   
ARM GAS  /tmp/cctwGTwd.s 			page 68


 819:Drivers/STM32F4xx_HAL_Driver/Src/stm32f4xx_hal_rcc_ex.c ****   /*--------------------------- CLK48 Configuration --------------------------*/
 820:Drivers/STM32F4xx_HAL_Driver/Src/stm32f4xx_hal_rcc_ex.c ****   if(((PeriphClkInit->PeriphClockSelection) & RCC_PERIPHCLK_CLK48) == RCC_PERIPHCLK_CLK48)
 821:Drivers/STM32F4xx_HAL_Driver/Src/stm32f4xx_hal_rcc_ex.c ****   {
 822:Drivers/STM32F4xx_HAL_Driver/Src/stm32f4xx_hal_rcc_ex.c ****     /* Check the parameters */
 823:Drivers/STM32F4xx_HAL_Driver/Src/stm32f4xx_hal_rcc_ex.c ****     assert_param(IS_RCC_CLK48CLKSOURCE(PeriphClkInit->Clk48ClockSelection));
 824:Drivers/STM32F4xx_HAL_Driver/Src/stm32f4xx_hal_rcc_ex.c ****     
 825:Drivers/STM32F4xx_HAL_Driver/Src/stm32f4xx_hal_rcc_ex.c ****     /* Configure the CLK48 clock source */
 826:Drivers/STM32F4xx_HAL_Driver/Src/stm32f4xx_hal_rcc_ex.c ****     __HAL_RCC_CLK48_CONFIG(PeriphClkInit->Clk48ClockSelection);
 827:Drivers/STM32F4xx_HAL_Driver/Src/stm32f4xx_hal_rcc_ex.c ****   }                                  
 828:Drivers/STM32F4xx_HAL_Driver/Src/stm32f4xx_hal_rcc_ex.c ****   /*--------------------------------------------------------------------------*/
 829:Drivers/STM32F4xx_HAL_Driver/Src/stm32f4xx_hal_rcc_ex.c ****     
 830:Drivers/STM32F4xx_HAL_Driver/Src/stm32f4xx_hal_rcc_ex.c ****   /*------------------------------ SDIO Configuration ------------------------*/
 831:Drivers/STM32F4xx_HAL_Driver/Src/stm32f4xx_hal_rcc_ex.c ****   if(((PeriphClkInit->PeriphClockSelection) & RCC_PERIPHCLK_SDIO) == RCC_PERIPHCLK_SDIO)
 832:Drivers/STM32F4xx_HAL_Driver/Src/stm32f4xx_hal_rcc_ex.c ****   {
 833:Drivers/STM32F4xx_HAL_Driver/Src/stm32f4xx_hal_rcc_ex.c ****     /* Check the parameters */
 834:Drivers/STM32F4xx_HAL_Driver/Src/stm32f4xx_hal_rcc_ex.c ****     assert_param(IS_RCC_SDIOCLKSOURCE(PeriphClkInit->SdioClockSelection));
 835:Drivers/STM32F4xx_HAL_Driver/Src/stm32f4xx_hal_rcc_ex.c ****     
 836:Drivers/STM32F4xx_HAL_Driver/Src/stm32f4xx_hal_rcc_ex.c ****     /* Configure the SDIO clock source */
 837:Drivers/STM32F4xx_HAL_Driver/Src/stm32f4xx_hal_rcc_ex.c ****     __HAL_RCC_SDIO_CONFIG(PeriphClkInit->SdioClockSelection);
 838:Drivers/STM32F4xx_HAL_Driver/Src/stm32f4xx_hal_rcc_ex.c ****   }
 839:Drivers/STM32F4xx_HAL_Driver/Src/stm32f4xx_hal_rcc_ex.c ****   /*--------------------------------------------------------------------------*/
 840:Drivers/STM32F4xx_HAL_Driver/Src/stm32f4xx_hal_rcc_ex.c ****     
 841:Drivers/STM32F4xx_HAL_Driver/Src/stm32f4xx_hal_rcc_ex.c ****   /*----------------------- SAI/I2S Configuration (PLLI2S) -------------------*/
 842:Drivers/STM32F4xx_HAL_Driver/Src/stm32f4xx_hal_rcc_ex.c ****   /*------------------- Common configuration SAI/I2S -------------------------*/
 843:Drivers/STM32F4xx_HAL_Driver/Src/stm32f4xx_hal_rcc_ex.c ****   /* In Case of SAI or I2S Clock Configuration through PLLI2S, PLLI2SN division   
 844:Drivers/STM32F4xx_HAL_Driver/Src/stm32f4xx_hal_rcc_ex.c ****      factor is common parameters for both peripherals */ 
 845:Drivers/STM32F4xx_HAL_Driver/Src/stm32f4xx_hal_rcc_ex.c ****   if((((PeriphClkInit->PeriphClockSelection) & RCC_PERIPHCLK_I2S) == RCC_PERIPHCLK_I2S) || 
 846:Drivers/STM32F4xx_HAL_Driver/Src/stm32f4xx_hal_rcc_ex.c ****      (((PeriphClkInit->PeriphClockSelection) & RCC_PERIPHCLK_SAI_PLLI2S) == RCC_PERIPHCLK_SAI_PLLI2
 847:Drivers/STM32F4xx_HAL_Driver/Src/stm32f4xx_hal_rcc_ex.c ****      (((PeriphClkInit->PeriphClockSelection) & RCC_PERIPHCLK_PLLI2S) == RCC_PERIPHCLK_PLLI2S))
 848:Drivers/STM32F4xx_HAL_Driver/Src/stm32f4xx_hal_rcc_ex.c ****   {
 849:Drivers/STM32F4xx_HAL_Driver/Src/stm32f4xx_hal_rcc_ex.c ****     /* check for Parameters */
 850:Drivers/STM32F4xx_HAL_Driver/Src/stm32f4xx_hal_rcc_ex.c ****     assert_param(IS_RCC_PLLI2SN_VALUE(PeriphClkInit->PLLI2S.PLLI2SN));
 851:Drivers/STM32F4xx_HAL_Driver/Src/stm32f4xx_hal_rcc_ex.c ****         
 852:Drivers/STM32F4xx_HAL_Driver/Src/stm32f4xx_hal_rcc_ex.c ****     /* Disable the PLLI2S */
 853:Drivers/STM32F4xx_HAL_Driver/Src/stm32f4xx_hal_rcc_ex.c ****     __HAL_RCC_PLLI2S_DISABLE();    
 854:Drivers/STM32F4xx_HAL_Driver/Src/stm32f4xx_hal_rcc_ex.c ****     /* Get tick */
 855:Drivers/STM32F4xx_HAL_Driver/Src/stm32f4xx_hal_rcc_ex.c ****     tickstart = HAL_GetTick();
 856:Drivers/STM32F4xx_HAL_Driver/Src/stm32f4xx_hal_rcc_ex.c ****     /* Wait till PLLI2S is disabled */
 857:Drivers/STM32F4xx_HAL_Driver/Src/stm32f4xx_hal_rcc_ex.c ****     while(__HAL_RCC_GET_FLAG(RCC_FLAG_PLLI2SRDY)  != RESET)
 858:Drivers/STM32F4xx_HAL_Driver/Src/stm32f4xx_hal_rcc_ex.c ****     {
 859:Drivers/STM32F4xx_HAL_Driver/Src/stm32f4xx_hal_rcc_ex.c ****       if((HAL_GetTick() - tickstart ) > PLLI2S_TIMEOUT_VALUE)
 860:Drivers/STM32F4xx_HAL_Driver/Src/stm32f4xx_hal_rcc_ex.c ****       {
 861:Drivers/STM32F4xx_HAL_Driver/Src/stm32f4xx_hal_rcc_ex.c ****         /* return in case of Timeout detected */
 862:Drivers/STM32F4xx_HAL_Driver/Src/stm32f4xx_hal_rcc_ex.c ****         return HAL_TIMEOUT;
 863:Drivers/STM32F4xx_HAL_Driver/Src/stm32f4xx_hal_rcc_ex.c ****       }
 864:Drivers/STM32F4xx_HAL_Driver/Src/stm32f4xx_hal_rcc_ex.c ****     }
 865:Drivers/STM32F4xx_HAL_Driver/Src/stm32f4xx_hal_rcc_ex.c ****     
 866:Drivers/STM32F4xx_HAL_Driver/Src/stm32f4xx_hal_rcc_ex.c ****     /*---------------------- I2S configuration -------------------------------*/
 867:Drivers/STM32F4xx_HAL_Driver/Src/stm32f4xx_hal_rcc_ex.c ****     /* In Case of I2S Clock Configuration through PLLI2S, PLLI2SR must be added   
 868:Drivers/STM32F4xx_HAL_Driver/Src/stm32f4xx_hal_rcc_ex.c ****       only for I2S configuration */     
 869:Drivers/STM32F4xx_HAL_Driver/Src/stm32f4xx_hal_rcc_ex.c ****     if(((PeriphClkInit->PeriphClockSelection) & RCC_PERIPHCLK_I2S) == (RCC_PERIPHCLK_I2S))
 870:Drivers/STM32F4xx_HAL_Driver/Src/stm32f4xx_hal_rcc_ex.c ****     {
 871:Drivers/STM32F4xx_HAL_Driver/Src/stm32f4xx_hal_rcc_ex.c ****       /* check for Parameters */
 872:Drivers/STM32F4xx_HAL_Driver/Src/stm32f4xx_hal_rcc_ex.c ****       assert_param(IS_RCC_PLLI2SR_VALUE(PeriphClkInit->PLLI2S.PLLI2SR));
 873:Drivers/STM32F4xx_HAL_Driver/Src/stm32f4xx_hal_rcc_ex.c ****       /* Configure the PLLI2S division factors */
 874:Drivers/STM32F4xx_HAL_Driver/Src/stm32f4xx_hal_rcc_ex.c ****       /* PLLI2S_VCO = f(VCO clock) = f(PLLI2S clock input) x (PLLI2SN/PLLM) */
 875:Drivers/STM32F4xx_HAL_Driver/Src/stm32f4xx_hal_rcc_ex.c ****       /* I2SCLK = f(PLLI2S clock output) = f(VCO clock) / PLLI2SR */
ARM GAS  /tmp/cctwGTwd.s 			page 69


 876:Drivers/STM32F4xx_HAL_Driver/Src/stm32f4xx_hal_rcc_ex.c ****       __HAL_RCC_PLLI2S_CONFIG(PeriphClkInit->PLLI2S.PLLI2SN , PeriphClkInit->PLLI2S.PLLI2SR);
 877:Drivers/STM32F4xx_HAL_Driver/Src/stm32f4xx_hal_rcc_ex.c ****     }
 878:Drivers/STM32F4xx_HAL_Driver/Src/stm32f4xx_hal_rcc_ex.c ****   
 879:Drivers/STM32F4xx_HAL_Driver/Src/stm32f4xx_hal_rcc_ex.c ****     /*---------------------------- SAI configuration -------------------------*/ 
 880:Drivers/STM32F4xx_HAL_Driver/Src/stm32f4xx_hal_rcc_ex.c ****     /* In Case of SAI Clock Configuration through PLLI2S, PLLI2SQ and PLLI2S_DIVQ must  
 881:Drivers/STM32F4xx_HAL_Driver/Src/stm32f4xx_hal_rcc_ex.c ****        be added only for SAI configuration */     
 882:Drivers/STM32F4xx_HAL_Driver/Src/stm32f4xx_hal_rcc_ex.c ****     if(((PeriphClkInit->PeriphClockSelection) & RCC_PERIPHCLK_SAI_PLLI2S) == (RCC_PERIPHCLK_SAI_PLL
 883:Drivers/STM32F4xx_HAL_Driver/Src/stm32f4xx_hal_rcc_ex.c ****     {
 884:Drivers/STM32F4xx_HAL_Driver/Src/stm32f4xx_hal_rcc_ex.c ****       /* Check the PLLI2S division factors */
 885:Drivers/STM32F4xx_HAL_Driver/Src/stm32f4xx_hal_rcc_ex.c ****       assert_param(IS_RCC_PLLI2SQ_VALUE(PeriphClkInit->PLLI2S.PLLI2SQ));
 886:Drivers/STM32F4xx_HAL_Driver/Src/stm32f4xx_hal_rcc_ex.c ****       assert_param(IS_RCC_PLLI2S_DIVQ_VALUE(PeriphClkInit->PLLI2SDivQ));
 887:Drivers/STM32F4xx_HAL_Driver/Src/stm32f4xx_hal_rcc_ex.c ****       
 888:Drivers/STM32F4xx_HAL_Driver/Src/stm32f4xx_hal_rcc_ex.c ****       /* Read PLLI2SR value from PLLI2SCFGR register (this value is not need for SAI configuration)
 889:Drivers/STM32F4xx_HAL_Driver/Src/stm32f4xx_hal_rcc_ex.c ****       tmpreg1 = ((RCC->PLLI2SCFGR & RCC_PLLI2SCFGR_PLLI2SR) >> POSITION_VAL(RCC_PLLI2SCFGR_PLLI2SR)
 890:Drivers/STM32F4xx_HAL_Driver/Src/stm32f4xx_hal_rcc_ex.c ****       /* Configure the PLLI2S division factors */      
 891:Drivers/STM32F4xx_HAL_Driver/Src/stm32f4xx_hal_rcc_ex.c ****       /* PLLI2S_VCO Input  = PLL_SOURCE/PLLM */
 892:Drivers/STM32F4xx_HAL_Driver/Src/stm32f4xx_hal_rcc_ex.c ****       /* PLLI2S_VCO Output = PLLI2S_VCO Input * PLLI2SN */
 893:Drivers/STM32F4xx_HAL_Driver/Src/stm32f4xx_hal_rcc_ex.c ****       /* SAI_CLK(first level) = PLLI2S_VCO Output/PLLI2SQ */
 894:Drivers/STM32F4xx_HAL_Driver/Src/stm32f4xx_hal_rcc_ex.c ****       __HAL_RCC_PLLI2S_SAICLK_CONFIG(PeriphClkInit->PLLI2S.PLLI2SN , PeriphClkInit->PLLI2S.PLLI2SQ 
 895:Drivers/STM32F4xx_HAL_Driver/Src/stm32f4xx_hal_rcc_ex.c ****       /* SAI_CLK_x = SAI_CLK(first level)/PLLI2SDIVQ */ 
 896:Drivers/STM32F4xx_HAL_Driver/Src/stm32f4xx_hal_rcc_ex.c ****       __HAL_RCC_PLLI2S_PLLSAICLKDIVQ_CONFIG(PeriphClkInit->PLLI2SDivQ);
 897:Drivers/STM32F4xx_HAL_Driver/Src/stm32f4xx_hal_rcc_ex.c ****     }
 898:Drivers/STM32F4xx_HAL_Driver/Src/stm32f4xx_hal_rcc_ex.c ****     
 899:Drivers/STM32F4xx_HAL_Driver/Src/stm32f4xx_hal_rcc_ex.c ****     /*----------------- In Case of PLLI2S is just selected  -----------------*/  
 900:Drivers/STM32F4xx_HAL_Driver/Src/stm32f4xx_hal_rcc_ex.c ****     if((PeriphClkInit->PeriphClockSelection & RCC_PERIPHCLK_PLLI2S) == RCC_PERIPHCLK_PLLI2S)
 901:Drivers/STM32F4xx_HAL_Driver/Src/stm32f4xx_hal_rcc_ex.c ****     {
 902:Drivers/STM32F4xx_HAL_Driver/Src/stm32f4xx_hal_rcc_ex.c ****       /* Check for Parameters */
 903:Drivers/STM32F4xx_HAL_Driver/Src/stm32f4xx_hal_rcc_ex.c ****       assert_param(IS_RCC_PLLI2SQ_VALUE(PeriphClkInit->PLLI2S.PLLI2SQ));
 904:Drivers/STM32F4xx_HAL_Driver/Src/stm32f4xx_hal_rcc_ex.c ****       assert_param(IS_RCC_PLLI2SR_VALUE(PeriphClkInit->PLLI2S.PLLI2SR));
 905:Drivers/STM32F4xx_HAL_Driver/Src/stm32f4xx_hal_rcc_ex.c ****       
 906:Drivers/STM32F4xx_HAL_Driver/Src/stm32f4xx_hal_rcc_ex.c ****       /* Configure the PLLI2S multiplication and division factors */
 907:Drivers/STM32F4xx_HAL_Driver/Src/stm32f4xx_hal_rcc_ex.c ****       __HAL_RCC_PLLI2S_SAICLK_CONFIG(PeriphClkInit->PLLI2S.PLLI2SN, PeriphClkInit->PLLI2S.PLLI2SQ, 
 908:Drivers/STM32F4xx_HAL_Driver/Src/stm32f4xx_hal_rcc_ex.c ****     } 
 909:Drivers/STM32F4xx_HAL_Driver/Src/stm32f4xx_hal_rcc_ex.c ****     
 910:Drivers/STM32F4xx_HAL_Driver/Src/stm32f4xx_hal_rcc_ex.c ****     /* Enable the PLLI2S */
 911:Drivers/STM32F4xx_HAL_Driver/Src/stm32f4xx_hal_rcc_ex.c ****     __HAL_RCC_PLLI2S_ENABLE();
 912:Drivers/STM32F4xx_HAL_Driver/Src/stm32f4xx_hal_rcc_ex.c ****     /* Get tick */
 913:Drivers/STM32F4xx_HAL_Driver/Src/stm32f4xx_hal_rcc_ex.c ****     tickstart = HAL_GetTick();
 914:Drivers/STM32F4xx_HAL_Driver/Src/stm32f4xx_hal_rcc_ex.c ****     /* Wait till PLLI2S is ready */
 915:Drivers/STM32F4xx_HAL_Driver/Src/stm32f4xx_hal_rcc_ex.c ****     while(__HAL_RCC_GET_FLAG(RCC_FLAG_PLLI2SRDY)  == RESET)
 916:Drivers/STM32F4xx_HAL_Driver/Src/stm32f4xx_hal_rcc_ex.c ****     {
 917:Drivers/STM32F4xx_HAL_Driver/Src/stm32f4xx_hal_rcc_ex.c ****       if((HAL_GetTick() - tickstart ) > PLLI2S_TIMEOUT_VALUE)
 918:Drivers/STM32F4xx_HAL_Driver/Src/stm32f4xx_hal_rcc_ex.c ****       {
 919:Drivers/STM32F4xx_HAL_Driver/Src/stm32f4xx_hal_rcc_ex.c ****         /* return in case of Timeout detected */
 920:Drivers/STM32F4xx_HAL_Driver/Src/stm32f4xx_hal_rcc_ex.c ****         return HAL_TIMEOUT;
 921:Drivers/STM32F4xx_HAL_Driver/Src/stm32f4xx_hal_rcc_ex.c ****       }
 922:Drivers/STM32F4xx_HAL_Driver/Src/stm32f4xx_hal_rcc_ex.c ****     }
 923:Drivers/STM32F4xx_HAL_Driver/Src/stm32f4xx_hal_rcc_ex.c ****   }
 924:Drivers/STM32F4xx_HAL_Driver/Src/stm32f4xx_hal_rcc_ex.c ****   /*--------------------------------------------------------------------------*/
 925:Drivers/STM32F4xx_HAL_Driver/Src/stm32f4xx_hal_rcc_ex.c ****     
 926:Drivers/STM32F4xx_HAL_Driver/Src/stm32f4xx_hal_rcc_ex.c ****   /*----------------------- SAI/LTDC Configuration (PLLSAI) ------------------*/
 927:Drivers/STM32F4xx_HAL_Driver/Src/stm32f4xx_hal_rcc_ex.c ****   /*----------------------- Common configuration SAI/LTDC --------------------*/
 928:Drivers/STM32F4xx_HAL_Driver/Src/stm32f4xx_hal_rcc_ex.c ****   /* In Case of SAI, LTDC or CLK48 Clock Configuration through PLLSAI, PLLSAIN division
 929:Drivers/STM32F4xx_HAL_Driver/Src/stm32f4xx_hal_rcc_ex.c ****      factor is common parameters for these peripherals */ 
 930:Drivers/STM32F4xx_HAL_Driver/Src/stm32f4xx_hal_rcc_ex.c ****   if((((PeriphClkInit->PeriphClockSelection) & RCC_PERIPHCLK_SAI_PLLSAI) == RCC_PERIPHCLK_SAI_PLLSA
 931:Drivers/STM32F4xx_HAL_Driver/Src/stm32f4xx_hal_rcc_ex.c ****      (((PeriphClkInit->PeriphClockSelection) & RCC_PERIPHCLK_LTDC) == RCC_PERIPHCLK_LTDC)          
 932:Drivers/STM32F4xx_HAL_Driver/Src/stm32f4xx_hal_rcc_ex.c ****      ((((PeriphClkInit->PeriphClockSelection) & RCC_PERIPHCLK_CLK48) == RCC_PERIPHCLK_CLK48)       
ARM GAS  /tmp/cctwGTwd.s 			page 70


 933:Drivers/STM32F4xx_HAL_Driver/Src/stm32f4xx_hal_rcc_ex.c ****       (PeriphClkInit->Clk48ClockSelection == RCC_CLK48CLKSOURCE_PLLSAIP)))
 934:Drivers/STM32F4xx_HAL_Driver/Src/stm32f4xx_hal_rcc_ex.c ****   {
 935:Drivers/STM32F4xx_HAL_Driver/Src/stm32f4xx_hal_rcc_ex.c ****     /* Check the PLLSAI division factors */
 936:Drivers/STM32F4xx_HAL_Driver/Src/stm32f4xx_hal_rcc_ex.c ****     assert_param(IS_RCC_PLLSAIN_VALUE(PeriphClkInit->PLLSAI.PLLSAIN));
 937:Drivers/STM32F4xx_HAL_Driver/Src/stm32f4xx_hal_rcc_ex.c ****  
 938:Drivers/STM32F4xx_HAL_Driver/Src/stm32f4xx_hal_rcc_ex.c ****     /* Disable PLLSAI Clock */
 939:Drivers/STM32F4xx_HAL_Driver/Src/stm32f4xx_hal_rcc_ex.c ****     __HAL_RCC_PLLSAI_DISABLE(); 
 940:Drivers/STM32F4xx_HAL_Driver/Src/stm32f4xx_hal_rcc_ex.c ****     /* Get tick */
 941:Drivers/STM32F4xx_HAL_Driver/Src/stm32f4xx_hal_rcc_ex.c ****     tickstart = HAL_GetTick();
 942:Drivers/STM32F4xx_HAL_Driver/Src/stm32f4xx_hal_rcc_ex.c ****     /* Wait till PLLSAI is disabled */
 943:Drivers/STM32F4xx_HAL_Driver/Src/stm32f4xx_hal_rcc_ex.c ****     while(__HAL_RCC_PLLSAI_GET_FLAG() != RESET)
 944:Drivers/STM32F4xx_HAL_Driver/Src/stm32f4xx_hal_rcc_ex.c ****     {
 945:Drivers/STM32F4xx_HAL_Driver/Src/stm32f4xx_hal_rcc_ex.c ****       if((HAL_GetTick() - tickstart ) > PLLSAI_TIMEOUT_VALUE)
 946:Drivers/STM32F4xx_HAL_Driver/Src/stm32f4xx_hal_rcc_ex.c ****       { 
 947:Drivers/STM32F4xx_HAL_Driver/Src/stm32f4xx_hal_rcc_ex.c ****         /* return in case of Timeout detected */
 948:Drivers/STM32F4xx_HAL_Driver/Src/stm32f4xx_hal_rcc_ex.c ****         return HAL_TIMEOUT;
 949:Drivers/STM32F4xx_HAL_Driver/Src/stm32f4xx_hal_rcc_ex.c ****       }
 950:Drivers/STM32F4xx_HAL_Driver/Src/stm32f4xx_hal_rcc_ex.c ****     }
 951:Drivers/STM32F4xx_HAL_Driver/Src/stm32f4xx_hal_rcc_ex.c ****     
 952:Drivers/STM32F4xx_HAL_Driver/Src/stm32f4xx_hal_rcc_ex.c ****     /*---------------------------- SAI configuration -------------------------*/
 953:Drivers/STM32F4xx_HAL_Driver/Src/stm32f4xx_hal_rcc_ex.c ****     /* In Case of SAI Clock Configuration through PLLSAI, PLLSAIQ and PLLSAI_DIVQ must  
 954:Drivers/STM32F4xx_HAL_Driver/Src/stm32f4xx_hal_rcc_ex.c ****        be added only for SAI configuration */     
 955:Drivers/STM32F4xx_HAL_Driver/Src/stm32f4xx_hal_rcc_ex.c ****     if(((PeriphClkInit->PeriphClockSelection) & RCC_PERIPHCLK_SAI_PLLSAI) == (RCC_PERIPHCLK_SAI_PLL
 956:Drivers/STM32F4xx_HAL_Driver/Src/stm32f4xx_hal_rcc_ex.c ****     {
 957:Drivers/STM32F4xx_HAL_Driver/Src/stm32f4xx_hal_rcc_ex.c ****       assert_param(IS_RCC_PLLSAIQ_VALUE(PeriphClkInit->PLLSAI.PLLSAIQ));
 958:Drivers/STM32F4xx_HAL_Driver/Src/stm32f4xx_hal_rcc_ex.c ****       assert_param(IS_RCC_PLLSAI_DIVQ_VALUE(PeriphClkInit->PLLSAIDivQ));
 959:Drivers/STM32F4xx_HAL_Driver/Src/stm32f4xx_hal_rcc_ex.c ****  
 960:Drivers/STM32F4xx_HAL_Driver/Src/stm32f4xx_hal_rcc_ex.c ****       /* Read PLLSAIP value from PLLSAICFGR register (this value is not needed for SAI configuratio
 961:Drivers/STM32F4xx_HAL_Driver/Src/stm32f4xx_hal_rcc_ex.c ****       pllsaip = ((((RCC->PLLSAICFGR & RCC_PLLSAICFGR_PLLSAIP) >> POSITION_VAL(RCC_PLLSAICFGR_PLLSAI
 962:Drivers/STM32F4xx_HAL_Driver/Src/stm32f4xx_hal_rcc_ex.c ****       /* Read PLLSAIR value from PLLSAICFGR register (this value is not need for SAI configuration)
 963:Drivers/STM32F4xx_HAL_Driver/Src/stm32f4xx_hal_rcc_ex.c ****       pllsair = ((RCC->PLLSAICFGR & RCC_PLLSAICFGR_PLLSAIR) >> POSITION_VAL(RCC_PLLSAICFGR_PLLSAIR)
 964:Drivers/STM32F4xx_HAL_Driver/Src/stm32f4xx_hal_rcc_ex.c ****       /* PLLSAI_VCO Input  = PLL_SOURCE/PLLM */
 965:Drivers/STM32F4xx_HAL_Driver/Src/stm32f4xx_hal_rcc_ex.c ****       /* PLLSAI_VCO Output = PLLSAI_VCO Input * PLLSAIN */
 966:Drivers/STM32F4xx_HAL_Driver/Src/stm32f4xx_hal_rcc_ex.c ****       /* SAI_CLK(first level) = PLLSAI_VCO Output/PLLSAIQ */
 967:Drivers/STM32F4xx_HAL_Driver/Src/stm32f4xx_hal_rcc_ex.c ****       __HAL_RCC_PLLSAI_CONFIG(PeriphClkInit->PLLSAI.PLLSAIN, pllsaip, PeriphClkInit->PLLSAI.PLLSAIQ
 968:Drivers/STM32F4xx_HAL_Driver/Src/stm32f4xx_hal_rcc_ex.c ****       /* SAI_CLK_x = SAI_CLK(first level)/PLLSAIDIVQ */ 
 969:Drivers/STM32F4xx_HAL_Driver/Src/stm32f4xx_hal_rcc_ex.c ****       __HAL_RCC_PLLSAI_PLLSAICLKDIVQ_CONFIG(PeriphClkInit->PLLSAIDivQ);
 970:Drivers/STM32F4xx_HAL_Driver/Src/stm32f4xx_hal_rcc_ex.c ****     }
 971:Drivers/STM32F4xx_HAL_Driver/Src/stm32f4xx_hal_rcc_ex.c ****     
 972:Drivers/STM32F4xx_HAL_Driver/Src/stm32f4xx_hal_rcc_ex.c ****     /*---------------------------- LTDC configuration ------------------------*/
 973:Drivers/STM32F4xx_HAL_Driver/Src/stm32f4xx_hal_rcc_ex.c ****     if(((PeriphClkInit->PeriphClockSelection) & RCC_PERIPHCLK_LTDC) == (RCC_PERIPHCLK_LTDC))
 974:Drivers/STM32F4xx_HAL_Driver/Src/stm32f4xx_hal_rcc_ex.c ****     {
 975:Drivers/STM32F4xx_HAL_Driver/Src/stm32f4xx_hal_rcc_ex.c ****       assert_param(IS_RCC_PLLSAIR_VALUE(PeriphClkInit->PLLSAI.PLLSAIR));
 976:Drivers/STM32F4xx_HAL_Driver/Src/stm32f4xx_hal_rcc_ex.c ****       assert_param(IS_RCC_PLLSAI_DIVR_VALUE(PeriphClkInit->PLLSAIDivR));
 977:Drivers/STM32F4xx_HAL_Driver/Src/stm32f4xx_hal_rcc_ex.c **** 
 978:Drivers/STM32F4xx_HAL_Driver/Src/stm32f4xx_hal_rcc_ex.c ****       /* Read PLLSAIP value from PLLSAICFGR register (this value is not needed for SAI configuratio
 979:Drivers/STM32F4xx_HAL_Driver/Src/stm32f4xx_hal_rcc_ex.c ****       pllsaip = ((((RCC->PLLSAICFGR & RCC_PLLSAICFGR_PLLSAIP) >> POSITION_VAL(RCC_PLLSAICFGR_PLLSAI
 980:Drivers/STM32F4xx_HAL_Driver/Src/stm32f4xx_hal_rcc_ex.c ****       /* Read PLLSAIQ value from PLLSAICFGR register (this value is not need for SAI configuration)
 981:Drivers/STM32F4xx_HAL_Driver/Src/stm32f4xx_hal_rcc_ex.c ****       pllsaiq = ((RCC->PLLSAICFGR & RCC_PLLSAICFGR_PLLSAIQ) >> POSITION_VAL(RCC_PLLSAICFGR_PLLSAIQ)
 982:Drivers/STM32F4xx_HAL_Driver/Src/stm32f4xx_hal_rcc_ex.c ****       /* PLLSAI_VCO Input  = PLL_SOURCE/PLLM */
 983:Drivers/STM32F4xx_HAL_Driver/Src/stm32f4xx_hal_rcc_ex.c ****       /* PLLSAI_VCO Output = PLLSAI_VCO Input * PLLSAIN */
 984:Drivers/STM32F4xx_HAL_Driver/Src/stm32f4xx_hal_rcc_ex.c ****       /* LTDC_CLK(first level) = PLLSAI_VCO Output/PLLSAIR */
 985:Drivers/STM32F4xx_HAL_Driver/Src/stm32f4xx_hal_rcc_ex.c ****       __HAL_RCC_PLLSAI_CONFIG(PeriphClkInit->PLLSAI.PLLSAIN, pllsaip, pllsaiq, PeriphClkInit->PLLSA
 986:Drivers/STM32F4xx_HAL_Driver/Src/stm32f4xx_hal_rcc_ex.c ****       /* LTDC_CLK = LTDC_CLK(first level)/PLLSAIDIVR */ 
 987:Drivers/STM32F4xx_HAL_Driver/Src/stm32f4xx_hal_rcc_ex.c ****       __HAL_RCC_PLLSAI_PLLSAICLKDIVR_CONFIG(PeriphClkInit->PLLSAIDivR);
 988:Drivers/STM32F4xx_HAL_Driver/Src/stm32f4xx_hal_rcc_ex.c ****     }    
 989:Drivers/STM32F4xx_HAL_Driver/Src/stm32f4xx_hal_rcc_ex.c ****     
ARM GAS  /tmp/cctwGTwd.s 			page 71


 990:Drivers/STM32F4xx_HAL_Driver/Src/stm32f4xx_hal_rcc_ex.c ****     /*---------------------------- CLK48 configuration ------------------------*/
 991:Drivers/STM32F4xx_HAL_Driver/Src/stm32f4xx_hal_rcc_ex.c ****     /* Configure the PLLSAI when it is used as clock source for CLK48 */
 992:Drivers/STM32F4xx_HAL_Driver/Src/stm32f4xx_hal_rcc_ex.c ****     if((((PeriphClkInit->PeriphClockSelection) & RCC_PERIPHCLK_CLK48) == (RCC_PERIPHCLK_CLK48)) && 
 993:Drivers/STM32F4xx_HAL_Driver/Src/stm32f4xx_hal_rcc_ex.c ****        (PeriphClkInit->Clk48ClockSelection == RCC_CLK48CLKSOURCE_PLLSAIP))
 994:Drivers/STM32F4xx_HAL_Driver/Src/stm32f4xx_hal_rcc_ex.c ****     {
 995:Drivers/STM32F4xx_HAL_Driver/Src/stm32f4xx_hal_rcc_ex.c ****       assert_param(IS_RCC_PLLSAIP_VALUE(PeriphClkInit->PLLSAI.PLLSAIP));
 996:Drivers/STM32F4xx_HAL_Driver/Src/stm32f4xx_hal_rcc_ex.c ****       
 997:Drivers/STM32F4xx_HAL_Driver/Src/stm32f4xx_hal_rcc_ex.c ****       /* Read PLLSAIQ value from PLLSAICFGR register (this value is not need for SAI configuration)
 998:Drivers/STM32F4xx_HAL_Driver/Src/stm32f4xx_hal_rcc_ex.c ****       pllsaiq = ((RCC->PLLSAICFGR & RCC_PLLSAICFGR_PLLSAIQ) >> POSITION_VAL(RCC_PLLSAICFGR_PLLSAIQ)
 999:Drivers/STM32F4xx_HAL_Driver/Src/stm32f4xx_hal_rcc_ex.c ****       /* Read PLLSAIR value from PLLSAICFGR register (this value is not need for SAI configuration)
1000:Drivers/STM32F4xx_HAL_Driver/Src/stm32f4xx_hal_rcc_ex.c ****       pllsair = ((RCC->PLLSAICFGR & RCC_PLLSAICFGR_PLLSAIR) >> POSITION_VAL(RCC_PLLSAICFGR_PLLSAIR)
1001:Drivers/STM32F4xx_HAL_Driver/Src/stm32f4xx_hal_rcc_ex.c ****       /* PLLSAI_VCO Input  = PLL_SOURCE/PLLM */
1002:Drivers/STM32F4xx_HAL_Driver/Src/stm32f4xx_hal_rcc_ex.c ****       /* PLLSAI_VCO Output = PLLSAI_VCO Input * PLLSAIN */
1003:Drivers/STM32F4xx_HAL_Driver/Src/stm32f4xx_hal_rcc_ex.c ****       /* CLK48_CLK(first level) = PLLSAI_VCO Output/PLLSAIP */
1004:Drivers/STM32F4xx_HAL_Driver/Src/stm32f4xx_hal_rcc_ex.c ****       __HAL_RCC_PLLSAI_CONFIG(PeriphClkInit->PLLSAI.PLLSAIN, PeriphClkInit->PLLSAI.PLLSAIP, pllsaiq
1005:Drivers/STM32F4xx_HAL_Driver/Src/stm32f4xx_hal_rcc_ex.c ****     }
1006:Drivers/STM32F4xx_HAL_Driver/Src/stm32f4xx_hal_rcc_ex.c ****     
1007:Drivers/STM32F4xx_HAL_Driver/Src/stm32f4xx_hal_rcc_ex.c ****     /* Enable PLLSAI Clock */
1008:Drivers/STM32F4xx_HAL_Driver/Src/stm32f4xx_hal_rcc_ex.c ****     __HAL_RCC_PLLSAI_ENABLE();
1009:Drivers/STM32F4xx_HAL_Driver/Src/stm32f4xx_hal_rcc_ex.c ****     /* Get tick */
1010:Drivers/STM32F4xx_HAL_Driver/Src/stm32f4xx_hal_rcc_ex.c ****     tickstart = HAL_GetTick();
1011:Drivers/STM32F4xx_HAL_Driver/Src/stm32f4xx_hal_rcc_ex.c ****     /* Wait till PLLSAI is ready */
1012:Drivers/STM32F4xx_HAL_Driver/Src/stm32f4xx_hal_rcc_ex.c ****     while(__HAL_RCC_PLLSAI_GET_FLAG() == RESET)
1013:Drivers/STM32F4xx_HAL_Driver/Src/stm32f4xx_hal_rcc_ex.c ****     {
1014:Drivers/STM32F4xx_HAL_Driver/Src/stm32f4xx_hal_rcc_ex.c ****       if((HAL_GetTick() - tickstart ) > PLLSAI_TIMEOUT_VALUE)
1015:Drivers/STM32F4xx_HAL_Driver/Src/stm32f4xx_hal_rcc_ex.c ****       { 
1016:Drivers/STM32F4xx_HAL_Driver/Src/stm32f4xx_hal_rcc_ex.c ****         /* return in case of Timeout detected */
1017:Drivers/STM32F4xx_HAL_Driver/Src/stm32f4xx_hal_rcc_ex.c ****         return HAL_TIMEOUT;
1018:Drivers/STM32F4xx_HAL_Driver/Src/stm32f4xx_hal_rcc_ex.c ****       }
1019:Drivers/STM32F4xx_HAL_Driver/Src/stm32f4xx_hal_rcc_ex.c ****     }  
1020:Drivers/STM32F4xx_HAL_Driver/Src/stm32f4xx_hal_rcc_ex.c ****   }
1021:Drivers/STM32F4xx_HAL_Driver/Src/stm32f4xx_hal_rcc_ex.c **** 
1022:Drivers/STM32F4xx_HAL_Driver/Src/stm32f4xx_hal_rcc_ex.c ****   /*--------------------------------------------------------------------------*/
1023:Drivers/STM32F4xx_HAL_Driver/Src/stm32f4xx_hal_rcc_ex.c ****      
1024:Drivers/STM32F4xx_HAL_Driver/Src/stm32f4xx_hal_rcc_ex.c ****   /*---------------------------- RTC configuration ---------------------------*/
1025:Drivers/STM32F4xx_HAL_Driver/Src/stm32f4xx_hal_rcc_ex.c ****   if(((PeriphClkInit->PeriphClockSelection) & RCC_PERIPHCLK_RTC) == (RCC_PERIPHCLK_RTC))
1026:Drivers/STM32F4xx_HAL_Driver/Src/stm32f4xx_hal_rcc_ex.c ****   {
1027:Drivers/STM32F4xx_HAL_Driver/Src/stm32f4xx_hal_rcc_ex.c ****     /* Check for RTC Parameters used to output RTCCLK */
1028:Drivers/STM32F4xx_HAL_Driver/Src/stm32f4xx_hal_rcc_ex.c ****     assert_param(IS_RCC_RTCCLKSOURCE(PeriphClkInit->RTCClockSelection));
1029:Drivers/STM32F4xx_HAL_Driver/Src/stm32f4xx_hal_rcc_ex.c ****     
1030:Drivers/STM32F4xx_HAL_Driver/Src/stm32f4xx_hal_rcc_ex.c ****     /* Enable Power Clock*/
1031:Drivers/STM32F4xx_HAL_Driver/Src/stm32f4xx_hal_rcc_ex.c ****     __HAL_RCC_PWR_CLK_ENABLE();
1032:Drivers/STM32F4xx_HAL_Driver/Src/stm32f4xx_hal_rcc_ex.c ****     
1033:Drivers/STM32F4xx_HAL_Driver/Src/stm32f4xx_hal_rcc_ex.c ****     /* Enable write access to Backup domain */
1034:Drivers/STM32F4xx_HAL_Driver/Src/stm32f4xx_hal_rcc_ex.c ****     PWR->CR |= PWR_CR_DBP;
1035:Drivers/STM32F4xx_HAL_Driver/Src/stm32f4xx_hal_rcc_ex.c ****     
1036:Drivers/STM32F4xx_HAL_Driver/Src/stm32f4xx_hal_rcc_ex.c ****     /* Get tick */
1037:Drivers/STM32F4xx_HAL_Driver/Src/stm32f4xx_hal_rcc_ex.c ****     tickstart = HAL_GetTick();
1038:Drivers/STM32F4xx_HAL_Driver/Src/stm32f4xx_hal_rcc_ex.c ****     
1039:Drivers/STM32F4xx_HAL_Driver/Src/stm32f4xx_hal_rcc_ex.c ****     while((PWR->CR & PWR_CR_DBP) == RESET)
1040:Drivers/STM32F4xx_HAL_Driver/Src/stm32f4xx_hal_rcc_ex.c ****     {
1041:Drivers/STM32F4xx_HAL_Driver/Src/stm32f4xx_hal_rcc_ex.c ****       if((HAL_GetTick() - tickstart ) > RCC_DBP_TIMEOUT_VALUE)
1042:Drivers/STM32F4xx_HAL_Driver/Src/stm32f4xx_hal_rcc_ex.c ****       {
1043:Drivers/STM32F4xx_HAL_Driver/Src/stm32f4xx_hal_rcc_ex.c ****         return HAL_TIMEOUT;
1044:Drivers/STM32F4xx_HAL_Driver/Src/stm32f4xx_hal_rcc_ex.c ****       }
1045:Drivers/STM32F4xx_HAL_Driver/Src/stm32f4xx_hal_rcc_ex.c ****     }
1046:Drivers/STM32F4xx_HAL_Driver/Src/stm32f4xx_hal_rcc_ex.c ****     /* Reset the Backup domain only if the RTC Clock source selection is modified from reset value 
ARM GAS  /tmp/cctwGTwd.s 			page 72


1047:Drivers/STM32F4xx_HAL_Driver/Src/stm32f4xx_hal_rcc_ex.c ****     tmpreg1 = (RCC->BDCR & RCC_BDCR_RTCSEL);
1048:Drivers/STM32F4xx_HAL_Driver/Src/stm32f4xx_hal_rcc_ex.c ****     if((tmpreg1 != 0x00000000U) && ((tmpreg1) != (PeriphClkInit->RTCClockSelection & RCC_BDCR_RTCSE
1049:Drivers/STM32F4xx_HAL_Driver/Src/stm32f4xx_hal_rcc_ex.c ****     {
1050:Drivers/STM32F4xx_HAL_Driver/Src/stm32f4xx_hal_rcc_ex.c ****       /* Store the content of BDCR register before the reset of Backup Domain */
1051:Drivers/STM32F4xx_HAL_Driver/Src/stm32f4xx_hal_rcc_ex.c ****       tmpreg1 = (RCC->BDCR & ~(RCC_BDCR_RTCSEL));
